; Listing generated by Microsoft (R) Optimizing Compiler Version 18.00.31101.0 

	TITLE	I:\Study\filescan\filescan\ignore.c
	.686P
	.XMM
	include listing.inc
	.model	flat

INCLUDELIB OLDNAMES

PUBLIC	??_C@_13JOFGPIOO@?$AA?4?$AA?$AA@		; `string'
PUBLIC	??_C@_15DDHGOCBH@?$AA?4?$AA?4?$AA?$AA@		; `string'
PUBLIC	??_C@_1BE@MNLJKMJM@?$AA?4?$AAa?$AAg?$AAi?$AAg?$AAn?$AAo?$AAr?$AAe?$AA?$AA@ ; `string'
PUBLIC	??_C@_1BG@DMJCABDA@?$AA?4?$AAg?$AAi?$AAt?$AAi?$AAg?$AAn?$AAo?$AAr?$AAe?$AA?$AA@ ; `string'
PUBLIC	??_C@_1CE@PDAAMJKA@?$AA?4?$AAg?$AAi?$AAt?$AA?1?$AAi?$AAn?$AAf?$AAo?$AA?1?$AAe?$AAx?$AAc?$AAl?$AAu?$AAd?$AAe?$AA?$AA@ ; `string'
PUBLIC	??_C@_1BE@DFLKLEHB@?$AA?4?$AAh?$AAg?$AAi?$AAg?$AAn?$AAo?$AAr?$AAe?$AA?$AA@ ; `string'
PUBLIC	??_C@_19GJLMFMHF@?$AA?4?$AAs?$AAv?$AAn?$AA?$AA@	; `string'
PUBLIC	??_C@_1M@BHHLEAOO@?$AA?$CF?$AAs?$AA?1?$AA?$CF?$AAs?$AA?$AA@ ; `string'
PUBLIC	??_C@_15GANGMFKL@?$AA?$CF?$AAs?$AA?$AA@		; `string'
PUBLIC	??_C@_15ILMKIFHC@?$AA?4?$AA?1?$AA?$AA@		; `string'
PUBLIC	??_C@_1FE@DKODGOLJ@?$AAP?$AAa?$AAt?$AAt?$AAe?$AAr?$AAn?$AA?5?$AAi?$AAs?$AA?5?$AAe?$AAm?$AAp?$AAt?$AAy?$AA?4?$AA?5?$AAN?$AAo?$AAt?$AA?5?$AAa?$AAd?$AAd?$AAi?$AAn?$AAg?$AA?5?$AAa?$AAn?$AAy@ ; `string'
PUBLIC	??_C@_1BK@POFKGJHG@?$AAr?$AAo?$AAo?$AAt?$AA?5?$AAi?$AAg?$AAn?$AAo?$AAr?$AAe?$AAs?$AA?$AA@ ; `string'
PUBLIC	??_C@_1DM@OPEHFOEM@?$AAa?$AAd?$AAd?$AAe?$AAd?$AA?5?$AAi?$AAg?$AAn?$AAo?$AAr?$AAe?$AA?5?$AAp?$AAa?$AAt?$AAt?$AAe?$AAr?$AAn?$AA?5?$AA?$CF?$AAs?$AA?5?$AAt?$AAo?$AA?5?$AA?$CF?$AAs?$AA?$AA@ ; `string'
PUBLIC	??_C@_13BPINEIPE@?$AAr?$AA?$AA@			; `string'
PUBLIC	??_C@_1EM@MILJMGI@?$AAS?$AAk?$AAi?$AAp?$AAp?$AAi?$AAn?$AAg?$AA?5?$AAi?$AAg?$AAn?$AAo?$AAr?$AAe?$AA?5?$AAf?$AAi?$AAl?$AAe?$AA?5?$AA?$CF?$AAs?$AA?3?$AA?5?$AAn?$AAo?$AAt?$AA?5?$AAr?$AAe?$AAa@ ; `string'
PUBLIC	??_C@_1DA@KDLFMBOA@?$AAL?$AAo?$AAa?$AAd?$AAi?$AAn?$AAg?$AA?5?$AAi?$AAg?$AAn?$AAo?$AAr?$AAe?$AA?5?$AAf?$AAi?$AAl?$AAe?$AA?5?$AA?$CF?$AAs?$AA?4?$AA?$AA@ ; `string'
PUBLIC	??_C@_1BM@EPJFBLOO@?$AAd?$AAi?$AAr?$AA?9?$AAp?$AAr?$AAo?$AAp?$AA?9?$AAb?$AAa?$AAs?$AAe?$AA?$AA@ ; `string'
PUBLIC	??_C@_1DI@GLDLEOPM@?$AAS?$AAk?$AAi?$AAp?$AAp?$AAi?$AAn?$AAg?$AA?5?$AAs?$AAv?$AAn?$AA?5?$AAi?$AAg?$AAn?$AAo?$AAr?$AAe?$AA?5?$AAf?$AAi?$AAl?$AAe?$AA?5?$AA?$CF?$AAs?$AA?$AA@ ; `string'
PUBLIC	??_C@_1O@JIECKIAG@?$AAK?$AA?5?$AA?$CF?$AAz?$AAu?$AA?6?$AA?$AA@ ; `string'
PUBLIC	??_C@_1BA@IALJGMIP@?$AA?6?$AAV?$AA?5?$AA?$CF?$AAz?$AAu?$AA?6?$AA?$AA@ ; `string'
PUBLIC	??_C@_1JA@PPOCPNJK@?$AAU?$AAn?$AAa?$AAb?$AAl?$AAe?$AA?5?$AAt?$AAo?$AA?5?$AAp?$AAa?$AAr?$AAs?$AAe?$AA?5?$AAs?$AAv?$AAn?$AAi?$AAg?$AAn?$AAo?$AAr?$AAe?$AA?5?$AAf?$AAi?$AAl?$AAe?$AA?5?$AA?$CF@ ; `string'
PUBLIC	??_C@_1BG@MHJCCDCA@?$AAs?$AAv?$AAn?$AA?3?$AAi?$AAg?$AAn?$AAo?$AAr?$AAe?$AA?$AA@ ; `string'
PUBLIC	??_C@_1EK@CEJOLOEB@?$AAk?$AAe?$AAy?$AA?5?$AAi?$AAs?$AA?5?$AA?$CF?$AAs?$AA?0?$AA?5?$AAn?$AAo?$AAt?$AA?5?$AA?$CF?$AAs?$AA?4?$AA?5?$AAs?$AAk?$AAi?$AAp?$AAp?$AAi?$AAn?$AAg?$AA?5?$AA?$CF?$AAu?$AA?5?$AAb@ ; `string'
PUBLIC	??_C@_1BE@BLLLEGOK@?$AAe?$AAn?$AAt?$AAr?$AAy?$AA?3?$AA?5?$AA?$CF?$AAs?$AA?$AA@ ; `string'
PUBLIC	??_C@_1GO@MFIIIHKO@?$AAf?$AAi?$AAl?$AAe?$AA?5?$AA?$CF?$AAs?$AA?5?$AAi?$AAg?$AAn?$AAo?$AAr?$AAe?$AAd?$AA?5?$AAb?$AAe?$AAc?$AAa?$AAu?$AAs?$AAe?$AA?5?$AAn?$AAa?$AAm?$AAe?$AA?5?$AAm?$AAa?$AAt@ ; `string'
PUBLIC	??_C@_1HK@HPLKHPEG@?$AAf?$AAi?$AAl?$AAe?$AA?5?$AA?$CF?$AAs?$AA?5?$AAi?$AAg?$AAn?$AAo?$AAr?$AAe?$AAd?$AA?5?$AAb?$AAe?$AAc?$AAa?$AAu?$AAs?$AAe?$AA?5?$AAn?$AAa?$AAm?$AAe?$AA?5?$AAm?$AAa?$AAt@ ; `string'
PUBLIC	??_C@_1GO@HMJKNIHE@?$AAf?$AAi?$AAl?$AAe?$AA?5?$AA?$CF?$AAs?$AA?5?$AAi?$AAg?$AAn?$AAo?$AAr?$AAe?$AAd?$AA?5?$AAb?$AAe?$AAc?$AAa?$AAu?$AAs?$AAe?$AA?5?$AAp?$AAa?$AAt?$AAh?$AA?5?$AAs?$AAo?$AAm@ ; `string'
PUBLIC	??_C@_1EC@HCOGJIDE@?$AAp?$AAa?$AAt?$AAt?$AAe?$AAr?$AAn?$AA?5?$AA?$CF?$AAs?$AA?5?$AAd?$AAo?$AAe?$AAs?$AAn?$AA?8?$AAt?$AA?5?$AAm?$AAa?$AAt?$AAc?$AAh?$AA?5?$AAp?$AAa?$AAt?$AAh?$AA?5?$AA?$CF?$AAs@ ; `string'
PUBLIC	??_C@_1HI@GOIPAOCN@?$AAf?$AAi?$AAl?$AAe?$AA?5?$AA?$CF?$AAs?$AA?5?$AAi?$AAg?$AAn?$AAo?$AAr?$AAe?$AAd?$AA?5?$AAb?$AAe?$AAc?$AAa?$AAu?$AAs?$AAe?$AA?5?$AAn?$AAa?$AAm?$AAe?$AA?5?$AAm?$AAa?$AAt@ ; `string'
PUBLIC	??_C@_1EO@ILIPEHCH@?$AAp?$AAa?$AAt?$AAt?$AAe?$AAr?$AAn?$AA?5?$AA?$CF?$AAs?$AA?5?$AAd?$AAo?$AAe?$AAs?$AAn?$AA?8?$AAt?$AA?5?$AAm?$AAa?$AAt?$AAc?$AAh?$AA?5?$AAs?$AAl?$AAa?$AAs?$AAh?$AA?5?$AAf@ ; `string'
PUBLIC	??_C@_1GM@BIBIOOOE@?$AAf?$AAi?$AAl?$AAe?$AA?5?$AA?$CF?$AAs?$AA?5?$AAi?$AAg?$AAn?$AAo?$AAr?$AAe?$AAd?$AA?5?$AAb?$AAe?$AAc?$AAa?$AAu?$AAs?$AAe?$AA?5?$AAn?$AAa?$AAm?$AAe?$AA?5?$AAm?$AAa?$AAt@ ; `string'
PUBLIC	??_C@_1EC@LODMBMK@?$AAp?$AAa?$AAt?$AAt?$AAe?$AAr?$AAn?$AA?5?$AA?$CF?$AAs?$AA?5?$AAd?$AAo?$AAe?$AAs?$AAn?$AA?8?$AAt?$AA?5?$AAm?$AAa?$AAt?$AAc?$AAh?$AA?5?$AAf?$AAi?$AAl?$AAe?$AA?5?$AA?$CF?$AAs@ ; `string'
PUBLIC	??_C@_1FA@FKMHGGJN@?$AAF?$AAi?$AAl?$AAe?$AA?5?$AA?$CF?$AAs?$AA?5?$AAi?$AAg?$AAn?$AAo?$AAr?$AAe?$AAd?$AA?5?$AAb?$AAe?$AAc?$AAa?$AAu?$AAs?$AAe?$AAd?$AA?5?$AAi?$AAt?$AA?8?$AAs?$AA?5?$AAa?$AA?5@ ; `string'
PUBLIC	??_C@_1EK@PPMMLJEH@?$AA?$CF?$AAs?$AA?5?$AAi?$AAg?$AAn?$AAo?$AAr?$AAe?$AAd?$AA?5?$AAb?$AAe?$AAc?$AAa?$AAu?$AAs?$AAe?$AA?5?$AAi?$AAt?$AA?8?$AAs?$AA?5?$AAa?$AA?5?$AAn?$AAa?$AAm?$AAe?$AAd?$AA?5@ ; `string'
PUBLIC	??_C@_1DE@DCMKCCII@?$AAp?$AAa?$AAt?$AAh?$AA_?$AAs?$AAt?$AAa?$AAr?$AAt?$AA?5?$AA?$CF?$AAs?$AA?5?$AAf?$AAi?$AAl?$AAe?$AAn?$AAa?$AAm?$AAe?$AA?5?$AA?$CF?$AAs?$AA?$AA@ ; `string'
PUBLIC	??_C@_1GE@FDADGLDO@?$AAf?$AAi?$AAl?$AAe?$AA?5?$AA?$CF?$AAs?$AA?5?$AAi?$AAg?$AAn?$AAo?$AAr?$AAe?$AAd?$AA?5?$AAb?$AAe?$AAc?$AAa?$AAu?$AAs?$AAe?$AA?5?$AAn?$AAa?$AAm?$AAe?$AA?5?$AAm?$AAa?$AAt@ ; `string'
PUBLIC	??_C@_17FOKMIMKD@?$AA?$CF?$AAs?$AA?1?$AA?$AA@	; `string'
PUBLIC	??_C@_1BO@IOBLBPP@?$AA?$CF?$AAs?$AA?5?$AAn?$AAo?$AAt?$AA?5?$AAi?$AAg?$AAn?$AAo?$AAr?$AAe?$AAd?$AA?$AA@ ; `string'
PUBLIC	?evil_hardcoded_ignore_files@@3PAPB_WA		; evil_hardcoded_ignore_files
PUBLIC	?root_ignores@@3PAUignores@@A			; root_ignores
PUBLIC	?ignore_pattern_files@@3PAPB_WA			; ignore_pattern_files
EXTRN	__imp__fclose:PROC
EXTRN	__imp__PathMatchSpecW@8:PROC
EXTRN	__imp__fseek:PROC
EXTRN	__imp__fwscanf:PROC
EXTRN	__imp__fread:PROC
EXTRN	__imp__wcsstr:PROC
EXTRN	__imp__wcsrchr:PROC
EXTRN	__imp___wfopen:PROC
EXTRN	__imp__isspace:PROC
?root_ignores@@3PAUignores@@A DD 01H DUP (?)		; root_ignores
_BSS	ENDS
;	COMDAT ??_C@_1BO@IOBLBPP@?$AA?$CF?$AAs?$AA?5?$AAn?$AAo?$AAt?$AA?5?$AAi?$AAg?$AAn?$AAo?$AAr?$AAe?$AAd?$AA?$AA@
CONST	SEGMENT
??_C@_1BO@IOBLBPP@?$AA?$CF?$AAs?$AA?5?$AAn?$AAo?$AAt?$AA?5?$AAi?$AAg?$AAn?$AAo?$AAr?$AAe?$AAd?$AA?$AA@ DB '%'
	DB	00H, 's', 00H, ' ', 00H, 'n', 00H, 'o', 00H, 't', 00H, ' ', 00H
	DB	'i', 00H, 'g', 00H, 'n', 00H, 'o', 00H, 'r', 00H, 'e', 00H, 'd'
	DB	00H, 00H, 00H				; `string'
CONST	ENDS
;	COMDAT ??_C@_17FOKMIMKD@?$AA?$CF?$AAs?$AA?1?$AA?$AA@
CONST	SEGMENT
??_C@_17FOKMIMKD@?$AA?$CF?$AAs?$AA?1?$AA?$AA@ DB '%', 00H, 's', 00H, '/', 00H
	DB	00H, 00H					; `string'
CONST	ENDS
;	COMDAT ??_C@_1GE@FDADGLDO@?$AAf?$AAi?$AAl?$AAe?$AA?5?$AA?$CF?$AAs?$AA?5?$AAi?$AAg?$AAn?$AAo?$AAr?$AAe?$AAd?$AA?5?$AAb?$AAe?$AAc?$AAa?$AAu?$AAs?$AAe?$AA?5?$AAn?$AAa?$AAm?$AAe?$AA?5?$AAm?$AAa?$AAt@
CONST	SEGMENT
??_C@_1GE@FDADGLDO@?$AAf?$AAi?$AAl?$AAe?$AA?5?$AA?$CF?$AAs?$AA?5?$AAi?$AAg?$AAn?$AAo?$AAr?$AAe?$AAd?$AA?5?$AAb?$AAe?$AAc?$AAa?$AAu?$AAs?$AAe?$AA?5?$AAn?$AAa?$AAm?$AAe?$AA?5?$AAm?$AAa?$AAt@ DB 'f'
	DB	00H, 'i', 00H, 'l', 00H, 'e', 00H, ' ', 00H, '%', 00H, 's', 00H
	DB	' ', 00H, 'i', 00H, 'g', 00H, 'n', 00H, 'o', 00H, 'r', 00H, 'e'
	DB	00H, 'd', 00H, ' ', 00H, 'b', 00H, 'e', 00H, 'c', 00H, 'a', 00H
	DB	'u', 00H, 's', 00H, 'e', 00H, ' ', 00H, 'n', 00H, 'a', 00H, 'm'
	DB	00H, 'e', 00H, ' ', 00H, 'm', 00H, 'a', 00H, 't', 00H, 'c', 00H
	DB	'h', 00H, 'e', 00H, 's', 00H, ' ', 00H, 'e', 00H, 'x', 00H, 't'
	DB	00H, 'e', 00H, 'n', 00H, 's', 00H, 'i', 00H, 'o', 00H, 'n', 00H
	DB	' ', 00H, '%', 00H, 's', 00H, 00H, 00H	; `string'
CONST	ENDS
;	COMDAT ??_C@_1DE@DCMKCCII@?$AAp?$AAa?$AAt?$AAh?$AA_?$AAs?$AAt?$AAa?$AAr?$AAt?$AA?5?$AA?$CF?$AAs?$AA?5?$AAf?$AAi?$AAl?$AAe?$AAn?$AAa?$AAm?$AAe?$AA?5?$AA?$CF?$AAs?$AA?$AA@
CONST	SEGMENT
??_C@_1DE@DCMKCCII@?$AAp?$AAa?$AAt?$AAh?$AA_?$AAs?$AAt?$AAa?$AAr?$AAt?$AA?5?$AA?$CF?$AAs?$AA?5?$AAf?$AAi?$AAl?$AAe?$AAn?$AAa?$AAm?$AAe?$AA?5?$AA?$CF?$AAs?$AA?$AA@ DB 'p'
	DB	00H, 'a', 00H, 't', 00H, 'h', 00H, '_', 00H, 's', 00H, 't', 00H
	DB	'a', 00H, 'r', 00H, 't', 00H, ' ', 00H, '%', 00H, 's', 00H, ' '
	DB	00H, 'f', 00H, 'i', 00H, 'l', 00H, 'e', 00H, 'n', 00H, 'a', 00H
	DB	'm', 00H, 'e', 00H, ' ', 00H, '%', 00H, 's', 00H, 00H, 00H ; `string'
CONST	ENDS
;	COMDAT ??_C@_1EK@PPMMLJEH@?$AA?$CF?$AAs?$AA?5?$AAi?$AAg?$AAn?$AAo?$AAr?$AAe?$AAd?$AA?5?$AAb?$AAe?$AAc?$AAa?$AAu?$AAs?$AAe?$AA?5?$AAi?$AAt?$AA?8?$AAs?$AA?5?$AAa?$AA?5?$AAn?$AAa?$AAm?$AAe?$AAd?$AA?5@
CONST	SEGMENT
??_C@_1EK@PPMMLJEH@?$AA?$CF?$AAs?$AA?5?$AAi?$AAg?$AAn?$AAo?$AAr?$AAe?$AAd?$AA?5?$AAb?$AAe?$AAc?$AAa?$AAu?$AAs?$AAe?$AA?5?$AAi?$AAt?$AA?8?$AAs?$AA?5?$AAa?$AA?5?$AAn?$AAa?$AAm?$AAe?$AAd?$AA?5@ DB '%'
	DB	00H, 's', 00H, ' ', 00H, 'i', 00H, 'g', 00H, 'n', 00H, 'o', 00H
	DB	'r', 00H, 'e', 00H, 'd', 00H, ' ', 00H, 'b', 00H, 'e', 00H, 'c'
	DB	00H, 'a', 00H, 'u', 00H, 's', 00H, 'e', 00H, ' ', 00H, 'i', 00H
	DB	't', 00H, '''', 00H, 's', 00H, ' ', 00H, 'a', 00H, ' ', 00H, 'n'
	DB	00H, 'a', 00H, 'm', 00H, 'e', 00H, 'd', 00H, ' ', 00H, 'p', 00H
	DB	'i', 00H, 'p', 00H, 'e', 00H, 00H, 00H	; `string'
CONST	ENDS
;	COMDAT ??_C@_1FA@FKMHGGJN@?$AAF?$AAi?$AAl?$AAe?$AA?5?$AA?$CF?$AAs?$AA?5?$AAi?$AAg?$AAn?$AAo?$AAr?$AAe?$AAd?$AA?5?$AAb?$AAe?$AAc?$AAa?$AAu?$AAs?$AAe?$AAd?$AA?5?$AAi?$AAt?$AA?8?$AAs?$AA?5?$AAa?$AA?5@
CONST	SEGMENT
??_C@_1FA@FKMHGGJN@?$AAF?$AAi?$AAl?$AAe?$AA?5?$AA?$CF?$AAs?$AA?5?$AAi?$AAg?$AAn?$AAo?$AAr?$AAe?$AAd?$AA?5?$AAb?$AAe?$AAc?$AAa?$AAu?$AAs?$AAe?$AAd?$AA?5?$AAi?$AAt?$AA?8?$AAs?$AA?5?$AAa?$AA?5@ DB 'F'
	DB	00H, 'i', 00H, 'l', 00H, 'e', 00H, ' ', 00H, '%', 00H, 's', 00H
	DB	' ', 00H, 'i', 00H, 'g', 00H, 'n', 00H, 'o', 00H, 'r', 00H, 'e'
	DB	00H, 'd', 00H, ' ', 00H, 'b', 00H, 'e', 00H, 'c', 00H, 'a', 00H
	DB	'u', 00H, 's', 00H, 'e', 00H, 'd', 00H, ' ', 00H, 'i', 00H, 't'
	DB	00H, '''', 00H, 's', 00H, ' ', 00H, 'a', 00H, ' ', 00H, 's', 00H
	DB	'y', 00H, 'm', 00H, 'l', 00H, 'i', 00H, 'n', 00H, 'k', 00H, 00H
	DB	00H						; `string'
CONST	ENDS
;	COMDAT ??_C@_1EC@LODMBMK@?$AAp?$AAa?$AAt?$AAt?$AAe?$AAr?$AAn?$AA?5?$AA?$CF?$AAs?$AA?5?$AAd?$AAo?$AAe?$AAs?$AAn?$AA?8?$AAt?$AA?5?$AAm?$AAa?$AAt?$AAc?$AAh?$AA?5?$AAf?$AAi?$AAl?$AAe?$AA?5?$AA?$CF?$AAs@
CONST	SEGMENT
??_C@_1EC@LODMBMK@?$AAp?$AAa?$AAt?$AAt?$AAe?$AAr?$AAn?$AA?5?$AA?$CF?$AAs?$AA?5?$AAd?$AAo?$AAe?$AAs?$AAn?$AA?8?$AAt?$AA?5?$AAm?$AAa?$AAt?$AAc?$AAh?$AA?5?$AAf?$AAi?$AAl?$AAe?$AA?5?$AA?$CF?$AAs@ DB 'p'
	DB	00H, 'a', 00H, 't', 00H, 't', 00H, 'e', 00H, 'r', 00H, 'n', 00H
	DB	' ', 00H, '%', 00H, 's', 00H, ' ', 00H, 'd', 00H, 'o', 00H, 'e'
	DB	00H, 's', 00H, 'n', 00H, '''', 00H, 't', 00H, ' ', 00H, 'm', 00H
	DB	'a', 00H, 't', 00H, 'c', 00H, 'h', 00H, ' ', 00H, 'f', 00H, 'i'
	DB	00H, 'l', 00H, 'e', 00H, ' ', 00H, '%', 00H, 's', 00H, 00H, 00H ; `string'
CONST	ENDS
;	COMDAT ??_C@_1GM@BIBIOOOE@?$AAf?$AAi?$AAl?$AAe?$AA?5?$AA?$CF?$AAs?$AA?5?$AAi?$AAg?$AAn?$AAo?$AAr?$AAe?$AAd?$AA?5?$AAb?$AAe?$AAc?$AAa?$AAu?$AAs?$AAe?$AA?5?$AAn?$AAa?$AAm?$AAe?$AA?5?$AAm?$AAa?$AAt@
CONST	SEGMENT
??_C@_1GM@BIBIOOOE@?$AAf?$AAi?$AAl?$AAe?$AA?5?$AA?$CF?$AAs?$AA?5?$AAi?$AAg?$AAn?$AAo?$AAr?$AAe?$AAd?$AA?5?$AAb?$AAe?$AAc?$AAa?$AAu?$AAs?$AAe?$AA?5?$AAn?$AAa?$AAm?$AAe?$AA?5?$AAm?$AAa?$AAt@ DB 'f'
	DB	00H, 'i', 00H, 'l', 00H, 'e', 00H, ' ', 00H, '%', 00H, 's', 00H
	DB	' ', 00H, 'i', 00H, 'g', 00H, 'n', 00H, 'o', 00H, 'r', 00H, 'e'
	DB	00H, 'd', 00H, ' ', 00H, 'b', 00H, 'e', 00H, 'c', 00H, 'a', 00H
	DB	'u', 00H, 's', 00H, 'e', 00H, ' ', 00H, 'n', 00H, 'a', 00H, 'm'
	DB	00H, 'e', 00H, ' ', 00H, 'm', 00H, 'a', 00H, 't', 00H, 'c', 00H
	DB	'h', 00H, 'e', 00H, 's', 00H, ' ', 00H, 'r', 00H, 'e', 00H, 'g'
	DB	00H, 'e', 00H, 'x', 00H, ' ', 00H, 'p', 00H, 'a', 00H, 't', 00H
	DB	't', 00H, 'e', 00H, 'r', 00H, 'n', 00H, ' ', 00H, '%', 00H, 's'
	DB	00H, 00H, 00H				; `string'
CONST	ENDS
;	COMDAT ??_C@_1EO@ILIPEHCH@?$AAp?$AAa?$AAt?$AAt?$AAe?$AAr?$AAn?$AA?5?$AA?$CF?$AAs?$AA?5?$AAd?$AAo?$AAe?$AAs?$AAn?$AA?8?$AAt?$AA?5?$AAm?$AAa?$AAt?$AAc?$AAh?$AA?5?$AAs?$AAl?$AAa?$AAs?$AAh?$AA?5?$AAf@
CONST	SEGMENT
??_C@_1EO@ILIPEHCH@?$AAp?$AAa?$AAt?$AAt?$AAe?$AAr?$AAn?$AA?5?$AA?$CF?$AAs?$AA?5?$AAd?$AAo?$AAe?$AAs?$AAn?$AA?8?$AAt?$AA?5?$AAm?$AAa?$AAt?$AAc?$AAh?$AA?5?$AAs?$AAl?$AAa?$AAs?$AAh?$AA?5?$AAf@ DB 'p'
	DB	00H, 'a', 00H, 't', 00H, 't', 00H, 'e', 00H, 'r', 00H, 'n', 00H
	DB	' ', 00H, '%', 00H, 's', 00H, ' ', 00H, 'd', 00H, 'o', 00H, 'e'
	DB	00H, 's', 00H, 'n', 00H, '''', 00H, 't', 00H, ' ', 00H, 'm', 00H
	DB	'a', 00H, 't', 00H, 'c', 00H, 'h', 00H, ' ', 00H, 's', 00H, 'l'
	DB	00H, 'a', 00H, 's', 00H, 'h', 00H, ' ', 00H, 'f', 00H, 'i', 00H
	DB	'l', 00H, 'e', 00H, ' ', 00H, '%', 00H, 's', 00H, 00H, 00H ; `string'
CONST	ENDS
;	COMDAT ??_C@_1HI@GOIPAOCN@?$AAf?$AAi?$AAl?$AAe?$AA?5?$AA?$CF?$AAs?$AA?5?$AAi?$AAg?$AAn?$AAo?$AAr?$AAe?$AAd?$AA?5?$AAb?$AAe?$AAc?$AAa?$AAu?$AAs?$AAe?$AA?5?$AAn?$AAa?$AAm?$AAe?$AA?5?$AAm?$AAa?$AAt@
CONST	SEGMENT
??_C@_1HI@GOIPAOCN@?$AAf?$AAi?$AAl?$AAe?$AA?5?$AA?$CF?$AAs?$AA?5?$AAi?$AAg?$AAn?$AAo?$AAr?$AAe?$AAd?$AA?5?$AAb?$AAe?$AAc?$AAa?$AAu?$AAs?$AAe?$AA?5?$AAn?$AAa?$AAm?$AAe?$AA?5?$AAm?$AAa?$AAt@ DB 'f'
	DB	00H, 'i', 00H, 'l', 00H, 'e', 00H, ' ', 00H, '%', 00H, 's', 00H
	DB	' ', 00H, 'i', 00H, 'g', 00H, 'n', 00H, 'o', 00H, 'r', 00H, 'e'
	DB	00H, 'd', 00H, ' ', 00H, 'b', 00H, 'e', 00H, 'c', 00H, 'a', 00H
	DB	'u', 00H, 's', 00H, 'e', 00H, ' ', 00H, 'n', 00H, 'a', 00H, 'm'
	DB	00H, 'e', 00H, ' ', 00H, 'm', 00H, 'a', 00H, 't', 00H, 'c', 00H
	DB	'h', 00H, 'e', 00H, 's', 00H, ' ', 00H, 's', 00H, 'l', 00H, 'a'
	DB	00H, 's', 00H, 'h', 00H, ' ', 00H, 'r', 00H, 'e', 00H, 'g', 00H
	DB	'e', 00H, 'x', 00H, ' ', 00H, 'p', 00H, 'a', 00H, 't', 00H, 't'
	DB	00H, 'e', 00H, 'r', 00H, 'n', 00H, ' ', 00H, '%', 00H, 's', 00H
	DB	00H, 00H					; `string'
CONST	ENDS
;	COMDAT ??_C@_1EC@HCOGJIDE@?$AAp?$AAa?$AAt?$AAt?$AAe?$AAr?$AAn?$AA?5?$AA?$CF?$AAs?$AA?5?$AAd?$AAo?$AAe?$AAs?$AAn?$AA?8?$AAt?$AA?5?$AAm?$AAa?$AAt?$AAc?$AAh?$AA?5?$AAp?$AAa?$AAt?$AAh?$AA?5?$AA?$CF?$AAs@
CONST	SEGMENT
??_C@_1EC@HCOGJIDE@?$AAp?$AAa?$AAt?$AAt?$AAe?$AAr?$AAn?$AA?5?$AA?$CF?$AAs?$AA?5?$AAd?$AAo?$AAe?$AAs?$AAn?$AA?8?$AAt?$AA?5?$AAm?$AAa?$AAt?$AAc?$AAh?$AA?5?$AAp?$AAa?$AAt?$AAh?$AA?5?$AA?$CF?$AAs@ DB 'p'
	DB	00H, 'a', 00H, 't', 00H, 't', 00H, 'e', 00H, 'r', 00H, 'n', 00H
	DB	' ', 00H, '%', 00H, 's', 00H, ' ', 00H, 'd', 00H, 'o', 00H, 'e'
	DB	00H, 's', 00H, 'n', 00H, '''', 00H, 't', 00H, ' ', 00H, 'm', 00H
	DB	'a', 00H, 't', 00H, 'c', 00H, 'h', 00H, ' ', 00H, 'p', 00H, 'a'
	DB	00H, 't', 00H, 'h', 00H, ' ', 00H, '%', 00H, 's', 00H, 00H, 00H ; `string'
CONST	ENDS
;	COMDAT ??_C@_1GO@HMJKNIHE@?$AAf?$AAi?$AAl?$AAe?$AA?5?$AA?$CF?$AAs?$AA?5?$AAi?$AAg?$AAn?$AAo?$AAr?$AAe?$AAd?$AA?5?$AAb?$AAe?$AAc?$AAa?$AAu?$AAs?$AAe?$AA?5?$AAp?$AAa?$AAt?$AAh?$AA?5?$AAs?$AAo?$AAm@
CONST	SEGMENT
??_C@_1GO@HMJKNIHE@?$AAf?$AAi?$AAl?$AAe?$AA?5?$AA?$CF?$AAs?$AA?5?$AAi?$AAg?$AAn?$AAo?$AAr?$AAe?$AAd?$AA?5?$AAb?$AAe?$AAc?$AAa?$AAu?$AAs?$AAe?$AA?5?$AAp?$AAa?$AAt?$AAh?$AA?5?$AAs?$AAo?$AAm@ DB 'f'
	DB	00H, 'i', 00H, 'l', 00H, 'e', 00H, ' ', 00H, '%', 00H, 's', 00H
	DB	' ', 00H, 'i', 00H, 'g', 00H, 'n', 00H, 'o', 00H, 'r', 00H, 'e'
	DB	00H, 'd', 00H, ' ', 00H, 'b', 00H, 'e', 00H, 'c', 00H, 'a', 00H
	DB	'u', 00H, 's', 00H, 'e', 00H, ' ', 00H, 'p', 00H, 'a', 00H, 't'
	DB	00H, 'h', 00H, ' ', 00H, 's', 00H, 'o', 00H, 'm', 00H, 'e', 00H
	DB	'w', 00H, 'h', 00H, 'e', 00H, 'r', 00H, 'e', 00H, ' ', 00H, 'm'
	DB	00H, 'a', 00H, 't', 00H, 'c', 00H, 'h', 00H, 'e', 00H, 's', 00H
	DB	' ', 00H, 'n', 00H, 'a', 00H, 'm', 00H, 'e', 00H, ' ', 00H, '%'
	DB	00H, 's', 00H, 00H, 00H			; `string'
CONST	ENDS
;	COMDAT ??_C@_1HK@HPLKHPEG@?$AAf?$AAi?$AAl?$AAe?$AA?5?$AA?$CF?$AAs?$AA?5?$AAi?$AAg?$AAn?$AAo?$AAr?$AAe?$AAd?$AA?5?$AAb?$AAe?$AAc?$AAa?$AAu?$AAs?$AAe?$AA?5?$AAn?$AAa?$AAm?$AAe?$AA?5?$AAm?$AAa?$AAt@
CONST	SEGMENT
??_C@_1HK@HPLKHPEG@?$AAf?$AAi?$AAl?$AAe?$AA?5?$AA?$CF?$AAs?$AA?5?$AAi?$AAg?$AAn?$AAo?$AAr?$AAe?$AAd?$AA?5?$AAb?$AAe?$AAc?$AAa?$AAu?$AAs?$AAe?$AA?5?$AAn?$AAa?$AAm?$AAe?$AA?5?$AAm?$AAa?$AAt@ DB 'f'
	DB	00H, 'i', 00H, 'l', 00H, 'e', 00H, ' ', 00H, '%', 00H, 's', 00H
	DB	' ', 00H, 'i', 00H, 'g', 00H, 'n', 00H, 'o', 00H, 'r', 00H, 'e'
	DB	00H, 'd', 00H, ' ', 00H, 'b', 00H, 'e', 00H, 'c', 00H, 'a', 00H
	DB	'u', 00H, 's', 00H, 'e', 00H, ' ', 00H, 'n', 00H, 'a', 00H, 'm'
	DB	00H, 'e', 00H, ' ', 00H, 'm', 00H, 'a', 00H, 't', 00H, 'c', 00H
	DB	'h', 00H, 'e', 00H, 's', 00H, ' ', 00H, 's', 00H, 'l', 00H, 'a'
	DB	00H, 's', 00H, 'h', 00H, ' ', 00H, 's', 00H, 't', 00H, 'a', 00H
	DB	't', 00H, 'i', 00H, 'c', 00H, ' ', 00H, 'p', 00H, 'a', 00H, 't'
	DB	00H, 't', 00H, 'e', 00H, 'r', 00H, 'n', 00H, ' ', 00H, '%', 00H
	DB	's', 00H, 00H, 00H				; `string'
CONST	ENDS
;	COMDAT ??_C@_1GO@MFIIIHKO@?$AAf?$AAi?$AAl?$AAe?$AA?5?$AA?$CF?$AAs?$AA?5?$AAi?$AAg?$AAn?$AAo?$AAr?$AAe?$AAd?$AA?5?$AAb?$AAe?$AAc?$AAa?$AAu?$AAs?$AAe?$AA?5?$AAn?$AAa?$AAm?$AAe?$AA?5?$AAm?$AAa?$AAt@
CONST	SEGMENT
??_C@_1GO@MFIIIHKO@?$AAf?$AAi?$AAl?$AAe?$AA?5?$AA?$CF?$AAs?$AA?5?$AAi?$AAg?$AAn?$AAo?$AAr?$AAe?$AAd?$AA?5?$AAb?$AAe?$AAc?$AAa?$AAu?$AAs?$AAe?$AA?5?$AAn?$AAa?$AAm?$AAe?$AA?5?$AAm?$AAa?$AAt@ DB 'f'
	DB	00H, 'i', 00H, 'l', 00H, 'e', 00H, ' ', 00H, '%', 00H, 's', 00H
	DB	' ', 00H, 'i', 00H, 'g', 00H, 'n', 00H, 'o', 00H, 'r', 00H, 'e'
	DB	00H, 'd', 00H, ' ', 00H, 'b', 00H, 'e', 00H, 'c', 00H, 'a', 00H
	DB	'u', 00H, 's', 00H, 'e', 00H, ' ', 00H, 'n', 00H, 'a', 00H, 'm'
	DB	00H, 'e', 00H, ' ', 00H, 'm', 00H, 'a', 00H, 't', 00H, 'c', 00H
	DB	'h', 00H, 'e', 00H, 's', 00H, ' ', 00H, 's', 00H, 't', 00H, 'a'
	DB	00H, 't', 00H, 'i', 00H, 'c', 00H, ' ', 00H, 'p', 00H, 'a', 00H
	DB	't', 00H, 't', 00H, 'e', 00H, 'r', 00H, 'n', 00H, ' ', 00H, '%'
	DB	00H, 's', 00H, 00H, 00H			; `string'
CONST	ENDS
;	COMDAT ??_C@_1BE@BLLLEGOK@?$AAe?$AAn?$AAt?$AAr?$AAy?$AA?3?$AA?5?$AA?$CF?$AAs?$AA?$AA@
CONST	SEGMENT
??_C@_1BE@BLLLEGOK@?$AAe?$AAn?$AAt?$AAr?$AAy?$AA?3?$AA?5?$AA?$CF?$AAs?$AA?$AA@ DB 'e'
	DB	00H, 'n', 00H, 't', 00H, 'r', 00H, 'y', 00H, ':', 00H, ' ', 00H
	DB	'%', 00H, 's', 00H, 00H, 00H			; `string'
CONST	ENDS
;	COMDAT ??_C@_1EK@CEJOLOEB@?$AAk?$AAe?$AAy?$AA?5?$AAi?$AAs?$AA?5?$AA?$CF?$AAs?$AA?0?$AA?5?$AAn?$AAo?$AAt?$AA?5?$AA?$CF?$AAs?$AA?4?$AA?5?$AAs?$AAk?$AAi?$AAp?$AAp?$AAi?$AAn?$AAg?$AA?5?$AA?$CF?$AAu?$AA?5?$AAb@
CONST	SEGMENT
??_C@_1EK@CEJOLOEB@?$AAk?$AAe?$AAy?$AA?5?$AAi?$AAs?$AA?5?$AA?$CF?$AAs?$AA?0?$AA?5?$AAn?$AAo?$AAt?$AA?5?$AA?$CF?$AAs?$AA?4?$AA?5?$AAs?$AAk?$AAi?$AAp?$AAp?$AAi?$AAn?$AAg?$AA?5?$AA?$CF?$AAu?$AA?5?$AAb@ DB 'k'
	DB	00H, 'e', 00H, 'y', 00H, ' ', 00H, 'i', 00H, 's', 00H, ' ', 00H
	DB	'%', 00H, 's', 00H, ',', 00H, ' ', 00H, 'n', 00H, 'o', 00H, 't'
	DB	00H, ' ', 00H, '%', 00H, 's', 00H, '.', 00H, ' ', 00H, 's', 00H
	DB	'k', 00H, 'i', 00H, 'p', 00H, 'p', 00H, 'i', 00H, 'n', 00H, 'g'
	DB	00H, ' ', 00H, '%', 00H, 'u', 00H, ' ', 00H, 'b', 00H, 'y', 00H
	DB	't', 00H, 'e', 00H, 's', 00H, 00H, 00H	; `string'
CONST	ENDS
;	COMDAT ??_C@_1BG@MHJCCDCA@?$AAs?$AAv?$AAn?$AA?3?$AAi?$AAg?$AAn?$AAo?$AAr?$AAe?$AA?$AA@
CONST	SEGMENT
??_C@_1BG@MHJCCDCA@?$AAs?$AAv?$AAn?$AA?3?$AAi?$AAg?$AAn?$AAo?$AAr?$AAe?$AA?$AA@ DB 's'
	DB	00H, 'v', 00H, 'n', 00H, ':', 00H, 'i', 00H, 'g', 00H, 'n', 00H
	DB	'o', 00H, 'r', 00H, 'e', 00H, 00H, 00H	; `string'
CONST	ENDS
;	COMDAT ??_C@_1JA@PPOCPNJK@?$AAU?$AAn?$AAa?$AAb?$AAl?$AAe?$AA?5?$AAt?$AAo?$AA?5?$AAp?$AAa?$AAr?$AAs?$AAe?$AA?5?$AAs?$AAv?$AAn?$AAi?$AAg?$AAn?$AAo?$AAr?$AAe?$AA?5?$AAf?$AAi?$AAl?$AAe?$AA?5?$AA?$CF@
CONST	SEGMENT
??_C@_1JA@PPOCPNJK@?$AAU?$AAn?$AAa?$AAb?$AAl?$AAe?$AA?5?$AAt?$AAo?$AA?5?$AAp?$AAa?$AAr?$AAs?$AAe?$AA?5?$AAs?$AAv?$AAn?$AAi?$AAg?$AAn?$AAo?$AAr?$AAe?$AA?5?$AAf?$AAi?$AAl?$AAe?$AA?5?$AA?$CF@ DB 'U'
	DB	00H, 'n', 00H, 'a', 00H, 'b', 00H, 'l', 00H, 'e', 00H, ' ', 00H
	DB	't', 00H, 'o', 00H, ' ', 00H, 'p', 00H, 'a', 00H, 'r', 00H, 's'
	DB	00H, 'e', 00H, ' ', 00H, 's', 00H, 'v', 00H, 'n', 00H, 'i', 00H
	DB	'g', 00H, 'n', 00H, 'o', 00H, 'r', 00H, 'e', 00H, ' ', 00H, 'f'
	DB	00H, 'i', 00H, 'l', 00H, 'e', 00H, ' ', 00H, '%', 00H, 's', 00H
	DB	':', 00H, ' ', 00H, 'f', 00H, 's', 00H, 'c', 00H, 'a', 00H, 'n'
	DB	00H, 'f', 00H, '(', 00H, ')', 00H, ' ', 00H, 'g', 00H, 'o', 00H
	DB	't', 00H, ' ', 00H, '%', 00H, 'i', 00H, ' ', 00H, 'm', 00H, 'a'
	DB	00H, 't', 00H, 'c', 00H, 'h', 00H, 'e', 00H, 's', 00H, ',', 00H
	DB	' ', 00H, 'e', 00H, 'x', 00H, 'p', 00H, 'e', 00H, 'c', 00H, 't'
	DB	00H, 'e', 00H, 'd', 00H, ' ', 00H, '1', 00H, '.', 00H, 00H, 00H ; `string'
CONST	ENDS
;	COMDAT ??_C@_1BA@IALJGMIP@?$AA?6?$AAV?$AA?5?$AA?$CF?$AAz?$AAu?$AA?6?$AA?$AA@
CONST	SEGMENT
??_C@_1BA@IALJGMIP@?$AA?6?$AAV?$AA?5?$AA?$CF?$AAz?$AAu?$AA?6?$AA?$AA@ DB 0aH
	DB	00H, 'V', 00H, ' ', 00H, '%', 00H, 'z', 00H, 'u', 00H, 0aH, 00H
	DB	00H, 00H					; `string'
CONST	ENDS
;	COMDAT ??_C@_1O@JIECKIAG@?$AAK?$AA?5?$AA?$CF?$AAz?$AAu?$AA?6?$AA?$AA@
CONST	SEGMENT
??_C@_1O@JIECKIAG@?$AAK?$AA?5?$AA?$CF?$AAz?$AAu?$AA?6?$AA?$AA@ DB 'K', 00H
	DB	' ', 00H, '%', 00H, 'z', 00H, 'u', 00H, 0aH, 00H, 00H, 00H ; `string'
CONST	ENDS
;	COMDAT ??_C@_1DI@GLDLEOPM@?$AAS?$AAk?$AAi?$AAp?$AAp?$AAi?$AAn?$AAg?$AA?5?$AAs?$AAv?$AAn?$AA?5?$AAi?$AAg?$AAn?$AAo?$AAr?$AAe?$AA?5?$AAf?$AAi?$AAl?$AAe?$AA?5?$AA?$CF?$AAs?$AA?$AA@
CONST	SEGMENT
??_C@_1DI@GLDLEOPM@?$AAS?$AAk?$AAi?$AAp?$AAp?$AAi?$AAn?$AAg?$AA?5?$AAs?$AAv?$AAn?$AA?5?$AAi?$AAg?$AAn?$AAo?$AAr?$AAe?$AA?5?$AAf?$AAi?$AAl?$AAe?$AA?5?$AA?$CF?$AAs?$AA?$AA@ DB 'S'
	DB	00H, 'k', 00H, 'i', 00H, 'p', 00H, 'p', 00H, 'i', 00H, 'n', 00H
	DB	'g', 00H, ' ', 00H, 's', 00H, 'v', 00H, 'n', 00H, ' ', 00H, 'i'
	DB	00H, 'g', 00H, 'n', 00H, 'o', 00H, 'r', 00H, 'e', 00H, ' ', 00H
	DB	'f', 00H, 'i', 00H, 'l', 00H, 'e', 00H, ' ', 00H, '%', 00H, 's'
	DB	00H, 00H, 00H				; `string'
CONST	ENDS
;	COMDAT ??_C@_1BM@EPJFBLOO@?$AAd?$AAi?$AAr?$AA?9?$AAp?$AAr?$AAo?$AAp?$AA?9?$AAb?$AAa?$AAs?$AAe?$AA?$AA@
CONST	SEGMENT
??_C@_1BM@EPJFBLOO@?$AAd?$AAi?$AAr?$AA?9?$AAp?$AAr?$AAo?$AAp?$AA?9?$AAb?$AAa?$AAs?$AAe?$AA?$AA@ DB 'd'
	DB	00H, 'i', 00H, 'r', 00H, '-', 00H, 'p', 00H, 'r', 00H, 'o', 00H
	DB	'p', 00H, '-', 00H, 'b', 00H, 'a', 00H, 's', 00H, 'e', 00H, 00H
	DB	00H						; `string'
CONST	ENDS
;	COMDAT ??_C@_1DA@KDLFMBOA@?$AAL?$AAo?$AAa?$AAd?$AAi?$AAn?$AAg?$AA?5?$AAi?$AAg?$AAn?$AAo?$AAr?$AAe?$AA?5?$AAf?$AAi?$AAl?$AAe?$AA?5?$AA?$CF?$AAs?$AA?4?$AA?$AA@
CONST	SEGMENT
??_C@_1DA@KDLFMBOA@?$AAL?$AAo?$AAa?$AAd?$AAi?$AAn?$AAg?$AA?5?$AAi?$AAg?$AAn?$AAo?$AAr?$AAe?$AA?5?$AAf?$AAi?$AAl?$AAe?$AA?5?$AA?$CF?$AAs?$AA?4?$AA?$AA@ DB 'L'
	DB	00H, 'o', 00H, 'a', 00H, 'd', 00H, 'i', 00H, 'n', 00H, 'g', 00H
	DB	' ', 00H, 'i', 00H, 'g', 00H, 'n', 00H, 'o', 00H, 'r', 00H, 'e'
	DB	00H, ' ', 00H, 'f', 00H, 'i', 00H, 'l', 00H, 'e', 00H, ' ', 00H
	DB	'%', 00H, 's', 00H, '.', 00H, 00H, 00H	; `string'
CONST	ENDS
;	COMDAT ??_C@_1EM@MILJMGI@?$AAS?$AAk?$AAi?$AAp?$AAp?$AAi?$AAn?$AAg?$AA?5?$AAi?$AAg?$AAn?$AAo?$AAr?$AAe?$AA?5?$AAf?$AAi?$AAl?$AAe?$AA?5?$AA?$CF?$AAs?$AA?3?$AA?5?$AAn?$AAo?$AAt?$AA?5?$AAr?$AAe?$AAa@
CONST	SEGMENT
??_C@_1EM@MILJMGI@?$AAS?$AAk?$AAi?$AAp?$AAp?$AAi?$AAn?$AAg?$AA?5?$AAi?$AAg?$AAn?$AAo?$AAr?$AAe?$AA?5?$AAf?$AAi?$AAl?$AAe?$AA?5?$AA?$CF?$AAs?$AA?3?$AA?5?$AAn?$AAo?$AAt?$AA?5?$AAr?$AAe?$AAa@ DB 'S'
	DB	00H, 'k', 00H, 'i', 00H, 'p', 00H, 'p', 00H, 'i', 00H, 'n', 00H
	DB	'g', 00H, ' ', 00H, 'i', 00H, 'g', 00H, 'n', 00H, 'o', 00H, 'r'
	DB	00H, 'e', 00H, ' ', 00H, 'f', 00H, 'i', 00H, 'l', 00H, 'e', 00H
	DB	' ', 00H, '%', 00H, 's', 00H, ':', 00H, ' ', 00H, 'n', 00H, 'o'
	DB	00H, 't', 00H, ' ', 00H, 'r', 00H, 'e', 00H, 'a', 00H, 'd', 00H
	DB	'a', 00H, 'b', 00H, 'l', 00H, 'e', 00H, 00H, 00H ; `string'
CONST	ENDS
;	COMDAT ??_C@_13BPINEIPE@?$AAr?$AA?$AA@
CONST	SEGMENT
??_C@_13BPINEIPE@?$AAr?$AA?$AA@ DB 'r', 00H, 00H, 00H	; `string'
CONST	ENDS
;	COMDAT ??_C@_1DM@OPEHFOEM@?$AAa?$AAd?$AAd?$AAe?$AAd?$AA?5?$AAi?$AAg?$AAn?$AAo?$AAr?$AAe?$AA?5?$AAp?$AAa?$AAt?$AAt?$AAe?$AAr?$AAn?$AA?5?$AA?$CF?$AAs?$AA?5?$AAt?$AAo?$AA?5?$AA?$CF?$AAs?$AA?$AA@
CONST	SEGMENT
??_C@_1DM@OPEHFOEM@?$AAa?$AAd?$AAd?$AAe?$AAd?$AA?5?$AAi?$AAg?$AAn?$AAo?$AAr?$AAe?$AA?5?$AAp?$AAa?$AAt?$AAt?$AAe?$AAr?$AAn?$AA?5?$AA?$CF?$AAs?$AA?5?$AAt?$AAo?$AA?5?$AA?$CF?$AAs?$AA?$AA@ DB 'a'
	DB	00H, 'd', 00H, 'd', 00H, 'e', 00H, 'd', 00H, ' ', 00H, 'i', 00H
	DB	'g', 00H, 'n', 00H, 'o', 00H, 'r', 00H, 'e', 00H, ' ', 00H, 'p'
	DB	00H, 'a', 00H, 't', 00H, 't', 00H, 'e', 00H, 'r', 00H, 'n', 00H
	DB	' ', 00H, '%', 00H, 's', 00H, ' ', 00H, 't', 00H, 'o', 00H, ' '
	DB	00H, '%', 00H, 's', 00H, 00H, 00H		; `string'
CONST	ENDS
;	COMDAT ??_C@_1BK@POFKGJHG@?$AAr?$AAo?$AAo?$AAt?$AA?5?$AAi?$AAg?$AAn?$AAo?$AAr?$AAe?$AAs?$AA?$AA@
CONST	SEGMENT
??_C@_1BK@POFKGJHG@?$AAr?$AAo?$AAo?$AAt?$AA?5?$AAi?$AAg?$AAn?$AAo?$AAr?$AAe?$AAs?$AA?$AA@ DB 'r'
	DB	00H, 'o', 00H, 'o', 00H, 't', 00H, ' ', 00H, 'i', 00H, 'g', 00H
	DB	'n', 00H, 'o', 00H, 'r', 00H, 'e', 00H, 's', 00H, 00H, 00H ; `string'
CONST	ENDS
;	COMDAT ??_C@_1FE@DKODGOLJ@?$AAP?$AAa?$AAt?$AAt?$AAe?$AAr?$AAn?$AA?5?$AAi?$AAs?$AA?5?$AAe?$AAm?$AAp?$AAt?$AAy?$AA?4?$AA?5?$AAN?$AAo?$AAt?$AA?5?$AAa?$AAd?$AAd?$AAi?$AAn?$AAg?$AA?5?$AAa?$AAn?$AAy@
CONST	SEGMENT
??_C@_1FE@DKODGOLJ@?$AAP?$AAa?$AAt?$AAt?$AAe?$AAr?$AAn?$AA?5?$AAi?$AAs?$AA?5?$AAe?$AAm?$AAp?$AAt?$AAy?$AA?4?$AA?5?$AAN?$AAo?$AAt?$AA?5?$AAa?$AAd?$AAd?$AAi?$AAn?$AAg?$AA?5?$AAa?$AAn?$AAy@ DB 'P'
	DB	00H, 'a', 00H, 't', 00H, 't', 00H, 'e', 00H, 'r', 00H, 'n', 00H
	DB	' ', 00H, 'i', 00H, 's', 00H, ' ', 00H, 'e', 00H, 'm', 00H, 'p'
	DB	00H, 't', 00H, 'y', 00H, '.', 00H, ' ', 00H, 'N', 00H, 'o', 00H
	DB	't', 00H, ' ', 00H, 'a', 00H, 'd', 00H, 'd', 00H, 'i', 00H, 'n'
	DB	00H, 'g', 00H, ' ', 00H, 'a', 00H, 'n', 00H, 'y', 00H, ' ', 00H
	DB	'i', 00H, 'g', 00H, 'n', 00H, 'o', 00H, 'r', 00H, 'e', 00H, 's'
	DB	00H, '.', 00H, 00H, 00H			; `string'
CONST	ENDS
;	COMDAT ??_C@_15ILMKIFHC@?$AA?4?$AA?1?$AA?$AA@
CONST	SEGMENT
??_C@_15ILMKIFHC@?$AA?4?$AA?1?$AA?$AA@ DB '.', 00H, '/', 00H, 00H, 00H ; `string'
CONST	ENDS
;	COMDAT ??_C@_15GANGMFKL@?$AA?$CF?$AAs?$AA?$AA@
CONST	SEGMENT
??_C@_15GANGMFKL@?$AA?$CF?$AAs?$AA?$AA@ DB '%', 00H, 's', 00H, 00H, 00H ; `string'
CONST	ENDS
;	COMDAT ??_C@_1M@BHHLEAOO@?$AA?$CF?$AAs?$AA?1?$AA?$CF?$AAs?$AA?$AA@
CONST	SEGMENT
??_C@_1M@BHHLEAOO@?$AA?$CF?$AAs?$AA?1?$AA?$CF?$AAs?$AA?$AA@ DB '%', 00H, 's'
	DB	00H, '/', 00H, '%', 00H, 's', 00H, 00H, 00H	; `string'
CONST	ENDS
;	COMDAT ??_C@_19GJLMFMHF@?$AA?4?$AAs?$AAv?$AAn?$AA?$AA@
CONST	SEGMENT
??_C@_19GJLMFMHF@?$AA?4?$AAs?$AAv?$AAn?$AA?$AA@ DB '.', 00H, 's', 00H, 'v'
	DB	00H, 'n', 00H, 00H, 00H			; `string'
CONST	ENDS
;	COMDAT ??_C@_1BE@DFLKLEHB@?$AA?4?$AAh?$AAg?$AAi?$AAg?$AAn?$AAo?$AAr?$AAe?$AA?$AA@
CONST	SEGMENT
??_C@_1BE@DFLKLEHB@?$AA?4?$AAh?$AAg?$AAi?$AAg?$AAn?$AAo?$AAr?$AAe?$AA?$AA@ DB '.'
	DB	00H, 'h', 00H, 'g', 00H, 'i', 00H, 'g', 00H, 'n', 00H, 'o', 00H
	DB	'r', 00H, 'e', 00H, 00H, 00H			; `string'
CONST	ENDS
;	COMDAT ??_C@_1CE@PDAAMJKA@?$AA?4?$AAg?$AAi?$AAt?$AA?1?$AAi?$AAn?$AAf?$AAo?$AA?1?$AAe?$AAx?$AAc?$AAl?$AAu?$AAd?$AAe?$AA?$AA@
CONST	SEGMENT
??_C@_1CE@PDAAMJKA@?$AA?4?$AAg?$AAi?$AAt?$AA?1?$AAi?$AAn?$AAf?$AAo?$AA?1?$AAe?$AAx?$AAc?$AAl?$AAu?$AAd?$AAe?$AA?$AA@ DB '.'
	DB	00H, 'g', 00H, 'i', 00H, 't', 00H, '/', 00H, 'i', 00H, 'n', 00H
	DB	'f', 00H, 'o', 00H, '/', 00H, 'e', 00H, 'x', 00H, 'c', 00H, 'l'
	DB	00H, 'u', 00H, 'd', 00H, 'e', 00H, 00H, 00H	; `string'
CONST	ENDS
;	COMDAT ??_C@_1BG@DMJCABDA@?$AA?4?$AAg?$AAi?$AAt?$AAi?$AAg?$AAn?$AAo?$AAr?$AAe?$AA?$AA@
CONST	SEGMENT
??_C@_1BG@DMJCABDA@?$AA?4?$AAg?$AAi?$AAt?$AAi?$AAg?$AAn?$AAo?$AAr?$AAe?$AA?$AA@ DB '.'
	DB	00H, 'g', 00H, 'i', 00H, 't', 00H, 'i', 00H, 'g', 00H, 'n', 00H
	DB	'o', 00H, 'r', 00H, 'e', 00H, 00H, 00H	; `string'
CONST	ENDS
;	COMDAT ??_C@_1BE@MNLJKMJM@?$AA?4?$AAa?$AAg?$AAi?$AAg?$AAn?$AAo?$AAr?$AAe?$AA?$AA@
CONST	SEGMENT
??_C@_1BE@MNLJKMJM@?$AA?4?$AAa?$AAg?$AAi?$AAg?$AAn?$AAo?$AAr?$AAe?$AA?$AA@ DB '.'
	DB	00H, 'a', 00H, 'g', 00H, 'i', 00H, 'g', 00H, 'n', 00H, 'o', 00H
	DB	'r', 00H, 'e', 00H, 00H, 00H			; `string'
CONST	ENDS
;	COMDAT ??_C@_15DDHGOCBH@?$AA?4?$AA?4?$AA?$AA@
CONST	SEGMENT
??_C@_15DDHGOCBH@?$AA?4?$AA?4?$AA?$AA@ DB '.', 00H, '.', 00H, 00H, 00H ; `string'
CONST	ENDS
;	COMDAT ??_C@_13JOFGPIOO@?$AA?4?$AA?$AA@
CONST	SEGMENT
??_C@_13JOFGPIOO@?$AA?4?$AA?$AA@ DB '.', 00H, 00H, 00H	; `string'
?evil_hardcoded_ignore_files@@3PAPB_WA DD FLAT:??_C@_13JOFGPIOO@?$AA?4?$AA?$AA@ ; evil_hardcoded_ignore_files
	DD	FLAT:??_C@_15DDHGOCBH@?$AA?4?$AA?4?$AA?$AA@
	DD	00H
?ignore_pattern_files@@3PAPB_WA DD FLAT:??_C@_1BE@MNLJKMJM@?$AA?4?$AAa?$AAg?$AAi?$AAg?$AAn?$AAo?$AAr?$AAe?$AA?$AA@ ; ignore_pattern_files
	DD	FLAT:??_C@_1BG@DMJCABDA@?$AA?4?$AAg?$AAi?$AAt?$AAi?$AAg?$AAn?$AAo?$AAr?$AAe?$AA?$AA@
	DD	FLAT:??_C@_1CE@PDAAMJKA@?$AA?4?$AAg?$AAi?$AAt?$AA?1?$AAi?$AAn?$AAf?$AAo?$AA?1?$AAe?$AAx?$AAc?$AAl?$AAu?$AAd?$AAe?$AA?$AA@
	DD	FLAT:??_C@_1BE@DFLKLEHB@?$AA?4?$AAh?$AAg?$AAi?$AAg?$AAn?$AAo?$AAr?$AAe?$AA?$AA@
	DD	FLAT:??_C@_19GJLMFMHF@?$AA?4?$AAs?$AAv?$AAn?$AA?$AA@
	DD	00H
PUBLIC	?filename_filter@@YAHPB_WPBUdirent@@PAX@Z	; filename_filter
PUBLIC	?load_svn_ignore_patterns@@YAXPAUignores@@PB_W@Z ; load_svn_ignore_patterns
PUBLIC	?load_ignore_patterns@@YAXPAUignores@@PB_W@Z	; load_ignore_patterns
PUBLIC	?add_ignore_pattern@@YAXPAUignores@@PB_W@Z	; add_ignore_pattern
PUBLIC	?cleanup_ignore@@YAXPAUignores@@@Z		; cleanup_ignore
PUBLIC	?init_ignore@@YAPAUignores@@PAU1@PB_WI@Z	; init_ignore
PUBLIC	?is_empty@@YAHPAUignores@@@Z			; is_empty
PUBLIC	?wcsstr@@YAPA_WPA_WPB_W@Z			; wcsstr
; Function compile flags: /Ogtp
;	COMDAT ?wcsstr@@YAPA_WPA_WPB_W@Z
_TEXT	SEGMENT
?wcsstr@@YAPA_WPA_WPB_W@Z PROC				; wcsstr, COMDAT
; __Str$ = ecx
; __SubStr$ = edx
; File c:\program files (x86)\microsoft visual studio 12.0\vc\include\string.h
; Line 391
	push	edx
	push	ecx
	call	DWORD PTR __imp__wcsstr
	add	esp, 8
	ret	0
?wcsstr@@YAPA_WPA_WPB_W@Z ENDP				; wcsstr
_TEXT	ENDS
; Function compile flags: /Ogtp
;	COMDAT ?is_empty@@YAHPAUignores@@@Z
_TEXT	SEGMENT
?is_empty@@YAHPAUignores@@@Z PROC			; is_empty, COMDAT
; _ig$ = ecx
; File i:\study\filescan\filescan\ignore.c
; Line 43
	mov	eax, DWORD PTR [ecx+36]
	add	eax, DWORD PTR [ecx+28]
	add	eax, DWORD PTR [ecx+20]
	add	eax, DWORD PTR [ecx+12]
	add	eax, DWORD PTR [ecx+4]
	neg	eax
	sbb	eax, eax
	inc	eax
; Line 44
	ret	0
?is_empty@@YAHPAUignores@@@Z ENDP			; is_empty
_TEXT	ENDS
; Function compile flags: /Ogtp
;	COMDAT ?init_ignore@@YAPAUignores@@PAU1@PB_WI@Z
_TEXT	SEGMENT
_dirname$1$ = -4					; size = 4
_dirname_len$ = 8					; size = 4
?init_ignore@@YAPAUignores@@PAU1@PB_WI@Z PROC		; init_ignore, COMDAT
; _parent$ = ecx
; _dirname$ = edx
; File i:\study\filescan\filescan\ignore.c
; Line 46
	push	ebp
	mov	ebp, esp
	push	ecx
	push	ebx
	push	esi
	push	edi
; File i:\study\filescan\filescan\util.c
; Line 27
	push	60					; 0000003cH
; File i:\study\filescan\filescan\ignore.c
; Line 46
	mov	DWORD PTR _dirname$1$[ebp], edx
	mov	edi, ecx
; File i:\study\filescan\filescan\util.c
; Line 27
	call	DWORD PTR __imp__malloc
	mov	esi, eax
	add	esp, 4
; Line 28
	test	esi, esi
	je	$LN19@init_ignor
; File i:\study\filescan\filescan\ignore.c
; Line 59
	mov	ecx, DWORD PTR _dirname$1$[ebp]
	mov	ebx, DWORD PTR _dirname_len$[ebp]
	mov	DWORD PTR [esi], 0
	mov	DWORD PTR [esi+4], 0
	mov	DWORD PTR [esi+8], 0
	mov	DWORD PTR [esi+12], 0
	mov	DWORD PTR [esi+16], 0
	mov	DWORD PTR [esi+20], 0
	mov	DWORD PTR [esi+24], 0
	mov	DWORD PTR [esi+28], 0
	mov	DWORD PTR [esi+32], 0
	mov	DWORD PTR [esi+36], 0
	mov	DWORD PTR [esi+40], ecx
	mov	DWORD PTR [esi+44], ebx
; Line 61
	test	edi, edi
	je	SHORT $LN6@init_ignor
; Line 43
	mov	eax, DWORD PTR [edi+36]
	add	eax, DWORD PTR [edi+28]
	add	eax, DWORD PTR [edi+20]
	add	eax, DWORD PTR [edi+12]
	add	eax, DWORD PTR [edi+4]
; Line 61
	jne	SHORT $LN6@init_ignor
	mov	eax, DWORD PTR [edi+56]
	test	eax, eax
	je	SHORT $LN6@init_ignor
; Line 62
	mov	DWORD PTR [esi+56], eax
; Line 63
	jmp	SHORT $LN5@init_ignor
$LN6@init_ignor:
; Line 64
	mov	DWORD PTR [esi+56], edi
$LN5@init_ignor:
; Line 67
	test	edi, edi
	je	SHORT $LN4@init_ignor
	cmp	DWORD PTR [edi+52], 0
	jbe	SHORT $LN4@init_ignor
; Line 68
	push	ecx
	push	DWORD PTR [edi+48]
	lea	eax, DWORD PTR [esi+48]
	push	OFFSET ??_C@_1M@BHHLEAOO@?$AA?$CF?$AAs?$AA?1?$AA?$CF?$AAs?$AA?$AA@
	push	eax
	call	?ag_asprintf@@YAXPAPA_WPB_WZZ		; ag_asprintf
; Line 69
	mov	eax, DWORD PTR [edi+52]
	add	esp, 16					; 00000010H
	inc	eax
	add	eax, ebx
	mov	DWORD PTR [esi+52], eax
; Line 78
	mov	eax, esi
	pop	edi
	pop	esi
	pop	ebx
; Line 79
	mov	esp, ebp
	pop	ebp
	ret	0
$LN4@init_ignor:
; Line 70
	cmp	ebx, 1
	jne	SHORT $LN2@init_ignor
	cmp	WORD PTR [ecx], 46			; 0000002eH
	jne	SHORT $LN2@init_ignor
; File i:\study\filescan\filescan\util.c
; Line 27
	push	2
	call	DWORD PTR __imp__malloc
	add	esp, 4
; Line 28
	test	eax, eax
	je	SHORT $LN21@init_ignor
; File i:\study\filescan\filescan\ignore.c
; Line 72
	mov	DWORD PTR [esi+48], eax
	xor	ecx, ecx
	mov	WORD PTR [eax], cx
; Line 78
	mov	eax, esi
	pop	edi
	mov	DWORD PTR [esi+52], ecx
	pop	esi
	pop	ebx
; Line 79
	mov	esp, ebp
	pop	ebp
	ret	0
$LN2@init_ignor:
; Line 75
	push	ecx
	lea	eax, DWORD PTR [esi+48]
	push	OFFSET ??_C@_15GANGMFKL@?$AA?$CF?$AAs?$AA?$AA@
	push	eax
	call	?ag_asprintf@@YAXPAPA_WPB_WZZ		; ag_asprintf
	add	esp, 12					; 0000000cH
; Line 76
	mov	DWORD PTR [esi+52], ebx
; Line 78
	mov	eax, esi
	pop	edi
	pop	esi
	pop	ebx
; Line 79
	mov	esp, ebp
	pop	ebp
	ret	0
$LN19@init_ignor:
; File i:\study\filescan\filescan\util.c
; Line 28
	push	OFFSET ??_C@_1DE@PGDGFCEA@?$AAM?$AAe?$AAm?$AAo?$AAr?$AAy?$AA?5?$AAa?$AAl?$AAl?$AAo?$AAc?$AAa?$AAt?$AAi?$AAo?$AAn?$AA?5?$AAf?$AAa?$AAi?$AAl?$AAe?$AAd?$AA?4?$AA?$AA@
	call	?die@@YAXPB_WZZ				; die
$LN22@init_ignor:
$LN21@init_ignor:
	push	OFFSET ??_C@_1DE@PGDGFCEA@?$AAM?$AAe?$AAm?$AAo?$AAr?$AAy?$AA?5?$AAa?$AAl?$AAl?$AAo?$AAc?$AAa?$AAt?$AAi?$AAo?$AAn?$AA?5?$AAf?$AAa?$AAi?$AAl?$AAe?$AAd?$AA?4?$AA?$AA@
	call	?die@@YAXPB_WZZ				; die
$LN23@init_ignor:
$LN18@init_ignor:
	int	3
?init_ignore@@YAPAUignores@@PAU1@PB_WI@Z ENDP		; init_ignore
_TEXT	ENDS
; Function compile flags: /Ogtp
;	COMDAT ?cleanup_ignore@@YAXPAUignores@@@Z
_TEXT	SEGMENT
_strs_len$1$ = -12					; size = 4
_strs_len$1$ = -12					; size = 4
_strs_len$1$ = -12					; size = 4
_strs_len$1$ = -12					; size = 4
_strs_len$1$ = -12					; size = 4
_strs$1$ = -8						; size = 4
_strs$1$ = -8						; size = 4
_strs$1$ = -8						; size = 4
_strs$1$ = -8						; size = 4
_strs$1$ = -8						; size = 4
_ig$1$ = -4						; size = 4
?cleanup_ignore@@YAXPAUignores@@@Z PROC			; cleanup_ignore, COMDAT
; _ig$ = ecx
; File i:\study\filescan\filescan\ignore.c
; Line 81
	push	ebp
	mov	ebp, esp
	sub	esp, 12					; 0000000cH
	push	ebx
	mov	ebx, ecx
	mov	DWORD PTR _ig$1$[ebp], ebx
; Line 82
	test	ebx, ebx
	je	$LN3@cleanup_ig
; Line 85
	mov	eax, DWORD PTR [ebx]
	mov	ecx, DWORD PTR [ebx+4]
	mov	DWORD PTR _strs_len$1$[ebp], ecx
	mov	DWORD PTR _strs$1$[ebp], eax
	push	esi
; File i:\study\filescan\filescan\util.c
; Line 59
	mov	esi, DWORD PTR __imp__free
	push	edi
	test	eax, eax
	je	SHORT $LN9@cleanup_ig
; Line 63
	xor	edi, edi
	test	ecx, ecx
	je	SHORT $LN5@cleanup_ig
	mov	ebx, eax
$LL7@cleanup_ig:
; Line 64
	push	DWORD PTR [ebx+edi*4]
	call	esi
	inc	edi
	add	esp, 4
	cmp	edi, DWORD PTR _strs_len$1$[ebp]
	jb	SHORT $LL7@cleanup_ig
	mov	ebx, DWORD PTR _ig$1$[ebp]
	mov	eax, DWORD PTR _strs$1$[ebp]
$LN5@cleanup_ig:
; Line 66
	push	eax
	call	esi
	add	esp, 4
$LN9@cleanup_ig:
; File i:\study\filescan\filescan\ignore.c
; Line 86
	mov	eax, DWORD PTR [ebx+8]
	mov	ecx, DWORD PTR [ebx+12]
	mov	DWORD PTR _strs_len$1$[ebp], ecx
	mov	DWORD PTR _strs$1$[ebp], eax
; File i:\study\filescan\filescan\util.c
; Line 59
	test	eax, eax
	je	SHORT $LN15@cleanup_ig
; Line 63
	xor	edi, edi
	test	ecx, ecx
	je	SHORT $LN11@cleanup_ig
	mov	ebx, eax
$LL13@cleanup_ig:
; Line 64
	push	DWORD PTR [ebx+edi*4]
	call	esi
	inc	edi
	add	esp, 4
	cmp	edi, DWORD PTR _strs_len$1$[ebp]
	jb	SHORT $LL13@cleanup_ig
	mov	ebx, DWORD PTR _ig$1$[ebp]
	mov	eax, DWORD PTR _strs$1$[ebp]
$LN11@cleanup_ig:
; Line 66
	push	eax
	call	esi
	add	esp, 4
$LN15@cleanup_ig:
; File i:\study\filescan\filescan\ignore.c
; Line 87
	mov	eax, DWORD PTR [ebx+16]
	mov	ecx, DWORD PTR [ebx+20]
	mov	DWORD PTR _strs_len$1$[ebp], ecx
	mov	DWORD PTR _strs$1$[ebp], eax
; File i:\study\filescan\filescan\util.c
; Line 59
	test	eax, eax
	je	SHORT $LN21@cleanup_ig
; Line 63
	xor	edi, edi
	test	ecx, ecx
	je	SHORT $LN17@cleanup_ig
	mov	ebx, eax
$LL19@cleanup_ig:
; Line 64
	push	DWORD PTR [ebx+edi*4]
	call	esi
	inc	edi
	add	esp, 4
	cmp	edi, DWORD PTR _strs_len$1$[ebp]
	jb	SHORT $LL19@cleanup_ig
	mov	ebx, DWORD PTR _ig$1$[ebp]
	mov	eax, DWORD PTR _strs$1$[ebp]
$LN17@cleanup_ig:
; Line 66
	push	eax
	call	esi
	add	esp, 4
$LN21@cleanup_ig:
; File i:\study\filescan\filescan\ignore.c
; Line 88
	mov	eax, DWORD PTR [ebx+24]
	mov	ecx, DWORD PTR [ebx+28]
	mov	DWORD PTR _strs_len$1$[ebp], ecx
	mov	DWORD PTR _strs$1$[ebp], eax
; File i:\study\filescan\filescan\util.c
; Line 59
	test	eax, eax
	je	SHORT $LN27@cleanup_ig
; Line 63
	xor	edi, edi
	test	ecx, ecx
	je	SHORT $LN23@cleanup_ig
	mov	ebx, eax
	npad	7
$LL25@cleanup_ig:
; Line 64
	push	DWORD PTR [ebx+edi*4]
	call	esi
	inc	edi
	add	esp, 4
	cmp	edi, DWORD PTR _strs_len$1$[ebp]
	jb	SHORT $LL25@cleanup_ig
	mov	ebx, DWORD PTR _ig$1$[ebp]
	mov	eax, DWORD PTR _strs$1$[ebp]
$LN23@cleanup_ig:
; Line 66
	push	eax
	call	esi
	add	esp, 4
$LN27@cleanup_ig:
; File i:\study\filescan\filescan\ignore.c
; Line 89
	mov	eax, DWORD PTR [ebx+32]
	mov	ecx, DWORD PTR [ebx+36]
	mov	DWORD PTR _strs_len$1$[ebp], ecx
	mov	DWORD PTR _strs$1$[ebp], eax
; File i:\study\filescan\filescan\util.c
; Line 59
	test	eax, eax
	je	SHORT $LN33@cleanup_ig
; Line 63
	xor	edi, edi
	test	ecx, ecx
	je	SHORT $LN29@cleanup_ig
	mov	ebx, eax
$LL31@cleanup_ig:
; Line 64
	push	DWORD PTR [ebx+edi*4]
	call	esi
	inc	edi
	add	esp, 4
	cmp	edi, DWORD PTR _strs_len$1$[ebp]
	jb	SHORT $LL31@cleanup_ig
	mov	ebx, DWORD PTR _ig$1$[ebp]
	mov	eax, DWORD PTR _strs$1$[ebp]
$LN29@cleanup_ig:
; Line 66
	push	eax
	call	esi
	add	esp, 4
$LN33@cleanup_ig:
; File i:\study\filescan\filescan\ignore.c
; Line 90
	mov	eax, DWORD PTR [ebx+48]
	test	eax, eax
	je	SHORT $LN1@cleanup_ig
; Line 91
	push	eax
	call	esi
	add	esp, 4
$LN1@cleanup_ig:
; Line 93
	push	ebx
	call	esi
	add	esp, 4
	pop	edi
	pop	esi
$LN3@cleanup_ig:
	pop	ebx
; Line 94
	mov	esp, ebp
	pop	ebp
	ret	0
?cleanup_ignore@@YAXPAUignores@@@Z ENDP			; cleanup_ignore
_TEXT	ENDS
; Function compile flags: /Ogtp
;	COMDAT ?add_ignore_pattern@@YAXPAUignores@@PB_W@Z
_TEXT	SEGMENT
_new_ptr$1$ = -36					; size = 4
_ig$GSCopy$1$ = -32					; size = 4
tv375 = -28						; size = 4
tv373 = -28						; size = 4
_pattern_len$1$ = -24					; size = 4
_patterns_p$1$ = -20					; size = 4
_fnmatch_chars$1 = -16					; size = 12
_fnmatch_chars$2 = -16					; size = 12
__$ArrayPad$ = -4					; size = 4
?add_ignore_pattern@@YAXPAUignores@@PB_W@Z PROC		; add_ignore_pattern, COMDAT
; _ig$ = ecx
; _pattern$ = edx
; File i:\study\filescan\filescan\ignore.c
; Line 96
	push	ebp
	mov	ebp, esp
	sub	esp, 36					; 00000024H
	mov	eax, DWORD PTR ___security_cookie
	xor	eax, ebp
	mov	DWORD PTR __$ArrayPad$[ebp], eax
	push	ebx
	push	esi
	push	edi
; Line 101
	push	2
	mov	ebx, edx
	mov	edi, ecx
	push	OFFSET ??_C@_15ILMKIFHC@?$AA?4?$AA?1?$AA?$AA@
	push	ebx
	mov	DWORD PTR _ig$GSCopy$1$[ebp], edi
	call	DWORD PTR __imp__wcsncmp
	add	esp, 12					; 0000000cH
	test	eax, eax
	jne	SHORT $LN18@add_ignore
; Line 102
	add	ebx, 2
$LN18@add_ignore:
; Line 106
	mov	esi, ebx
	lea	ecx, DWORD PTR [esi+2]
$LL47@add_ignore:
	mov	ax, WORD PTR [esi]
	add	esi, 2
	test	ax, ax
	jne	SHORT $LL47@add_ignore
	sub	esi, ecx
	sar	esi, 1
	mov	DWORD PTR _pattern_len$1$[ebp], esi
	test	esi, esi
	jle	SHORT $LN55@add_ignore
	lea	edi, DWORD PTR [esi-1]
	lea	edi, DWORD PTR [ebx+edi*2]
$LL17@add_ignore:
; Line 107
	movzx	eax, WORD PTR [edi]
	push	eax
	call	DWORD PTR __imp__isspace
	add	esp, 4
	test	eax, eax
	je	SHORT $LN52@add_ignore
; Line 106
	dec	esi
	sub	edi, 2
	test	esi, esi
	jg	SHORT $LL17@add_ignore
$LN52@add_ignore:
	mov	edi, DWORD PTR _ig$GSCopy$1$[ebp]
; Line 112
	test	esi, esi
	mov	DWORD PTR _pattern_len$1$[ebp], esi
$LN55@add_ignore:
	jne	SHORT $LN13@add_ignore
; Line 113
	push	OFFSET ??_C@_1FE@DKODGOLJ@?$AAP?$AAa?$AAt?$AAt?$AAe?$AAr?$AAn?$AA?5?$AAi?$AAs?$AA?5?$AAe?$AAm?$AAp?$AAt?$AAy?$AA?4?$AA?5?$AAN?$AAo?$AAt?$AA?5?$AAa?$AAd?$AAd?$AAi?$AAn?$AAg?$AA?5?$AAa?$AAn?$AAy@
	call	?log_debug@@YAXPB_WZZ			; log_debug
	add	esp, 4
	pop	edi
	pop	esi
	pop	ebx
; Line 161
	mov	ecx, DWORD PTR __$ArrayPad$[ebp]
	xor	ecx, ebp
	call	@__security_check_cookie@4
	mov	esp, ebp
	pop	ebp
	ret	0
$LN13@add_ignore:
; File i:\study\filescan\filescan\util.c
; Line 365
	lea	eax, DWORD PTR _fnmatch_chars$2[ebp]
	mov	DWORD PTR _fnmatch_chars$2[ebp], 2752545 ; 002a0021H
	push	eax
	push	ebx
	mov	DWORD PTR _fnmatch_chars$2[ebp+4], 5963839 ; 005b003fH
	mov	DWORD PTR _fnmatch_chars$2[ebp+8], 93	; 0000005dH
	call	DWORD PTR __imp__wcspbrk
	add	esp, 8
	test	eax, eax
; File i:\study\filescan\filescan\ignore.c
; Line 119
	je	SHORT $LN12@add_ignore
; Line 120
	cmp	WORD PTR [ebx], 42			; 0000002aH
	jne	SHORT $LN11@add_ignore
	cmp	WORD PTR [ebx+2], 46			; 0000002eH
	jne	SHORT $LN11@add_ignore
; File i:\study\filescan\filescan\util.c
; Line 365
	lea	ecx, DWORD PTR _fnmatch_chars$1[ebp]
	mov	DWORD PTR _fnmatch_chars$1[ebp], 2752545 ; 002a0021H
; File i:\study\filescan\filescan\ignore.c
; Line 120
	lea	eax, DWORD PTR [ebx+4]
; File i:\study\filescan\filescan\util.c
; Line 363
	mov	DWORD PTR _fnmatch_chars$1[ebp+4], 5963839 ; 005b003fH
; Line 365
	push	ecx
	push	eax
	mov	DWORD PTR _fnmatch_chars$1[ebp+8], 93	; 0000005dH
; File i:\study\filescan\filescan\ignore.c
; Line 120
	mov	DWORD PTR tv375[ebp], eax
; File i:\study\filescan\filescan\util.c
; Line 365
	call	DWORD PTR __imp__wcspbrk
	add	esp, 8
	test	eax, eax
; File i:\study\filescan\filescan\ignore.c
; Line 120
	jne	SHORT $LN11@add_ignore
; Line 123
	mov	ebx, DWORD PTR tv375[ebp]
	mov	ecx, edi
	mov	DWORD PTR _patterns_p$1$[ebp], edi
	add	edi, 4
	jmp	SHORT $LN5@add_ignore
$LN11@add_ignore:
; Line 124
	cmp	WORD PTR [ebx], 47			; 0000002fH
	jne	SHORT $LN9@add_ignore
; Line 125
	lea	ecx, DWORD PTR [edi+32]
; Line 127
	add	ebx, 2
	add	edi, 36					; 00000024H
; Line 128
	dec	esi
	mov	DWORD PTR _pattern_len$1$[ebp], esi
; Line 129
	jmp	SHORT $LN56@add_ignore
$LN9@add_ignore:
; Line 130
	lea	ecx, DWORD PTR [edi+24]
; Line 131
	add	edi, 28					; 0000001cH
; Line 133
	jmp	SHORT $LN56@add_ignore
$LN12@add_ignore:
; Line 134
	cmp	WORD PTR [ebx], 47			; 0000002fH
	jne	SHORT $LN6@add_ignore
; Line 135
	lea	ecx, DWORD PTR [edi+16]
; Line 137
	add	ebx, 2
	add	edi, 20					; 00000014H
; Line 138
	dec	esi
	mov	DWORD PTR _pattern_len$1$[ebp], esi
; Line 139
	jmp	SHORT $LN56@add_ignore
$LN6@add_ignore:
; Line 140
	lea	ecx, DWORD PTR [edi+8]
; Line 141
	add	edi, 12					; 0000000cH
$LN56@add_ignore:
; Line 140
	mov	DWORD PTR _patterns_p$1$[ebp], ecx
$LN5@add_ignore:
; Line 145
	inc	DWORD PTR [edi]
	mov	eax, DWORD PTR [edi]
; Line 150
	shl	eax, 2
; File i:\study\filescan\filescan\util.c
; Line 32
	push	eax
	push	DWORD PTR [ecx]
	call	DWORD PTR __imp__realloc
	mov	ecx, eax
	add	esp, 8
	mov	DWORD PTR _new_ptr$1$[ebp], ecx
; Line 33
	test	ecx, ecx
	je	$LN57@add_ignore
; File i:\study\filescan\filescan\ignore.c
; Line 150
	mov	eax, DWORD PTR _patterns_p$1$[ebp]
	mov	DWORD PTR [eax], ecx
; Line 152
	mov	edi, DWORD PTR [edi]
	dec	edi
	test	edi, edi
	jle	SHORT $LN40@add_ignore
; Line 150
	lea	esi, DWORD PTR [edi-1]
	lea	esi, DWORD PTR [ecx+esi*4]
	npad	1
$LL4@add_ignore:
; Line 153
	mov	eax, DWORD PTR [esi]
	mov	ecx, ebx
$LL48@add_ignore:
	mov	dx, WORD PTR [ecx]
	cmp	dx, WORD PTR [eax]
	jne	SHORT $LN49@add_ignore
	test	dx, dx
	je	SHORT $LN50@add_ignore
	mov	dx, WORD PTR [ecx+2]
	cmp	dx, WORD PTR [eax+2]
	jne	SHORT $LN49@add_ignore
	add	ecx, 4
	add	eax, 4
	test	dx, dx
	jne	SHORT $LL48@add_ignore
$LN50@add_ignore:
	xor	eax, eax
	jmp	SHORT $LN51@add_ignore
$LN49@add_ignore:
	sbb	eax, eax
	or	eax, 1
$LN51@add_ignore:
	test	eax, eax
	jg	SHORT $LN53@add_ignore
; Line 156
	mov	eax, DWORD PTR [esi]
	dec	edi
	mov	DWORD PTR [esi+4], eax
	sub	esi, 4
	test	edi, edi
	jg	SHORT $LL4@add_ignore
$LN53@add_ignore:
	mov	esi, DWORD PTR _pattern_len$1$[ebp]
$LN40@add_ignore:
; File i:\study\filescan\filescan\util.c
; Line 52
	lea	eax, DWORD PTR [esi+1]
; Line 27
	push	eax
; Line 52
	mov	DWORD PTR tv373[ebp], eax
; Line 27
	call	DWORD PTR __imp__malloc
	mov	esi, eax
	add	esp, 4
; Line 28
	test	esi, esi
	je	SHORT $LN59@add_ignore
; Line 53
	push	ebx
	push	DWORD PTR tv373[ebp]
	push	esi
	call	DWORD PTR __imp__wcscpy_s
; File i:\study\filescan\filescan\ignore.c
; Line 158
	mov	eax, DWORD PTR _new_ptr$1$[ebp]
; File i:\study\filescan\filescan\util.c
; Line 53
	add	esp, 12					; 0000000cH
; File i:\study\filescan\filescan\ignore.c
; Line 158
	mov	DWORD PTR [eax+edi*4], esi
; Line 160
	mov	eax, DWORD PTR _ig$GSCopy$1$[ebp]
	cmp	eax, DWORD PTR ?root_ignores@@3PAUignores@@A ; root_ignores
	jne	SHORT $LN21@add_ignore
	mov	eax, OFFSET ??_C@_1BK@POFKGJHG@?$AAr?$AAo?$AAo?$AAt?$AA?5?$AAi?$AAg?$AAn?$AAo?$AAr?$AAe?$AAs?$AA?$AA@
	jmp	SHORT $LN22@add_ignore
$LN21@add_ignore:
	mov	eax, DWORD PTR [eax+48]
$LN22@add_ignore:
	push	eax
	push	ebx
	push	OFFSET ??_C@_1DM@OPEHFOEM@?$AAa?$AAd?$AAd?$AAe?$AAd?$AA?5?$AAi?$AAg?$AAn?$AAo?$AAr?$AAe?$AA?5?$AAp?$AAa?$AAt?$AAt?$AAe?$AAr?$AAn?$AA?5?$AA?$CF?$AAs?$AA?5?$AAt?$AAo?$AA?5?$AA?$CF?$AAs?$AA?$AA@
	call	?log_debug@@YAXPB_WZZ			; log_debug
; Line 161
	mov	ecx, DWORD PTR __$ArrayPad$[ebp]
	add	esp, 12					; 0000000cH
	xor	ecx, ebp
	pop	edi
	pop	esi
	pop	ebx
	call	@__security_check_cookie@4
	mov	esp, ebp
	pop	ebp
	ret	0
$LN57@add_ignore:
; File i:\study\filescan\filescan\util.c
; Line 33
	push	OFFSET ??_C@_1DE@PGDGFCEA@?$AAM?$AAe?$AAm?$AAo?$AAr?$AAy?$AA?5?$AAa?$AAl?$AAl?$AAo?$AAc?$AAa?$AAt?$AAi?$AAo?$AAn?$AA?5?$AAf?$AAa?$AAi?$AAl?$AAe?$AAd?$AA?4?$AA?$AA@
	call	?die@@YAXPB_WZZ				; die
$LN60@add_ignore:
$LN59@add_ignore:
; Line 28
	push	OFFSET ??_C@_1DE@PGDGFCEA@?$AAM?$AAe?$AAm?$AAo?$AAr?$AAy?$AA?5?$AAa?$AAl?$AAl?$AAo?$AAc?$AAa?$AAt?$AAi?$AAo?$AAn?$AA?5?$AAf?$AAa?$AAi?$AAl?$AAe?$AAd?$AA?4?$AA?$AA@
	call	?die@@YAXPB_WZZ				; die
$LN61@add_ignore:
$LN54@add_ignore:
	int	3
?add_ignore_pattern@@YAXPAUignores@@PB_W@Z ENDP		; add_ignore_pattern
_TEXT	ENDS
; Function compile flags: /Ogtp
;	COMDAT ?load_ignore_patterns@@YAXPAUignores@@PB_W@Z
_TEXT	SEGMENT
_ig$1$ = -20						; size = 4
_srcln$1$ = -16						; size = 4
_len$1 = -12						; size = 4
_line_cap$1$ = -8					; size = 4
_fp$1$ = -4						; size = 4
?load_ignore_patterns@@YAXPAUignores@@PB_W@Z PROC	; load_ignore_patterns, COMDAT
; _ig$ = ecx
; _path$ = edx
; File i:\study\filescan\filescan\ignore.c
; Line 164
	push	ebp
	mov	ebp, esp
	sub	esp, 20					; 00000014H
	push	ebx
	push	esi
	mov	esi, edx
	mov	DWORD PTR _ig$1$[ebp], ecx
; Line 166
	push	OFFSET ??_C@_13BPINEIPE@?$AAr?$AA?$AA@
	push	esi
	call	DWORD PTR __imp___wfopen
	mov	ebx, eax
	add	esp, 8
	mov	DWORD PTR _fp$1$[ebp], ebx
; Line 167
	test	ebx, ebx
	jne	SHORT $LN6@load_ignor
; Line 168
	push	esi
	push	OFFSET ??_C@_1EM@MILJMGI@?$AAS?$AAk?$AAi?$AAp?$AAp?$AAi?$AAn?$AAg?$AA?5?$AAi?$AAg?$AAn?$AAo?$AAr?$AAe?$AA?5?$AAf?$AAi?$AAl?$AAe?$AA?5?$AA?$CF?$AAs?$AA?3?$AA?5?$AAn?$AAo?$AAt?$AA?5?$AAr?$AAe?$AAa@
	call	?log_debug@@YAXPB_WZZ			; log_debug
	add	esp, 8
	pop	esi
	pop	ebx
; Line 189
	mov	esp, ebp
	pop	ebp
	ret	0
$LN6@load_ignor:
	push	edi
; Line 171
	push	esi
	push	OFFSET ??_C@_1DA@KDLFMBOA@?$AAL?$AAo?$AAa?$AAd?$AAi?$AAn?$AAg?$AA?5?$AAi?$AAg?$AAn?$AAo?$AAr?$AAe?$AA?5?$AAf?$AAi?$AAl?$AAe?$AA?5?$AA?$CF?$AAs?$AA?4?$AA?$AA@
	call	?log_debug@@YAXPB_WZZ			; log_debug
	add	esp, 8
; Line 173
	xor	edi, edi
; Line 175
	xor	esi, esi
	mov	DWORD PTR _line_cap$1$[ebp], esi
	jmp	SHORT $LL5@load_ignor
$LN21@load_ignor:
	mov	esi, DWORD PTR _line_cap$1$[ebp]
$LL5@load_ignor:
; File i:\study\filescan\filescan\util.c
; Line 534
	lea	edx, DWORD PTR _len$1[ebp]
	mov	DWORD PTR _len$1[ebp], 0
	mov	ecx, ebx
	call	?fgetln@@YAPA_WPAU_iobuf@@PAI@Z		; fgetln
	mov	DWORD PTR _srcln$1$[ebp], eax
	test	eax, eax
	je	SHORT $LN19@load_ignor
; Line 538
	mov	ebx, DWORD PTR _len$1[ebp]
	cmp	ebx, esi
	jb	SHORT $LN10@load_ignor
; Line 541
	lea	ecx, DWORD PTR [ebx*4]
	push	ecx
	push	edi
	call	DWORD PTR __imp__realloc
	add	esp, 8
	test	eax, eax
	je	SHORT $LN23@load_ignor
; Line 544
	mov	edi, eax
; Line 545
	lea	eax, DWORD PTR [ebx+ebx]
	mov	DWORD PTR _line_cap$1$[ebp], eax
	mov	eax, DWORD PTR _srcln$1$[ebp]
$LN10@load_ignor:
; Line 548
	lea	esi, DWORD PTR [ebx+ebx]
	push	esi
	push	eax
	push	edi
	call	_memcpy
; Line 554
	push	DWORD PTR _srcln$1$[ebp]
	call	DWORD PTR __imp__free
; Line 557
	xor	eax, eax
	add	esp, 16					; 00000010H
; File i:\study\filescan\filescan\ignore.c
; Line 177
	test	ebx, ebx
; File i:\study\filescan\filescan\util.c
; Line 557
	mov	WORD PTR [esi+edi], ax
; File i:\study\filescan\filescan\ignore.c
; Line 178
	mov	ebx, DWORD PTR _fp$1$[ebp]
	jle	SHORT $LN19@load_ignor
	movzx	eax, WORD PTR [edi]
	cmp	eax, 10					; 0000000aH
	je	SHORT $LN21@load_ignor
	cmp	eax, 35					; 00000023H
	je	SHORT $LN21@load_ignor
; Line 181
	cmp	WORD PTR [esi+edi-2], 10		; 0000000aH
	jne	SHORT $LN1@load_ignor
; Line 182
	xor	eax, eax
	mov	WORD PTR [esi+edi-2], ax
$LN1@load_ignor:
; Line 184
	mov	ecx, DWORD PTR _ig$1$[ebp]
	mov	edx, edi
	call	?add_ignore_pattern@@YAXPAUignores@@PB_W@Z ; add_ignore_pattern
; Line 185
	jmp	$LN21@load_ignor
$LN23@load_ignor:
	mov	ebx, DWORD PTR _fp$1$[ebp]
$LN19@load_ignor:
; Line 187
	push	edi
	call	DWORD PTR __imp__free
; Line 188
	push	ebx
	call	DWORD PTR __imp__fclose
	add	esp, 8
	pop	edi
	pop	esi
	pop	ebx
; Line 189
	mov	esp, ebp
	pop	ebp
	ret	0
?load_ignore_patterns@@YAXPAUignores@@PB_W@Z ENDP	; load_ignore_patterns
_TEXT	ENDS
; Function compile flags: /Ogtp
;	COMDAT ?load_svn_ignore_patterns@@YAXPAUignores@@PB_W@Z
_TEXT	SEGMENT
_key$1$ = -36						; size = 4
tv310 = -32						; size = 4
_ig$1$ = -28						; size = 4
_ptr$1$ = -24						; size = 4
_patterns$1$ = -20					; size = 4
_entry_len$ = -16					; size = 4
_dir_prop_base$ = -12					; size = 4
_fp$1$ = -8						; size = 4
_key_len$ = -4						; size = 4
?load_svn_ignore_patterns@@YAXPAUignores@@PB_W@Z PROC	; load_svn_ignore_patterns, COMDAT
; _ig$ = ecx
; _path$ = edx
; File i:\study\filescan\filescan\ignore.c
; Line 191
	push	ebp
	mov	ebp, esp
	sub	esp, 36					; 00000024H
	push	ebx
	push	esi
; Line 194
	push	OFFSET ??_C@_1BM@EPJFBLOO@?$AAd?$AAi?$AAr?$AA?9?$AAp?$AAr?$AAo?$AAp?$AA?9?$AAb?$AAa?$AAs?$AAe?$AA?$AA@
	push	edx
	lea	eax, DWORD PTR _dir_prop_base$[ebp]
	mov	DWORD PTR _ig$1$[ebp], ecx
	push	OFFSET ??_C@_1M@BHHLEAOO@?$AA?$CF?$AAs?$AA?1?$AA?$CF?$AAs?$AA?$AA@
	push	eax
	call	?ag_asprintf@@YAXPAPA_WPB_WZZ		; ag_asprintf
; Line 196
	mov	ebx, DWORD PTR _dir_prop_base$[ebp]
	push	OFFSET ??_C@_13BPINEIPE@?$AAr?$AA?$AA@
	push	ebx
	call	DWORD PTR __imp___wfopen
	mov	esi, eax
	add	esp, 24					; 00000018H
	mov	DWORD PTR _fp$1$[ebp], esi
; Line 197
	test	esi, esi
	jne	SHORT $LN15@load_svn_i
; Line 198
	push	ebx
	push	OFFSET ??_C@_1DI@GLDLEOPM@?$AAS?$AAk?$AAi?$AAp?$AAp?$AAi?$AAn?$AAg?$AA?5?$AAs?$AAv?$AAn?$AA?5?$AAi?$AAg?$AAn?$AAo?$AAr?$AAe?$AA?5?$AAf?$AAi?$AAl?$AAe?$AA?5?$AA?$CF?$AAs?$AA?$AA@
	call	?log_debug@@YAXPB_WZZ			; log_debug
; Line 199
	push	ebx
	call	DWORD PTR __imp__free
	add	esp, 12					; 0000000cH
	pop	esi
	pop	ebx
; Line 259
	mov	esp, ebp
	pop	ebp
	ret	0
$LN15@load_svn_i:
; File i:\study\filescan\filescan\util.c
; Line 27
	push	32					; 00000020H
; File i:\study\filescan\filescan\ignore.c
; Line 204
	mov	DWORD PTR _entry_len$[ebp], 0
; File i:\study\filescan\filescan\util.c
; Line 27
	call	DWORD PTR __imp__malloc
	mov	ebx, eax
	add	esp, 4
; Line 28
	test	ebx, ebx
	je	$LN47@load_svn_i
; File i:\study\filescan\filescan\ignore.c
; Line 212
	push	edi
	mov	edi, DWORD PTR __imp__fwscanf
	lea	eax, DWORD PTR _key_len$[ebp]
	push	eax
	push	OFFSET ??_C@_1O@JIECKIAG@?$AAK?$AA?5?$AA?$CF?$AAz?$AAu?$AA?6?$AA?$AA@
	push	esi
	mov	DWORD PTR _key_len$[ebp], 0
	call	edi
	add	esp, 12					; 0000000cH
	cmp	eax, 1
	jne	$LN45@load_svn_i
$LL14@load_svn_i:
; Line 213
	mov	eax, DWORD PTR _key_len$[ebp]
	inc	eax
; File i:\study\filescan\filescan\util.c
; Line 32
	push	eax
	push	ebx
	call	DWORD PTR __imp__realloc
	mov	ebx, eax
	add	esp, 8
	mov	DWORD PTR _key$1$[ebp], ebx
; Line 33
	test	ebx, ebx
	je	$LN47@load_svn_i
; File i:\study\filescan\filescan\ignore.c
; Line 214
	push	esi
	push	DWORD PTR _key_len$[ebp]
	push	1
	push	ebx
	call	DWORD PTR __imp__fread
; Line 215
	mov	ecx, DWORD PTR _key_len$[ebp]
	mov	esi, eax
	xor	eax, eax
	mov	WORD PTR [ebx+ecx*2], ax
; Line 216
	lea	eax, DWORD PTR _entry_len$[ebp]
	push	eax
	push	OFFSET ??_C@_1BA@IALJGMIP@?$AA?6?$AAV?$AA?5?$AA?$CF?$AAz?$AAu?$AA?6?$AA?$AA@
	push	DWORD PTR _fp$1$[ebp]
	call	edi
	add	esp, 28					; 0000001cH
; Line 217
	cmp	eax, 1
	jne	$LN32@load_svn_i
; Line 222
	push	esi
	push	ebx
	push	OFFSET ??_C@_1BG@MHJCCDCA@?$AAs?$AAv?$AAn?$AA?3?$AAi?$AAg?$AAn?$AAo?$AAr?$AAe?$AA?$AA@
	call	DWORD PTR __imp__wcsncmp
	add	esp, 12					; 0000000cH
	test	eax, eax
	je	SHORT $LN10@load_svn_i
; Line 223
	push	DWORD PTR _entry_len$[ebp]
	push	OFFSET ??_C@_1BG@MHJCCDCA@?$AAs?$AAv?$AAn?$AA?3?$AAi?$AAg?$AAn?$AAo?$AAr?$AAe?$AA?$AA@
	push	ebx
	push	OFFSET ??_C@_1EK@CEJOLOEB@?$AAk?$AAe?$AAy?$AA?5?$AAi?$AAs?$AA?5?$AA?$CF?$AAs?$AA?0?$AA?5?$AAn?$AAo?$AAt?$AA?5?$AA?$CF?$AAs?$AA?4?$AA?5?$AAs?$AAk?$AAi?$AAp?$AAp?$AAi?$AAn?$AAg?$AA?5?$AA?$CF?$AAu?$AA?5?$AAb@
	call	?log_debug@@YAXPB_WZZ			; log_debug
; Line 225
	mov	eax, DWORD PTR _entry_len$[ebp]
	mov	esi, DWORD PTR _fp$1$[ebp]
	inc	eax
	push	1
	push	eax
	push	esi
	call	DWORD PTR __imp__fseek
	lea	eax, DWORD PTR _key_len$[ebp]
	push	eax
	push	OFFSET ??_C@_1O@JIECKIAG@?$AAK?$AA?5?$AA?$CF?$AAz?$AAu?$AA?6?$AA?$AA@
	push	esi
	call	edi
	add	esp, 40					; 00000028H
	cmp	eax, 1
	je	$LL14@load_svn_i
$LN45@load_svn_i:
	mov	edi, DWORD PTR _dir_prop_base$[ebp]
$cleanup$52:
; Line 256
	push	edi
	mov	edi, DWORD PTR __imp__free
	call	edi
; Line 257
	push	ebx
	call	edi
; Line 258
	push	esi
	call	DWORD PTR __imp__fclose
	add	esp, 12					; 0000000cH
	pop	edi
	pop	esi
	pop	ebx
; Line 259
	mov	esp, ebp
	pop	ebp
	ret	0
$LN10@load_svn_i:
; Line 229
	mov	edi, DWORD PTR _entry_len$[ebp]
	lea	eax, DWORD PTR [edi+1]
; File i:\study\filescan\filescan\util.c
; Line 27
	push	eax
	call	DWORD PTR __imp__malloc
	mov	ebx, eax
	add	esp, 4
	mov	DWORD PTR _ptr$1$[ebp], ebx
; Line 28
	test	ebx, ebx
	je	$LN49@load_svn_i
; File i:\study\filescan\filescan\ignore.c
; Line 230
	mov	esi, DWORD PTR _fp$1$[ebp]
	push	esi
	push	edi
	push	1
	push	ebx
	call	DWORD PTR __imp__fread
; Line 232
	push	ebx
	push	OFFSET ??_C@_1BE@BLLLEGOK@?$AAe?$AAn?$AAt?$AAr?$AAy?$AA?3?$AA?5?$AA?$CF?$AAs?$AA?$AA@
	lea	edi, DWORD PTR [ebx+eax*2]
	xor	eax, eax
	mov	DWORD PTR tv310[ebp], edi
	mov	WORD PTR [edi], ax
	call	?log_debug@@YAXPB_WZZ			; log_debug
; Line 238
	mov	ecx, ebx
; Line 239
	lea	edx, DWORD PTR [ebx+2]
	add	esp, 24					; 00000018H
	mov	DWORD PTR _patterns$1$[ebp], ecx
$LL43@load_svn_i:
	mov	ax, WORD PTR [ebx]
	add	ebx, 2
	test	ax, ax
	jne	SHORT $LL43@load_svn_i
; Line 240
	mov	eax, DWORD PTR _ptr$1$[ebp]
	sub	ebx, edx
	sar	ebx, 1
	cmp	WORD PTR [eax], 0
	je	SHORT $LN6@load_svn_i
	npad	7
$LL7@load_svn_i:
	cmp	ecx, edi
	jae	SHORT $LN44@load_svn_i
; Line 241
	xor	esi, esi
	test	ebx, ebx
	je	SHORT $LN1@load_svn_i
	npad	6
$LL5@load_svn_i:
; Line 242
	cmp	WORD PTR [ecx+esi*2], 10		; 0000000aH
	je	SHORT $LN33@load_svn_i
; Line 241
	inc	esi
	cmp	esi, ebx
	jb	SHORT $LL5@load_svn_i
$LN33@load_svn_i:
; Line 246
	test	esi, esi
	je	SHORT $LN1@load_svn_i
; Line 247
	mov	edx, esi
	call	?ag_strndup@@YAPA_WPB_WI@Z		; ag_strndup
; Line 248
	mov	ecx, DWORD PTR _ig$1$[ebp]
	mov	edi, eax
	mov	edx, edi
	call	?add_ignore_pattern@@YAXPAUignores@@PB_W@Z ; add_ignore_pattern
; Line 249
	push	edi
	call	DWORD PTR __imp__free
	mov	ecx, DWORD PTR _patterns$1$[ebp]
	add	esp, 4
	mov	edi, DWORD PTR tv310[ebp]
$LN1@load_svn_i:
; Line 251
	lea	ecx, DWORD PTR [ecx+esi*2]
; Line 252
	or	eax, -1
	add	ecx, 2
	sub	eax, esi
	add	ebx, eax
	mov	DWORD PTR _patterns$1$[ebp], ecx
	cmp	WORD PTR [ecx], 0
	jne	SHORT $LL7@load_svn_i
$LN44@load_svn_i:
	mov	esi, DWORD PTR _fp$1$[ebp]
	mov	eax, DWORD PTR _ptr$1$[ebp]
$LN6@load_svn_i:
; Line 254
	push	eax
	call	DWORD PTR __imp__free
	mov	ebx, DWORD PTR _key$1$[ebp]
	add	esp, 4
	jmp	$LN45@load_svn_i
$LN32@load_svn_i:
; Line 218
	mov	edi, DWORD PTR _dir_prop_base$[ebp]
	push	eax
	push	edi
	push	OFFSET ??_C@_1JA@PPOCPNJK@?$AAU?$AAn?$AAa?$AAb?$AAl?$AAe?$AA?5?$AAt?$AAo?$AA?5?$AAp?$AAa?$AAr?$AAs?$AAe?$AA?5?$AAs?$AAv?$AAn?$AAi?$AAg?$AAn?$AAo?$AAr?$AAe?$AA?5?$AAf?$AAi?$AAl?$AAe?$AA?5?$AA?$CF@
	call	?log_debug@@YAXPB_WZZ			; log_debug
; Line 219
	mov	esi, DWORD PTR _fp$1$[ebp]
	add	esp, 12					; 0000000cH
	jmp	$cleanup$52
$LN47@load_svn_i:
; File i:\study\filescan\filescan\util.c
; Line 28
	push	OFFSET ??_C@_1DE@PGDGFCEA@?$AAM?$AAe?$AAm?$AAo?$AAr?$AAy?$AA?5?$AAa?$AAl?$AAl?$AAo?$AAc?$AAa?$AAt?$AAi?$AAo?$AAn?$AA?5?$AAf?$AAa?$AAi?$AAl?$AAe?$AAd?$AA?4?$AA?$AA@
	call	?die@@YAXPB_WZZ				; die
$LN50@load_svn_i:
$LN49@load_svn_i:
	push	OFFSET ??_C@_1DE@PGDGFCEA@?$AAM?$AAe?$AAm?$AAo?$AAr?$AAy?$AA?5?$AAa?$AAl?$AAl?$AAo?$AAc?$AAa?$AAt?$AAi?$AAo?$AAn?$AA?5?$AAf?$AAa?$AAi?$AAl?$AAe?$AAd?$AA?4?$AA?$AA@
	call	?die@@YAXPB_WZZ				; die
$LN51@load_svn_i:
$LN46@load_svn_i:
	int	3
?load_svn_ignore_patterns@@YAXPAUignores@@PB_W@Z ENDP	; load_svn_ignore_patterns
_TEXT	ENDS
; Function compile flags: /Ogtp
;	COMDAT ?ackmate_dir_match@@YAHPB_W@Z
_TEXT	SEGMENT
?ackmate_dir_match@@YAHPB_W@Z PROC			; ackmate_dir_match, COMDAT
; _dir_name$ = ecx
; File i:\study\filescan\filescan\ignore.c
; Line 262
	cmp	DWORD PTR ?opts@@3Ucli_options@@A+4, 0
	mov	edx, ecx
	push	edi
	jne	SHORT $LN1@ackmate_di
; Line 263
	xor	eax, eax
; Line 267
	pop	edi
	ret	0
$LN1@ackmate_di:
; Line 266
	mov	eax, edx
	lea	edi, DWORD PTR [eax+2]
$LL4@ackmate_di:
	mov	cx, WORD PTR [eax]
	add	eax, 2
	test	cx, cx
	jne	SHORT $LL4@ackmate_di
	push	0
	push	0
	push	ecx
	mov	ecx, DWORD PTR ?opts@@3Ucli_options@@A+4
	sub	eax, edi
	sar	eax, 1
	push	0
	push	eax
	push	edx
	xor	edx, edx
	call	_pcre16_exec
	add	esp, 24					; 00000018H
; Line 267
	pop	edi
	ret	0
?ackmate_dir_match@@YAHPB_W@Z ENDP			; ackmate_dir_match
_TEXT	ENDS
; Function compile flags: /Ogtp
;	COMDAT ?path_ignore_search@@YAHPBUignores@@PB_W1@Z
_TEXT	SEGMENT
tv387 = -8						; size = 4
_temp$ = -4						; size = 4
_filename$ = 8						; size = 4
?path_ignore_search@@YAHPBUignores@@PB_W1@Z PROC	; path_ignore_search, COMDAT
; _ig$ = ecx
; _path$ = edx
; File i:\study\filescan\filescan\ignore.c
; Line 270
	push	ebp
	mov	ebp, esp
	sub	esp, 8
	push	ebx
	push	esi
	mov	esi, ecx
; Line 275
	mov	ecx, DWORD PTR _filename$[ebp]
	push	edi
	mov	edi, edx
	push	DWORD PTR [esi+12]
	mov	ebx, DWORD PTR [esi+8]
	mov	edx, ebx
	push	0
	call	?binary_search@@YAHPB_WPAPA_WHH@Z	; binary_search
	add	esp, 8
; Line 276
	test	eax, eax
	js	SHORT $LN20@path_ignor
; Line 277
	push	DWORD PTR [ebx+eax*4]
	mov	eax, DWORD PTR _filename$[ebp]
	push	eax
	push	OFFSET ??_C@_1GO@MFIIIHKO@?$AAf?$AAi?$AAl?$AAe?$AA?5?$AA?$CF?$AAs?$AA?5?$AAi?$AAg?$AAn?$AAo?$AAr?$AAe?$AAd?$AA?5?$AAb?$AAe?$AAc?$AAa?$AAu?$AAs?$AAe?$AA?5?$AAn?$AAa?$AAm?$AAe?$AA?5?$AAm?$AAa?$AAt@
	call	?log_debug@@YAXPB_WZZ			; log_debug
	add	esp, 12					; 0000000cH
; Line 278
	mov	eax, 1
; Line 337
	pop	edi
	pop	esi
	pop	ebx
	mov	esp, ebp
	pop	ebp
	ret	0
$LN20@path_ignor:
; Line 281
	cmp	WORD PTR [edi], 46			; 0000002eH
	jne	SHORT $LN24@path_ignor
	add	edi, 2
$LN24@path_ignor:
	mov	eax, DWORD PTR _filename$[ebp]
	push	eax
	push	edi
	lea	eax, DWORD PTR _temp$[ebp]
	push	OFFSET ??_C@_1M@BHHLEAOO@?$AA?$CF?$AAs?$AA?1?$AA?$CF?$AAs?$AA?$AA@
	push	eax
	call	?ag_asprintf@@YAXPAPA_WPB_WZZ		; ag_asprintf
; Line 283
	push	DWORD PTR [esi+52]
	mov	ebx, DWORD PTR _temp$[ebp]
	push	DWORD PTR [esi+48]
	push	ebx
	call	DWORD PTR __imp__wcsncmp
	add	esp, 28					; 0000001cH
	test	eax, eax
	jne	$LN6@path_ignor
; Line 284
	mov	eax, DWORD PTR [esi+52]
; Line 285
	cmp	WORD PTR [ebx+eax*2], 47		; 0000002fH
	lea	edi, DWORD PTR [ebx+eax*2]
	jne	SHORT $LN18@path_ignor
; Line 286
	add	edi, 2
$LN18@path_ignor:
; Line 288
	push	DWORD PTR [esi+12]
	mov	ebx, DWORD PTR [esi+8]
	mov	ecx, edi
	push	0
	mov	edx, ebx
	call	?binary_search@@YAHPB_WPAPA_WHH@Z	; binary_search
	add	esp, 8
; Line 289
	test	eax, eax
	js	SHORT $LN17@path_ignor
; Line 290
	push	DWORD PTR [ebx+eax*4]
	mov	esi, DWORD PTR _temp$[ebp]
	push	esi
	push	OFFSET ??_C@_1GO@MFIIIHKO@?$AAf?$AAi?$AAl?$AAe?$AA?5?$AA?$CF?$AAs?$AA?5?$AAi?$AAg?$AAn?$AAo?$AAr?$AAe?$AAd?$AA?5?$AAb?$AAe?$AAc?$AAa?$AAu?$AAs?$AAe?$AA?5?$AAn?$AAa?$AAm?$AAe?$AA?5?$AAm?$AAa?$AAt@
	call	?log_debug@@YAXPB_WZZ			; log_debug
	add	esp, 12					; 0000000cH
; Line 291
	push	esi
	call	DWORD PTR __imp__free
; Line 292
	mov	eax, 1
; Line 335
	add	esp, 4
; Line 337
	pop	edi
	pop	esi
	pop	ebx
	mov	esp, ebp
	pop	ebp
	ret	0
$LN17@path_ignor:
; Line 295
	push	DWORD PTR [esi+20]
	mov	ebx, DWORD PTR [esi+16]
	mov	ecx, edi
	push	0
	mov	edx, ebx
	call	?binary_search@@YAHPB_WPAPA_WHH@Z	; binary_search
	add	esp, 8
; Line 296
	test	eax, eax
	js	SHORT $LN16@path_ignor
; Line 297
	push	DWORD PTR [ebx+eax*4]
	push	edi
	push	OFFSET ??_C@_1HK@HPLKHPEG@?$AAf?$AAi?$AAl?$AAe?$AA?5?$AA?$CF?$AAs?$AA?5?$AAi?$AAg?$AAn?$AAo?$AAr?$AAe?$AAd?$AA?5?$AAb?$AAe?$AAc?$AAa?$AAu?$AAs?$AAe?$AA?5?$AAn?$AAa?$AAm?$AAe?$AA?5?$AAm?$AAa?$AAt@
$LN49@path_ignor:
	call	?log_debug@@YAXPB_WZZ			; log_debug
; Line 298
	mov	esi, DWORD PTR _temp$[ebp]
	add	esp, 12					; 0000000cH
	push	esi
$LN50@path_ignor:
	call	DWORD PTR __imp__free
; Line 299
	mov	eax, 1
; Line 335
	add	esp, 4
; Line 337
	pop	edi
	pop	esi
	pop	ebx
	mov	esp, ebp
	pop	ebp
	ret	0
$LN16@path_ignor:
; Line 302
	xor	ebx, ebx
	cmp	DWORD PTR [esi+12], ebx
	jbe	SHORT $LN13@path_ignor
$LL15@path_ignor:
; Line 303
	mov	eax, DWORD PTR [esi+8]
; File c:\program files (x86)\microsoft visual studio 12.0\vc\include\string.h
; Line 391
	push	DWORD PTR [eax+ebx*4]
	push	edi
	call	DWORD PTR __imp__wcsstr
; File i:\study\filescan\filescan\ignore.c
; Line 303
	mov	edx, eax
; File c:\program files (x86)\microsoft visual studio 12.0\vc\include\string.h
; Line 391
	add	esp, 8
; File i:\study\filescan\filescan\ignore.c
; Line 304
	cmp	edx, edi
	je	SHORT $LN11@path_ignor
	test	edx, edx
	je	SHORT $LN10@path_ignor
	cmp	WORD PTR [edx-2], 47			; 0000002fH
	jne	SHORT $LN10@path_ignor
$LN11@path_ignor:
; Line 305
	mov	eax, DWORD PTR [esi+8]
	mov	ecx, DWORD PTR [eax+ebx*4]
	lea	eax, DWORD PTR [ecx+2]
	mov	DWORD PTR tv387[ebp], eax
$LL45@path_ignor:
	mov	ax, WORD PTR [ecx]
	add	ecx, 2
	test	ax, ax
	jne	SHORT $LL45@path_ignor
	sub	ecx, DWORD PTR tv387[ebp]
	sar	ecx, 1
; Line 306
	movzx	eax, WORD PTR [edx+ecx*2]
	test	ax, ax
	je	$LN33@path_ignor
	cmp	eax, 47					; 0000002fH
	je	$LN33@path_ignor
$LN10@path_ignor:
; Line 312
	mov	eax, DWORD PTR [esi+8]
	push	edi
	push	DWORD PTR [eax+ebx*4]
	push	OFFSET ??_C@_1EC@HCOGJIDE@?$AAp?$AAa?$AAt?$AAt?$AAe?$AAr?$AAn?$AA?5?$AA?$CF?$AAs?$AA?5?$AAd?$AAo?$AAe?$AAs?$AAn?$AA?8?$AAt?$AA?5?$AAm?$AAa?$AAt?$AAc?$AAh?$AA?5?$AAp?$AAa?$AAt?$AAh?$AA?5?$AA?$CF?$AAs@
	call	?log_debug@@YAXPB_WZZ			; log_debug
	inc	ebx
	add	esp, 12					; 0000000cH
	cmp	ebx, DWORD PTR [esi+12]
	jb	SHORT $LL15@path_ignor
$LN13@path_ignor:
; Line 315
	xor	ebx, ebx
	cmp	DWORD PTR [esi+36], ebx
	jbe	SHORT $LN47@path_ignor
	npad	4
$LL8@path_ignor:
; Line 316
	mov	eax, DWORD PTR [esi+32]
	push	DWORD PTR [eax+ebx*4]
	push	edi
	call	DWORD PTR __imp__PathMatchSpecW@8
	test	eax, eax
; Line 321
	mov	eax, DWORD PTR [esi+32]
	jne	$LN34@path_ignor
	push	edi
	push	DWORD PTR [eax+ebx*4]
	push	OFFSET ??_C@_1EO@ILIPEHCH@?$AAp?$AAa?$AAt?$AAt?$AAe?$AAr?$AAn?$AA?5?$AA?$CF?$AAs?$AA?5?$AAd?$AAo?$AAe?$AAs?$AAn?$AA?8?$AAt?$AA?5?$AAm?$AAa?$AAt?$AAc?$AAh?$AA?5?$AAs?$AAl?$AAa?$AAs?$AAh?$AA?5?$AAf@
	call	?log_debug@@YAXPB_WZZ			; log_debug
	inc	ebx
	add	esp, 12					; 0000000cH
	cmp	ebx, DWORD PTR [esi+36]
	jb	SHORT $LL8@path_ignor
$LN47@path_ignor:
	mov	ebx, DWORD PTR _temp$[ebp]
$LN6@path_ignor:
; Line 325
	xor	edi, edi
	cmp	DWORD PTR [esi+28], edi
	jbe	SHORT $LN2@path_ignor
	npad	7
$LL4@path_ignor:
; Line 326
	mov	eax, DWORD PTR [esi+24]
	push	DWORD PTR [eax+edi*4]
	push	DWORD PTR _filename$[ebp]
	call	DWORD PTR __imp__PathMatchSpecW@8
	test	eax, eax
; Line 331
	mov	eax, DWORD PTR [esi+24]
	jne	SHORT $LN35@path_ignor
	push	DWORD PTR _filename$[ebp]
	push	DWORD PTR [eax+edi*4]
	push	OFFSET ??_C@_1EC@LODMBMK@?$AAp?$AAa?$AAt?$AAt?$AAe?$AAr?$AAn?$AA?5?$AA?$CF?$AAs?$AA?5?$AAd?$AAo?$AAe?$AAs?$AAn?$AA?8?$AAt?$AA?5?$AAm?$AAa?$AAt?$AAc?$AAh?$AA?5?$AAf?$AAi?$AAl?$AAe?$AA?5?$AA?$CF?$AAs@
	call	?log_debug@@YAXPB_WZZ			; log_debug
	inc	edi
	add	esp, 12					; 0000000cH
	cmp	edi, DWORD PTR [esi+28]
	jb	SHORT $LL4@path_ignor
$LN2@path_ignor:
; Line 262
	mov	ecx, DWORD PTR ?opts@@3Ucli_options@@A+4
	test	ecx, ecx
	jne	SHORT $LN27@path_ignor
; Line 335
	push	ebx
; Line 263
	xor	esi, esi
; Line 335
	call	DWORD PTR __imp__free
; Line 336
	mov	eax, esi
	add	esp, 4
; Line 337
	pop	edi
	pop	esi
	pop	ebx
	mov	esp, ebp
	pop	ebp
	ret	0
$LN33@path_ignor:
; Line 307
	mov	eax, DWORD PTR [esi+8]
	push	DWORD PTR [eax+ebx*4]
	push	edi
	push	OFFSET ??_C@_1GO@HMJKNIHE@?$AAf?$AAi?$AAl?$AAe?$AA?5?$AA?$CF?$AAs?$AA?5?$AAi?$AAg?$AAn?$AAo?$AAr?$AAe?$AAd?$AA?5?$AAb?$AAe?$AAc?$AAa?$AAu?$AAs?$AAe?$AA?5?$AAp?$AAa?$AAt?$AAh?$AA?5?$AAs?$AAo?$AAm@
; Line 309
	jmp	$LN49@path_ignor
$LN34@path_ignor:
; Line 317
	push	DWORD PTR [eax+ebx*4]
	push	edi
	push	OFFSET ??_C@_1HI@GOIPAOCN@?$AAf?$AAi?$AAl?$AAe?$AA?5?$AA?$CF?$AAs?$AA?5?$AAi?$AAg?$AAn?$AAo?$AAr?$AAe?$AAd?$AA?5?$AAb?$AAe?$AAc?$AAa?$AAu?$AAs?$AAe?$AA?5?$AAn?$AAa?$AAm?$AAe?$AA?5?$AAm?$AAa?$AAt@
; Line 319
	jmp	$LN49@path_ignor
$LN35@path_ignor:
; Line 327
	push	DWORD PTR [eax+edi*4]
	push	DWORD PTR _filename$[ebp]
	push	OFFSET ??_C@_1GM@BIBIOOOE@?$AAf?$AAi?$AAl?$AAe?$AA?5?$AA?$CF?$AAs?$AA?5?$AAi?$AAg?$AAn?$AAo?$AAr?$AAe?$AAd?$AA?5?$AAb?$AAe?$AAc?$AAa?$AAu?$AAs?$AAe?$AA?5?$AAn?$AAa?$AAm?$AAe?$AA?5?$AAm?$AAa?$AAt@
	call	?log_debug@@YAXPB_WZZ			; log_debug
	add	esp, 12					; 0000000cH
; Line 328
	push	ebx
; Line 329
	jmp	$LN50@path_ignor
$LN27@path_ignor:
; Line 266
	mov	edx, ebx
	lea	esi, DWORD PTR [edx+2]
	npad	5
$LL46@path_ignor:
	mov	ax, WORD PTR [edx]
	add	edx, 2
	test	ax, ax
	jne	SHORT $LL46@path_ignor
	push	0
	push	0
	push	ecx
	sub	edx, esi
	sar	edx, 1
	push	0
	push	edx
	push	ebx
	xor	edx, edx
	call	_pcre16_exec
	add	esp, 24					; 00000018H
	mov	esi, eax
; Line 335
	push	ebx
	call	DWORD PTR __imp__free
	add	esp, 4
; Line 336
	mov	eax, esi
; Line 337
	pop	edi
	pop	esi
	pop	ebx
	mov	esp, ebp
	pop	ebp
	ret	0
?path_ignore_search@@YAHPBUignores@@PB_W1@Z ENDP	; path_ignore_search
_TEXT	ENDS
; Function compile flags: /Ogtp
;	COMDAT ?filename_filter@@YAHPB_WPBUdirent@@PAX@Z
_TEXT	SEGMENT
_ig$1$ = -88						; size = 4
_path$GSCopy$1$ = -84					; size = 4
_extension$1$ = -80					; size = 4
_full_path$1 = -80					; size = 4
_base_path$1$ = -76					; size = 4
tv433 = -76						; size = 4
_path_start$1$ = -72					; size = 4
_base_path_len$1$ = -68					; size = 4
_temp$ = -68						; size = 4
_filename_len$1$ = -64					; size = 4
_full_path$2 = -64					; size = 4
_dir$GSCopy$1$ = -60					; size = 4
_s$3 = -56						; size = 48
_s$4 = -56						; size = 48
__$ArrayPad$ = -4					; size = 4
_path$ = 8						; size = 4
_dir$ = 12						; size = 4
_baton$ = 16						; size = 4
?filename_filter@@YAHPB_WPBUdirent@@PAX@Z PROC		; filename_filter, COMDAT
; File i:\study\filescan\filescan\ignore.c
; Line 340
	push	ebp
	mov	ebp, esp
	and	esp, -8					; fffffff8H
	sub	esp, 92					; 0000005cH
	mov	eax, DWORD PTR ___security_cookie
	xor	eax, esp
	mov	DWORD PTR __$ArrayPad$[esp+92], eax
	mov	eax, DWORD PTR _path$[ebp]
	mov	ecx, DWORD PTR _baton$[ebp]
	mov	DWORD PTR _path$GSCopy$1$[esp+92], eax
	mov	eax, DWORD PTR _dir$[ebp]
	push	ebx
	push	esi
	push	edi
; Line 341
	mov	ebx, DWORD PTR [eax]
; Line 346
	mov	esi, ebx
	mov	DWORD PTR _dir$GSCopy$1$[esp+104], eax
	lea	edx, DWORD PTR [esi+2]
	npad	1
$LL50@filename_f:
	mov	ax, WORD PTR [esi]
	add	esi, 2
	test	ax, ax
	jne	SHORT $LL50@filename_f
; Line 351
	mov	eax, DWORD PTR [ecx+4]
	sub	esi, edx
	mov	edi, DWORD PTR [ecx]
	sar	esi, 1
; Line 356
	cmp	DWORD PTR ?opts@@3Ucli_options@@A+168, 0
	mov	DWORD PTR _base_path$1$[esp+104], eax
	mov	eax, DWORD PTR [ecx+8]
	mov	ecx, DWORD PTR _path$GSCopy$1$[esp+104]
	mov	DWORD PTR _filename_len$1$[esp+104], esi
	mov	DWORD PTR _ig$1$[esp+104], edi
	mov	DWORD PTR _base_path_len$1$[esp+104], eax
	mov	DWORD PTR _path_start$1$[esp+104], ecx
	jne	SHORT $LN22@filename_f
	cmp	WORD PTR [ebx], 46			; 0000002eH
	je	$LN36@filename_f
$LN22@filename_f:
; Line 360
	mov	eax, DWORD PTR ?evil_hardcoded_ignore_files@@3PAPB_WA
	xor	esi, esi
	test	eax, eax
	je	SHORT $LN19@filename_f
	npad	3
$LL21@filename_f:
; Line 361
	mov	ecx, ebx
$LL51@filename_f:
	mov	dx, WORD PTR [ecx]
	cmp	dx, WORD PTR [eax]
	jne	SHORT $LN52@filename_f
	test	dx, dx
	je	SHORT $LN53@filename_f
	mov	dx, WORD PTR [ecx+2]
	cmp	dx, WORD PTR [eax+2]
	jne	SHORT $LN52@filename_f
	add	ecx, 4
	add	eax, 4
	test	dx, dx
	jne	SHORT $LL51@filename_f
$LN53@filename_f:
	xor	eax, eax
	jmp	SHORT $LN54@filename_f
$LN52@filename_f:
	sbb	eax, eax
	or	eax, 1
$LN54@filename_f:
	test	eax, eax
	je	$LN36@filename_f
; Line 360
	mov	eax, DWORD PTR ?evil_hardcoded_ignore_files@@3PAPB_WA[esi*4+4]
	inc	esi
	test	eax, eax
	jne	SHORT $LL21@filename_f
$LN19@filename_f:
; File i:\study\filescan\filescan\util.c
; Line 467
	push	ebx
	push	DWORD PTR _path$GSCopy$1$[esp+108]
	lea	eax, DWORD PTR _full_path$1[esp+112]
	push	OFFSET ??_C@_1M@BHHLEAOO@?$AA?$CF?$AAs?$AA?1?$AA?$CF?$AAs?$AA?$AA@
	push	eax
	call	?ag_asprintf@@YAXPAPA_WPB_WZZ		; ag_asprintf
; Line 468
	mov	esi, DWORD PTR _full_path$1[esp+120]
	lea	eax, DWORD PTR _s$4[esp+120]
	push	eax
	push	esi
	call	DWORD PTR __imp___wstat64i32
	add	esp, 24					; 00000018H
; Line 469
	push	esi
	test	eax, eax
	je	$LN27@filename_f
	call	DWORD PTR __imp__free
	add	esp, 4
$LN16@filename_f:
; File i:\study\filescan\filescan\ignore.c
; Line 376
	cmp	DWORD PTR ?opts@@3Ucli_options@@A+152, 0
	je	SHORT $LN15@filename_f
	cmp	DWORD PTR ?opts@@3Ucli_options@@A+108, 0
	je	$LN56@filename_f
$LN15@filename_f:
; Line 380
	mov	esi, DWORD PTR _base_path$1$[esp+104]
	xor	edx, edx
	mov	ecx, DWORD PTR _path$GSCopy$1$[esp+104]
	mov	ax, WORD PTR [esi]
	cmp	ax, WORD PTR [ecx]
	jne	SHORT $LN12@filename_f
	mov	edi, DWORD PTR _base_path_len$1$[esp+104]
	sub	esi, ecx
$LL14@filename_f:
	cmp	edx, edi
	jae	SHORT $LN55@filename_f
; Line 382
	lea	eax, DWORD PTR [ecx+4]
	inc	edx
	add	ecx, 2
	mov	DWORD PTR _path_start$1$[esp+104], eax
	mov	ax, WORD PTR [esi+ecx]
	cmp	ax, WORD PTR [ecx]
	je	SHORT $LL14@filename_f
$LN55@filename_f:
	mov	edi, DWORD PTR _ig$1$[esp+104]
$LN12@filename_f:
; Line 384
	push	ebx
	push	DWORD PTR _path_start$1$[esp+108]
	push	OFFSET ??_C@_1DE@DCMKCCII@?$AAp?$AAa?$AAt?$AAh?$AA_?$AAs?$AAt?$AAa?$AAr?$AAt?$AA?5?$AA?$CF?$AAs?$AA?5?$AAf?$AAi?$AAl?$AAe?$AAn?$AAa?$AAm?$AAe?$AA?5?$AA?$CF?$AAs?$AA?$AA@
	call	?log_debug@@YAXPB_WZZ			; log_debug
	add	esp, 12					; 0000000cH
; Line 386
	push	46					; 0000002eH
	push	ebx
	call	DWORD PTR __imp__wcsrchr
	mov	esi, eax
	mov	DWORD PTR _extension$1$[esp+112], eax
	add	esp, 8
; Line 387
	test	esi, esi
	je	SHORT $LN10@filename_f
; Line 388
	lea	eax, DWORD PTR [esi+2]
	xor	esi, esi
	cmp	WORD PTR [eax], si
	cmovne	esi, eax
	mov	DWORD PTR _extension$1$[esp+104], esi
$LN10@filename_f:
; Line 397
	test	edi, edi
	je	$LN7@filename_f
	mov	edi, DWORD PTR _filename_len$1$[esp+104]
	add	edi, edi
	mov	DWORD PTR tv433[esp+104], edi
	npad	3
$LL8@filename_f:
; Line 398
	push	2
	push	OFFSET ??_C@_15ILMKIFHC@?$AA?4?$AA?1?$AA?$AA@
	push	ebx
	call	DWORD PTR __imp__wcsncmp
	add	esp, 12					; 0000000cH
	test	eax, eax
	jne	SHORT $LN6@filename_f
; Line 399
	add	ebx, 2
; Line 400
	sub	edi, 2
	mov	DWORD PTR tv433[esp+104], edi
$LN6@filename_f:
; Line 403
	test	esi, esi
	je	SHORT $LN4@filename_f
; Line 404
	mov	eax, DWORD PTR _ig$1$[esp+104]
	mov	ecx, esi
	push	DWORD PTR [eax+4]
	mov	edx, DWORD PTR [eax]
	push	0
	call	?binary_search@@YAHPB_WPAPA_WHH@Z	; binary_search
	mov	ecx, eax
	add	esp, 8
; Line 405
	test	ecx, ecx
	jns	$LN37@filename_f
$LN4@filename_f:
; Line 411
	mov	edx, DWORD PTR _path_start$1$[esp+104]
	mov	ecx, DWORD PTR _ig$1$[esp+104]
	push	ebx
	call	?path_ignore_search@@YAHPBUignores@@PB_W1@Z ; path_ignore_search
	add	esp, 4
	test	eax, eax
	jne	SHORT $LN36@filename_f
; File i:\study\filescan\filescan\util.c
; Line 427
	mov	eax, DWORD PTR _dir$GSCopy$1$[esp+104]
	push	DWORD PTR [eax]
	lea	eax, DWORD PTR _full_path$2[esp+108]
	push	DWORD PTR _path$GSCopy$1$[esp+108]
	push	OFFSET ??_C@_1M@BHHLEAOO@?$AA?$CF?$AAs?$AA?1?$AA?$CF?$AAs?$AA?$AA@
	push	eax
	call	?ag_asprintf@@YAXPAPA_WPB_WZZ		; ag_asprintf
; Line 428
	mov	esi, DWORD PTR _full_path$2[esp+120]
	lea	eax, DWORD PTR _s$3[esp+120]
	push	eax
	push	esi
	call	DWORD PTR __imp___wstat64i32
	add	esp, 24					; 00000018H
; Line 429
	push	esi
	test	eax, eax
	je	SHORT $LN30@filename_f
	call	DWORD PTR __imp__free
	add	esp, 4
; Line 430
	jmp	$LN1@filename_f
$LN27@filename_f:
; Line 472
	call	DWORD PTR __imp__free
; Line 473
	mov	eax, DWORD PTR _s$4[esp+114]
	xor	ecx, ecx
	and	eax, 61440				; 0000f000H
	add	esp, 4
	cmp	eax, 4096				; 00001000H
	sete	cl
; File i:\study\filescan\filescan\ignore.c
; Line 371
	test	ecx, ecx
	je	$LN16@filename_f
; Line 372
	push	DWORD PTR _path$GSCopy$1$[esp+104]
	push	OFFSET ??_C@_1EK@PPMMLJEH@?$AA?$CF?$AAs?$AA?5?$AAi?$AAg?$AAn?$AAo?$AAr?$AAe?$AAd?$AA?5?$AAb?$AAe?$AAc?$AAa?$AAu?$AAs?$AAe?$AA?5?$AAi?$AAt?$AA?8?$AAs?$AA?5?$AAa?$AA?5?$AAn?$AAa?$AAm?$AAe?$AAd?$AA?5@
	call	?log_debug@@YAXPB_WZZ			; log_debug
	add	esp, 8
$LN36@filename_f:
; Line 373
	xor	eax, eax
; Line 428
	pop	edi
	pop	esi
	pop	ebx
	mov	ecx, DWORD PTR __$ArrayPad$[esp+92]
	xor	ecx, esp
	call	@__security_check_cookie@4
	mov	esp, ebp
	pop	ebp
	ret	0
$LN30@filename_f:
; File i:\study\filescan\filescan\util.c
; Line 432
	call	DWORD PTR __imp__free
; Line 433
	mov	eax, DWORD PTR _s$3[esp+114]
	xor	ecx, ecx
	and	eax, 61440				; 0000f000H
	add	esp, 4
	cmp	eax, 16384				; 00004000H
	sete	cl
; File i:\study\filescan\filescan\ignore.c
; Line 415
	test	ecx, ecx
	je	SHORT $LN1@filename_f
	cmp	WORD PTR [edi+ebx-2], 47		; 0000002fH
	je	SHORT $LN1@filename_f
; Line 416
	push	ebx
	lea	eax, DWORD PTR _temp$[esp+108]
	push	OFFSET ??_C@_17FOKMIMKD@?$AA?$CF?$AAs?$AA?1?$AA?$AA@
	push	eax
	call	?ag_asprintf@@YAXPAPA_WPB_WZZ		; ag_asprintf
; Line 417
	mov	edi, DWORD PTR _temp$[esp+116]
	add	esp, 12					; 0000000cH
	mov	edx, DWORD PTR _path_start$1$[esp+104]
	mov	ecx, DWORD PTR _ig$1$[esp+104]
	push	edi
	call	?path_ignore_search@@YAHPBUignores@@PB_W1@Z ; path_ignore_search
	add	esp, 4
	mov	esi, eax
; Line 418
	push	edi
	call	DWORD PTR __imp__free
	add	esp, 4
; Line 419
	test	esi, esi
	jne	SHORT $LN36@filename_f
	mov	edi, DWORD PTR tv433[esp+104]
$LN1@filename_f:
; Line 423
	mov	eax, DWORD PTR _ig$1$[esp+104]
	mov	eax, DWORD PTR [eax+56]
	mov	DWORD PTR _ig$1$[esp+104], eax
	test	eax, eax
	je	SHORT $LN7@filename_f
; Line 397
	mov	esi, DWORD PTR _extension$1$[esp+104]
	jmp	$LL8@filename_f
$LN37@filename_f:
; Line 406
	mov	eax, DWORD PTR _ig$1$[esp+104]
	mov	eax, DWORD PTR [eax]
	push	DWORD PTR [eax+ecx*4]
	push	ebx
	push	OFFSET ??_C@_1GE@FDADGLDO@?$AAf?$AAi?$AAl?$AAe?$AA?5?$AA?$CF?$AAs?$AA?5?$AAi?$AAg?$AAn?$AAo?$AAr?$AAe?$AAd?$AA?5?$AAb?$AAe?$AAc?$AAa?$AAu?$AAs?$AAe?$AA?5?$AAn?$AAa?$AAm?$AAe?$AA?5?$AAm?$AAa?$AAt@
	call	?log_debug@@YAXPB_WZZ			; log_debug
	add	esp, 12					; 0000000cH
; Line 407
	xor	eax, eax
; Line 428
	pop	edi
	pop	esi
	pop	ebx
	mov	ecx, DWORD PTR __$ArrayPad$[esp+92]
	xor	ecx, esp
	call	@__security_check_cookie@4
	mov	esp, ebp
	pop	ebp
	ret	0
$LN7@filename_f:
; Line 426
	push	ebx
	push	OFFSET ??_C@_1BO@IOBLBPP@?$AA?$CF?$AAs?$AA?5?$AAn?$AAo?$AAt?$AA?5?$AAi?$AAg?$AAn?$AAo?$AAr?$AAe?$AAd?$AA?$AA@
	call	?log_debug@@YAXPB_WZZ			; log_debug
	add	esp, 8
$LN56@filename_f:
; Line 428
	mov	ecx, DWORD PTR __$ArrayPad$[esp+104]
	mov	eax, 1
	pop	edi
	pop	esi
	pop	ebx
	xor	ecx, esp
	call	@__security_check_cookie@4
	mov	esp, ebp
	pop	ebp
	ret	0
?filename_filter@@YAHPB_WPBUdirent@@PAX@Z ENDP		; filename_filter
_TEXT	ENDS
END
