; Listing generated by Microsoft (R) Optimizing Compiler Version 18.00.31101.0 

	TITLE	I:\Study\filescan\filescan\lang.c
	.686P
	.XMM
	include listing.inc
	.model	flat

INCLUDELIB OLDNAMES

PUBLIC	??_C@_1BK@PPIADMO@?$AAa?$AAc?$AAt?$AAi?$AAo?$AAn?$AAs?$AAc?$AAr?$AAi?$AAp?$AAt?$AA?$AA@ ; `string'
PUBLIC	??_C@_15PEBPINNB@?$AAa?$AAs?$AA?$AA@		; `string'
PUBLIC	??_C@_19ICEDMGFD@?$AAm?$AAx?$AAm?$AAl?$AA?$AA@	; `string'
PUBLIC	??_C@_17JGGDFNJJ@?$AAa?$AAd?$AAa?$AA?$AA@	; `string'
PUBLIC	??_C@_17IENGPCHH@?$AAa?$AAd?$AAb?$AA?$AA@	; `string'
PUBLIC	??_C@_17GMHDMCIN@?$AAa?$AAd?$AAs?$AA?$AA@	; `string'
PUBLIC	??_C@_17MCGGNAAC@?$AAa?$AAs?$AAm?$AA?$AA@	; `string'
PUBLIC	??_C@_13KHDBCPJB@?$AAs?$AA?$AA@			; `string'
PUBLIC	??_C@_1M@CGIOJJDL@?$AAb?$AAa?$AAt?$AAc?$AAh?$AA?$AA@ ; `string'
PUBLIC	??_C@_17CPOGGMGE@?$AAb?$AAa?$AAt?$AA?$AA@	; `string'
PUBLIC	??_C@_17MEJHPLBO@?$AAc?$AAm?$AAd?$AA?$AA@	; `string'
PUBLIC	??_C@_15OJMOHLEF@?$AAc?$AAc?$AA?$AA@		; `string'
PUBLIC	??_C@_13PHCIHIAO@?$AAc?$AA?$AA@			; `string'
PUBLIC	??_C@_13CACJPPAP@?$AAh?$AA?$AA@			; `string'
PUBLIC	??_C@_15NAMGNOIC@?$AAx?$AAs?$AA?$AA@		; `string'
PUBLIC	??_C@_19CKMABFDB@?$AAc?$AAf?$AAm?$AAx?$AA?$AA@	; `string'
PUBLIC	??_C@_17DDIHDDGE@?$AAc?$AAf?$AAc?$AA?$AA@	; `string'
PUBLIC	??_C@_17NDFIEEFH@?$AAc?$AAf?$AAm?$AA?$AA@	; `string'
PUBLIC	??_C@_19PFLLNFPJ@?$AAc?$AAf?$AAm?$AAl?$AA?$AA@	; `string'
PUBLIC	??_C@_1BA@JHEEMABE@?$AAc?$AAl?$AAo?$AAj?$AAu?$AAr?$AAe?$AA?$AA@ ; `string'
PUBLIC	??_C@_17OPBEFPII@?$AAc?$AAl?$AAj?$AA?$AA@	; `string'
PUBLIC	??_C@_19HBAELOEA@?$AAc?$AAl?$AAj?$AAs?$AA?$AA@	; `string'
PUBLIC	??_C@_19CBBNOJNP@?$AAc?$AAl?$AAj?$AAc?$AA?$AA@	; `string'
PUBLIC	??_C@_19KGAFDJEB@?$AAc?$AAl?$AAj?$AAx?$AA?$AA@	; `string'
PUBLIC	??_C@_1O@BKICJLGA@?$AAc?$AAo?$AAf?$AAf?$AAe?$AAe?$AA?$AA@ ; `string'
PUBLIC	??_C@_17KEKECKJD@?$AAc?$AAp?$AAp?$AA?$AA@	; `string'
PUBLIC	??_C@_13FHBKNHDA@?$AAC?$AA?$AA@			; `string'
PUBLIC	??_C@_17INEDIABB@?$AAc?$AAx?$AAx?$AA?$AA@	; `string'
PUBLIC	??_C@_13BHPHAPDN@?$AAm?$AA?$AA@			; `string'
PUBLIC	??_C@_17PJMODGMF@?$AAh?$AAp?$AAp?$AA?$AA@	; `string'
PUBLIC	??_C@_15FEAIAMIH@?$AAh?$AAh?$AA?$AA@		; `string'
PUBLIC	??_C@_13IABLFADB@?$AAH?$AA?$AA@			; `string'
PUBLIC	??_C@_17NACJJMEH@?$AAh?$AAx?$AAx?$AA?$AA@	; `string'
PUBLIC	??_C@_1O@HOIIJHDJ@?$AAc?$AAs?$AAh?$AAa?$AAr?$AAp?$AA?$AA@ ; `string'
PUBLIC	??_C@_15LJNHCMNK@?$AAc?$AAs?$AA?$AA@		; `string'
PUBLIC	??_C@_17DAIFPHND@?$AAc?$AAs?$AAs?$AA?$AA@	; `string'
PUBLIC	??_C@_1O@MOMGNNMC@?$AAd?$AAe?$AAl?$AAp?$AAh?$AAi?$AA?$AA@ ; `string'
PUBLIC	??_C@_17IMKPGCIL@?$AAp?$AAa?$AAs?$AA?$AA@	; `string'
PUBLIC	??_C@_17IDNKMCOH@?$AAi?$AAn?$AAt?$AA?$AA@	; `string'
PUBLIC	??_C@_17NJJNENEO@?$AAd?$AAf?$AAm?$AA?$AA@	; `string'
PUBLIC	??_C@_17EIFNFBIG@?$AAn?$AAf?$AAm?$AA?$AA@	; `string'
PUBLIC	??_C@_17CJJDJLIH@?$AAd?$AAo?$AAf?$AA?$AA@	; `string'
PUBLIC	??_C@_17CJHJPDBE@?$AAd?$AAp?$AAk?$AA?$AA@	; `string'
PUBLIC	??_C@_1M@BKHLNHHK@?$AAd?$AAp?$AAr?$AAo?$AAj?$AA?$AA@ ; `string'
PUBLIC	??_C@_1BE@LKPOMCML@?$AAg?$AAr?$AAo?$AAu?$AAp?$AAp?$AAr?$AAo?$AAj?$AA?$AA@ ; `string'
PUBLIC	??_C@_1BC@JGOIJKCE@?$AAb?$AAd?$AAs?$AAg?$AAr?$AAo?$AAu?$AAp?$AA?$AA@ ; `string'
PUBLIC	??_C@_1BA@NOAFPGOF@?$AAb?$AAd?$AAs?$AAp?$AAr?$AAo?$AAj?$AA?$AA@ ; `string'
PUBLIC	??_C@_1O@PGOFMPNC@?$AAe?$AAb?$AAu?$AAi?$AAl?$AAd?$AA?$AA@ ; `string'
PUBLIC	??_C@_1O@FKFAONEC@?$AAe?$AAc?$AAl?$AAa?$AAs?$AAs?$AA?$AA@ ; `string'
PUBLIC	??_C@_1M@NGCNKCBF@?$AAe?$AAl?$AAi?$AAs?$AAp?$AA?$AA@ ; `string'
PUBLIC	??_C@_15GHPEIIAO@?$AAe?$AAl?$AA?$AA@		; `string'
PUBLIC	??_C@_1O@KNNOJNFM@?$AAe?$AAr?$AAl?$AAa?$AAn?$AAg?$AA?$AA@ ; `string'
PUBLIC	??_C@_17DFMMGKDI@?$AAe?$AAr?$AAl?$AA?$AA@	; `string'
PUBLIC	??_C@_17KOMJHPOJ@?$AAh?$AAr?$AAl?$AA?$AA@	; `string'
PUBLIC	??_C@_1BA@GCCKJLLN@?$AAf?$AAo?$AAr?$AAt?$AAr?$AAa?$AAn?$AA?$AA@ ; `string'
PUBLIC	??_C@_13MAPGIIDM@?$AAf?$AA?$AA@			; `string'
PUBLIC	??_C@_17PINKHOKH@?$AAf?$AA7?$AA7?$AA?$AA@	; `string'
PUBLIC	??_C@_17FPAHCHGO@?$AAf?$AA9?$AA0?$AA?$AA@	; `string'
PUBLIC	??_C@_17GINJNHFM@?$AAf?$AA9?$AA5?$AA?$AA@	; `string'
PUBLIC	??_C@_17GKLNNJEI@?$AAf?$AA0?$AA3?$AA?$AA@	; `string'
PUBLIC	??_C@_17LEMNFMDC@?$AAf?$AAo?$AAr?$AA?$AA@	; `string'
PUBLIC	??_C@_17MHBDEGEN@?$AAf?$AAt?$AAn?$AA?$AA@	; `string'
PUBLIC	??_C@_17OMEECEPH@?$AAf?$AAp?$AAp?$AA?$AA@	; `string'
PUBLIC	??_C@_1O@PKCLPJFE@?$AAf?$AAs?$AAh?$AAa?$AAr?$AAp?$AA?$AA@ ; `string'
PUBLIC	??_C@_15OJBKLNGJ@?$AAf?$AAs?$AA?$AA@		; `string'
PUBLIC	??_C@_17EHMBEOEM@?$AAf?$AAs?$AAi?$AA?$AA@	; `string'
PUBLIC	??_C@_17KPGEHOLG@?$AAf?$AAs?$AAx?$AA?$AA@	; `string'
PUBLIC	??_C@_1BA@JMELKJMN@?$AAg?$AAe?$AAt?$AAt?$AAe?$AAx?$AAt?$AA?$AA@ ; `string'
PUBLIC	??_C@_15CGFKLEMI@?$AAp?$AAo?$AA?$AA@		; `string'
PUBLIC	??_C@_17CLHCDLEC@?$AAp?$AAo?$AAt?$AA?$AA@	; `string'
PUBLIC	??_C@_15JJBCKFIN@?$AAm?$AAo?$AA?$AA@		; `string'
PUBLIC	??_C@_15DIIJIGOL@?$AAg?$AAo?$AA?$AA@		; `string'
PUBLIC	??_C@_1O@ONEOFAJK@?$AAg?$AAr?$AAo?$AAo?$AAv?$AAy?$AA?$AA@ ; `string'
PUBLIC	??_C@_1M@BGHOGJOF@?$AAg?$AAt?$AAm?$AAp?$AAl?$AA?$AA@ ; `string'
PUBLIC	??_C@_17CAOOCEGJ@?$AAg?$AAp?$AAp?$AA?$AA@	; `string'
PUBLIC	??_C@_1O@BBICCJLG@?$AAg?$AAr?$AAu?$AAn?$AAi?$AAt?$AA?$AA@ ; `string'
PUBLIC	??_C@_19HJOCHBH@?$AAh?$AAa?$AAm?$AAl?$AA?$AA@	; `string'
PUBLIC	??_C@_1BA@KENKENPL@?$AAh?$AAa?$AAs?$AAk?$AAe?$AAl?$AAl?$AA?$AA@ ; `string'
PUBLIC	??_C@_15NDBANMBJ@?$AAh?$AAs?$AA?$AA@		; `string'
PUBLIC	??_C@_17IALEBHCH@?$AAl?$AAh?$AAs?$AA?$AA@	; `string'
PUBLIC	??_C@_19DDMFBIFI@?$AAh?$AAt?$AAm?$AAl?$AA?$AA@	; `string'
PUBLIC	??_C@_17MACMPLJB@?$AAh?$AAt?$AAm?$AA?$AA@	; `string'
PUBLIC	??_C@_1M@PIEOOFEF@?$AAs?$AAh?$AAt?$AAm?$AAl?$AA?$AA@ ; `string'
PUBLIC	??_C@_1M@IJNMEBEL@?$AAx?$AAh?$AAt?$AAm?$AAl?$AA?$AA@ ; `string'
PUBLIC	??_C@_17CBKJENKF@?$AAi?$AAn?$AAi?$AA?$AA@	; `string'
PUBLIC	??_C@_19FJGMOJGI@?$AAj?$AAa?$AAd?$AAe?$AA?$AA@	; `string'
PUBLIC	??_C@_19JIBANNKP@?$AAj?$AAa?$AAv?$AAa?$AA?$AA@	; `string'
PUBLIC	??_C@_1BG@KGJELGAJ@?$AAp?$AAr?$AAo?$AAp?$AAe?$AAr?$AAt?$AAi?$AAe?$AAs?$AA?$AA@ ; `string'
PUBLIC	??_C@_15JONIHNBC@?$AAj?$AAs?$AA?$AA@		; `string'
PUBLIC	??_C@_17PIMLGLPJ@?$AAj?$AAs?$AAx?$AA?$AA@	; `string'
PUBLIC	??_C@_19NKDEKIPM@?$AAj?$AAs?$AAo?$AAn?$AA?$AA@	; `string'
PUBLIC	??_C@_17DNHPEDBG@?$AAj?$AAs?$AAp?$AA?$AA@	; `string'
PUBLIC	??_C@_19FNMGBAPB@?$AAj?$AAs?$AAp?$AAx?$AA?$AA@	; `string'
PUBLIC	??_C@_19IAEBNIDH@?$AAj?$AAh?$AAt?$AAm?$AA?$AA@	; `string'
PUBLIC	??_C@_1M@GJPPDCCI@?$AAj?$AAh?$AAt?$AAm?$AAl?$AA?$AA@ ; `string'
PUBLIC	??_C@_19LLJJKNLF@?$AAl?$AAe?$AAs?$AAs?$AA?$AA@	; `string'
PUBLIC	??_C@_1O@FLBDIBDB@?$AAl?$AAi?$AAq?$AAu?$AAi?$AAd?$AA?$AA@ ; `string'
PUBLIC	??_C@_19POIDBHBE@?$AAl?$AAi?$AAs?$AAp?$AA?$AA@	; `string'
PUBLIC	??_C@_17PLBAEKJB@?$AAl?$AAs?$AAp?$AA?$AA@	; `string'
PUBLIC	??_C@_17MFOMJJHG@?$AAl?$AAu?$AAa?$AA?$AA@	; `string'
PUBLIC	??_C@_15IFBOCNCO@?$AAm?$AA4?$AA?$AA@		; `string'
PUBLIC	??_C@_19EKOGEAME@?$AAm?$AAa?$AAk?$AAe?$AA?$AA@	; `string'
PUBLIC	??_C@_1BE@FMJEDJDL@?$AAM?$AAa?$AAk?$AAe?$AAf?$AAi?$AAl?$AAe?$AAs?$AA?$AA@ ; `string'
PUBLIC	??_C@_15BGHADCNK@?$AAm?$AAk?$AA?$AA@		; `string'
PUBLIC	??_C@_17POLMDJAB@?$AAm?$AAa?$AAk?$AA?$AA@	; `string'
PUBLIC	??_C@_1BC@FFHFDPKF@?$AAm?$AAa?$AAr?$AAk?$AAd?$AAo?$AAw?$AAn?$AA?$AA@ ; `string'
PUBLIC	??_C@_1M@COMOPPCC@?$AAm?$AAd?$AAo?$AAw?$AAn?$AA?$AA@ ; `string'
PUBLIC	??_C@_19KBBDALEB@?$AAm?$AAd?$AAw?$AAn?$AA?$AA@	; `string'
PUBLIC	??_C@_19PNHBGJNI@?$AAm?$AAk?$AAd?$AAn?$AA?$AA@	; `string'
PUBLIC	??_C@_17HEEAKDB@?$AAm?$AAk?$AAd?$AA?$AA@	; `string'
PUBLIC	??_C@_15EOBDCCIM@?$AAm?$AAd?$AA?$AA@		; `string'
PUBLIC	??_C@_1M@MHGJAPE@?$AAm?$AAa?$AAs?$AAo?$AAn?$AA?$AA@ ; `string'
PUBLIC	??_C@_17GLBBEGHB@?$AAm?$AAa?$AAs?$AA?$AA@	; `string'
PUBLIC	??_C@_1M@BNGHNLKH@?$AAm?$AAh?$AAt?$AAm?$AAl?$AA?$AA@ ; `string'
PUBLIC	??_C@_17KLOBNAIG@?$AAm?$AAp?$AAl?$AA?$AA@	; `string'
PUBLIC	??_C@_19BDFKDPEE@?$AAm?$AAt?$AAx?$AAt?$AA?$AA@	; `string'
PUBLIC	??_C@_1O@IMPFCKEM@?$AAm?$AAa?$AAt?$AAl?$AAa?$AAb?$AA?$AA@ ; `string'
PUBLIC	??_C@_1BI@GMGCAJEL@?$AAm?$AAa?$AAt?$AAh?$AAe?$AAm?$AAa?$AAt?$AAi?$AAc?$AAa?$AA?$AA@ ; `string'
PUBLIC	??_C@_15CJOKCLJO@?$AAw?$AAl?$AA?$AA@		; `string'
PUBLIC	??_C@_1BA@GNPNOGAA@?$AAm?$AAe?$AAr?$AAc?$AAu?$AAr?$AAy?$AA?$AA@ ; `string'
PUBLIC	??_C@_17ELNEMPCG@?$AAm?$AAo?$AAo?$AA?$AA@	; `string'
PUBLIC	??_C@_17LJALODFD@?$AAn?$AAi?$AAm?$AA?$AA@	; `string'
PUBLIC	??_C@_19COKLBLGD@?$AAo?$AAb?$AAj?$AAc?$AA?$AA@	; `string'
PUBLIC	??_C@_1O@MININBMM@?$AAo?$AAb?$AAj?$AAc?$AAp?$AAp?$AA?$AA@ ; `string'
PUBLIC	??_C@_15DDBLGNAG@?$AAm?$AAm?$AA?$AA@		; `string'
PUBLIC	??_C@_1M@DNOHIBIA@?$AAo?$AAc?$AAa?$AAm?$AAl?$AA?$AA@ ; `string'
PUBLIC	??_C@_15ILKHAKGD@?$AAm?$AAl?$AA?$AA@		; `string'
PUBLIC	??_C@_17OICLOCFE@?$AAm?$AAl?$AAi?$AA?$AA@	; `string'
PUBLIC	??_C@_17NPPFBCGG@?$AAm?$AAl?$AAl?$AA?$AA@	; `string'
PUBLIC	??_C@_17LIDCLFML@?$AAm?$AAl?$AAy?$AA?$AA@	; `string'
PUBLIC	??_C@_1O@JJKBGPDF@?$AAo?$AAc?$AAt?$AAa?$AAv?$AAe?$AA?$AA@ ; `string'
PUBLIC	??_C@_1O@HGOKFMBG@?$AAp?$AAa?$AAr?$AAr?$AAo?$AAt?$AA?$AA@ ; `string'
PUBLIC	??_C@_17NIEAIHID@?$AAp?$AAi?$AAr?$AA?$AA@	; `string'
PUBLIC	??_C@_19LCIHOCIF@?$AAp?$AAa?$AAs?$AAm?$AA?$AA@	; `string'
PUBLIC	??_C@_17KLHEPFGP@?$AAp?$AAm?$AAc?$AA?$AA@	; `string'
PUBLIC	??_C@_17OBLOJADC@?$AAo?$AAp?$AAs?$AA?$AA@	; `string'
PUBLIC	??_C@_17HLGLGMNN@?$AAp?$AAo?$AAd?$AA?$AA@	; `string'
PUBLIC	??_C@_15ODOOJMCH@?$AAp?$AAg?$AA?$AA@		; `string'
PUBLIC	??_C@_15HIHPNODB@?$AAt?$AAg?$AA?$AA@		; `string'
PUBLIC	??_C@_19EFCNFILP@?$AAp?$AAe?$AAr?$AAl?$AA?$AA@	; `string'
PUBLIC	??_C@_15DEOPBLCG@?$AAp?$AAl?$AA?$AA@		; `string'
PUBLIC	??_C@_15IMFDHMED@?$AAp?$AAm?$AA?$AA@		; `string'
PUBLIC	??_C@_17FHKHAKPP@?$AAp?$AAm?$AA6?$AA?$AA@	; `string'
PUBLIC	??_C@_13DKOGBHCI@?$AAt?$AA?$AA@			; `string'
PUBLIC	??_C@_17LJBFJMKN@?$AAp?$AAh?$AAp?$AA?$AA@	; `string'
PUBLIC	??_C@_19GENJDBF@?$AAp?$AAh?$AAp?$AAt?$AA?$AA@	; `string'
PUBLIC	??_C@_19IOPDJB@?$AAp?$AAh?$AAp?$AA3?$AA?$AA@	; `string'
PUBLIC	??_C@_19JNFJMLCI@?$AAp?$AAh?$AAp?$AA4?$AA?$AA@	; `string'
PUBLIC	??_C@_19CFOFKMEN@?$AAp?$AAh?$AAp?$AA5?$AA?$AA@	; `string'
PUBLIC	??_C@_1M@IPNADHLF@?$AAp?$AAh?$AAt?$AAm?$AAl?$AA?$AA@ ; `string'
PUBLIC	??_C@_19ELFDFBCJ@?$AAp?$AAi?$AAk?$AAe?$AA?$AA@	; `string'
PUBLIC	??_C@_19OMDEHKKA@?$AAp?$AAm?$AAo?$AAd?$AA?$AA@	; `string'
PUBLIC	??_C@_1M@FMHGIHJG@?$AAp?$AAl?$AAo?$AAn?$AAe?$AA?$AA@ ; `string'
PUBLIC	??_C@_15KBECGEFG@?$AAp?$AAt?$AA?$AA@		; `string'
PUBLIC	??_C@_17CLMGLNME@?$AAc?$AAp?$AAt?$AA?$AA@	; `string'
PUBLIC	??_C@_1BC@FIMMKADP@?$AAm?$AAe?$AAt?$AAa?$AAd?$AAa?$AAt?$AAa?$AA?$AA@ ; `string'
PUBLIC	??_C@_17NJKMGFBJ@?$AAc?$AAp?$AAy?$AA?$AA@	; `string'
PUBLIC	??_C@_15FDCILMIL@?$AAp?$AAy?$AA?$AA@		; `string'
PUBLIC	??_C@_1O@JOLPHOLD@?$AAp?$AAu?$AAp?$AAp?$AAe?$AAt?$AA?$AA@ ; `string'
PUBLIC	??_C@_15COCAPDAB@?$AAp?$AAp?$AA?$AA@		; `string'
PUBLIC	??_C@_1O@KDDPCNEL@?$AAp?$AAy?$AAt?$AAh?$AAo?$AAn?$AA?$AA@ ; `string'
PUBLIC	??_C@_19JMEDJKKB@?$AAr?$AAa?$AAk?$AAe?$AA?$AA@	; `string'
PUBLIC	??_C@_1BE@MAMNOCDP@?$AAR?$AAa?$AAk?$AAe?$AAf?$AAi?$AAl?$AAe?$AAs?$AA?$AA@ ; `string'
PUBLIC	??_C@_15HBFNPNOE@?$AAr?$AAs?$AA?$AA@		; `string'
PUBLIC	??_C@_13LPLPOHMK@?$AAR?$AA?$AA@			; `string'
PUBLIC	??_C@_17INPAKIPN@?$AAR?$AAm?$AAd?$AA?$AA@	; `string'
PUBLIC	??_C@_17EJMICCCC@?$AAR?$AAn?$AAw?$AA?$AA@	; `string'
PUBLIC	??_C@_19HPDMEIAM@?$AAR?$AAt?$AAe?$AAx?$AA?$AA@	; `string'
PUBLIC	??_C@_19CGAKBPLF@?$AAR?$AAr?$AAs?$AAt?$AA?$AA@	; `string'
PUBLIC	??_C@_19FJHCBMJP@?$AAr?$AAu?$AAb?$AAy?$AA?$AA@	; `string'
PUBLIC	??_C@_15JJPIMNBO@?$AAr?$AAb?$AA?$AA@		; `string'
PUBLIC	??_C@_1M@GDOLKJCK@?$AAr?$AAh?$AAt?$AAm?$AAl?$AA?$AA@ ; `string'
PUBLIC	??_C@_17KEENJFDF@?$AAr?$AAj?$AAs?$AA?$AA@	; `string'
PUBLIC	??_C@_19FEOGBMDG@?$AAr?$AAx?$AAm?$AAl?$AA?$AA@	; `string'
PUBLIC	??_C@_17NFBDBNAL@?$AAe?$AAr?$AAb?$AA?$AA@	; `string'
PUBLIC	??_C@_19NMPBPOIG@?$AAs?$AAp?$AAe?$AAc?$AA?$AA@	; `string'
PUBLIC	??_C@_19GDJCBFHM@?$AAr?$AAu?$AAs?$AAt?$AA?$AA@	; `string'
PUBLIC	??_C@_19IGCBPBNN@?$AAs?$AAa?$AAl?$AAt?$AA?$AA@	; `string'
PUBLIC	??_C@_17LOLOHGLG@?$AAs?$AAl?$AAs?$AA?$AA@	; `string'
PUBLIC	??_C@_19OJHGHJCK@?$AAs?$AAa?$AAs?$AAs?$AA?$AA@	; `string'
PUBLIC	??_C@_19KLFDHOFH@?$AAs?$AAc?$AAs?$AAs?$AA?$AA@	; `string'
PUBLIC	??_C@_1M@NMDCKIF@?$AAs?$AAc?$AAa?$AAl?$AAa?$AA?$AA@ ; `string'
PUBLIC	??_C@_1O@FCPFPLA@?$AAs?$AAc?$AAh?$AAe?$AAm?$AAe?$AA?$AA@ ; `string'
PUBLIC	??_C@_17PPCOOEMP@?$AAs?$AAc?$AAm?$AA?$AA@	; `string'
PUBLIC	??_C@_15LKABCOEB@?$AAs?$AAs?$AA?$AA@		; `string'
PUBLIC	??_C@_1M@IDADAHFF@?$AAs?$AAh?$AAe?$AAl?$AAl?$AA?$AA@ ; `string'
PUBLIC	??_C@_15DNBJPONP@?$AAs?$AAh?$AA?$AA@		; `string'
PUBLIC	??_C@_19KGACEDGC@?$AAb?$AAa?$AAs?$AAh?$AA?$AA@	; `string'
PUBLIC	??_C@_17LHJNCHEN@?$AAc?$AAs?$AAh?$AA?$AA@	; `string'
PUBLIC	??_C@_19MOJHLFLA@?$AAt?$AAc?$AAs?$AAh?$AA?$AA@	; `string'
PUBLIC	??_C@_17GEHIDMPI@?$AAk?$AAs?$AAh?$AA?$AA@	; `string'
PUBLIC	??_C@_17NEGJANEN@?$AAz?$AAs?$AAh?$AA?$AA@	; `string'
PUBLIC	??_C@_1BE@OIIKGMEE@?$AAs?$AAm?$AAa?$AAl?$AAl?$AAt?$AAa?$AAl?$AAk?$AA?$AA@ ; `string'
PUBLIC	??_C@_15CHNGBGPI@?$AAs?$AAt?$AA?$AA@		; `string'
PUBLIC	??_C@_17JIMCADK@?$AAs?$AAq?$AAl?$AA?$AA@	; `string'
PUBLIC	??_C@_17CFPKIAKC@?$AAc?$AAt?$AAl?$AA?$AA@	; `string'
PUBLIC	??_C@_1O@DAHLCCIL@?$AAs?$AAt?$AAy?$AAl?$AAu?$AAs?$AA?$AA@ ; `string'
PUBLIC	??_C@_19HEMMCCMK@?$AAs?$AAt?$AAy?$AAl?$AA?$AA@	; `string'
PUBLIC	??_C@_1M@DGDPJEGJ@?$AAs?$AAw?$AAi?$AAf?$AAt?$AA?$AA@ ; `string'
PUBLIC	??_C@_17ENFHIKLD@?$AAt?$AAc?$AAl?$AA?$AA@	; `string'
PUBLIC	??_C@_19OGANBCBG@?$AAi?$AAt?$AAc?$AAl?$AA?$AA@	; `string'
PUBLIC	??_C@_17CJONKEND@?$AAi?$AAt?$AAk?$AA?$AA@	; `string'
PUBLIC	??_C@_17EEHFKJGG@?$AAt?$AAe?$AAx?$AA?$AA@	; `string'
PUBLIC	??_C@_17MCAFEHJN@?$AAc?$AAl?$AAs?$AA?$AA@	; `string'
PUBLIC	??_C@_17DOIGBGCE@?$AAs?$AAt?$AAy?$AA?$AA@	; `string'
PUBLIC	??_C@_15DKNDCGEA@?$AAt?$AAt?$AA?$AA@		; `string'
PUBLIC	??_C@_17HIFGMAAB@?$AAt?$AAt?$AA2?$AA?$AA@	; `string'
PUBLIC	??_C@_19OFHHJDO@?$AAt?$AAt?$AAm?$AAl?$AA?$AA@	; `string'
PUBLIC	??_C@_19HMPJNDE@?$AAv?$AAa?$AAl?$AAa?$AA?$AA@	; `string'
PUBLIC	??_C@_19LGGPHHDL@?$AAv?$AAa?$AAp?$AAi?$AA?$AA@	; `string'
PUBLIC	??_C@_15CGJIPAI@?$AAv?$AAb?$AA?$AA@		; `string'
PUBLIC	??_C@_17LCDBFENN@?$AAb?$AAa?$AAs?$AA?$AA@	; `string'
PUBLIC	??_C@_17DPPAKLO@?$AAf?$AAr?$AAm?$AA?$AA@	; `string'
PUBLIC	??_C@_19FFPPJLOP@?$AAr?$AAe?$AAs?$AAx?$AA?$AA@	; `string'
PUBLIC	??_C@_1BC@JDPGABLB@?$AAv?$AAe?$AAl?$AAo?$AAc?$AAi?$AAt?$AAy?$AA?$AA@ ; `string'
PUBLIC	??_C@_15FKAKJPFO@?$AAv?$AAm?$AA?$AA@		; `string'
PUBLIC	??_C@_1BA@KKFJHIAD@?$AAv?$AAe?$AAr?$AAi?$AAl?$AAo?$AAg?$AA?$AA@ ; `string'
PUBLIC	??_C@_13JAOPNPKD@?$AAv?$AA?$AA@			; `string'
PUBLIC	??_C@_15GNNEGPGM@?$AAv?$AAh?$AA?$AA@		; `string'
PUBLIC	??_C@_15INNPNOHD@?$AAs?$AAv?$AA?$AA@		; `string'
PUBLIC	??_C@_19GLJNMKP@?$AAv?$AAh?$AAd?$AAl?$AA?$AA@	; `string'
PUBLIC	??_C@_17KAABFFOC@?$AAv?$AAh?$AAd?$AA?$AA@	; `string'
PUBLIC	??_C@_17BGFFMJMN@?$AAv?$AAi?$AAm?$AA?$AA@	; `string'
PUBLIC	??_C@_19MIKKJKOM@?$AAw?$AAs?$AAd?$AAl?$AA?$AA@	; `string'
PUBLIC	??_C@_19PGDEKMLK@?$AAw?$AAa?$AAd?$AAl?$AA?$AA@	; `string'
PUBLIC	??_C@_17CAPCPOIM@?$AAx?$AAm?$AAl?$AA?$AA@	; `string'
PUBLIC	??_C@_17OKILKBFE@?$AAd?$AAt?$AAd?$AA?$AA@	; `string'
PUBLIC	??_C@_17BJCOJNGH@?$AAx?$AAs?$AAl?$AA?$AA@	; `string'
PUBLIC	??_C@_19EAFPDMHM@?$AAx?$AAs?$AAl?$AAt?$AA?$AA@	; `string'
PUBLIC	??_C@_17NEHFNHKI@?$AAe?$AAn?$AAt?$AA?$AA@	; `string'
PUBLIC	??_C@_19MPPCMNMB@?$AAy?$AAa?$AAm?$AAl?$AA?$AA@	; `string'
PUBLIC	??_C@_17OMFIPOBC@?$AAy?$AAm?$AAl?$AA?$AA@	; `string'
PUBLIC	??_C@_17MAHECFII@?$AA?2?$AA?4?$AA?$CI?$AA?$AA@	; `string'
PUBLIC	?langs@@3PAUlang_spec_t@@A			; langs
EXTRN	__imp__wcsncpy:PROC
;	COMDAT ??_C@_17MAHECFII@?$AA?2?$AA?4?$AA?$CI?$AA?$AA@
CONST	SEGMENT
??_C@_17MAHECFII@?$AA?2?$AA?4?$AA?$CI?$AA?$AA@ DB '\', 00H, '.', 00H, '(', 00H
	DB	00H, 00H					; `string'
CONST	ENDS
;	COMDAT ??_C@_17OMFIPOBC@?$AAy?$AAm?$AAl?$AA?$AA@
CONST	SEGMENT
??_C@_17OMFIPOBC@?$AAy?$AAm?$AAl?$AA?$AA@ DB 'y', 00H, 'm', 00H, 'l', 00H
	DB	00H, 00H					; `string'
CONST	ENDS
;	COMDAT ??_C@_19MPPCMNMB@?$AAy?$AAa?$AAm?$AAl?$AA?$AA@
CONST	SEGMENT
??_C@_19MPPCMNMB@?$AAy?$AAa?$AAm?$AAl?$AA?$AA@ DB 'y', 00H, 'a', 00H, 'm', 00H
	DB	'l', 00H, 00H, 00H				; `string'
CONST	ENDS
;	COMDAT ??_C@_17NEHFNHKI@?$AAe?$AAn?$AAt?$AA?$AA@
CONST	SEGMENT
??_C@_17NEHFNHKI@?$AAe?$AAn?$AAt?$AA?$AA@ DB 'e', 00H, 'n', 00H, 't', 00H
	DB	00H, 00H					; `string'
CONST	ENDS
;	COMDAT ??_C@_19EAFPDMHM@?$AAx?$AAs?$AAl?$AAt?$AA?$AA@
CONST	SEGMENT
??_C@_19EAFPDMHM@?$AAx?$AAs?$AAl?$AAt?$AA?$AA@ DB 'x', 00H, 's', 00H, 'l', 00H
	DB	't', 00H, 00H, 00H				; `string'
CONST	ENDS
;	COMDAT ??_C@_17BJCOJNGH@?$AAx?$AAs?$AAl?$AA?$AA@
CONST	SEGMENT
??_C@_17BJCOJNGH@?$AAx?$AAs?$AAl?$AA?$AA@ DB 'x', 00H, 's', 00H, 'l', 00H
	DB	00H, 00H					; `string'
CONST	ENDS
;	COMDAT ??_C@_17OKILKBFE@?$AAd?$AAt?$AAd?$AA?$AA@
CONST	SEGMENT
??_C@_17OKILKBFE@?$AAd?$AAt?$AAd?$AA?$AA@ DB 'd', 00H, 't', 00H, 'd', 00H
	DB	00H, 00H					; `string'
CONST	ENDS
;	COMDAT ??_C@_17CAPCPOIM@?$AAx?$AAm?$AAl?$AA?$AA@
CONST	SEGMENT
??_C@_17CAPCPOIM@?$AAx?$AAm?$AAl?$AA?$AA@ DB 'x', 00H, 'm', 00H, 'l', 00H
	DB	00H, 00H					; `string'
CONST	ENDS
;	COMDAT ??_C@_19PGDEKMLK@?$AAw?$AAa?$AAd?$AAl?$AA?$AA@
CONST	SEGMENT
??_C@_19PGDEKMLK@?$AAw?$AAa?$AAd?$AAl?$AA?$AA@ DB 'w', 00H, 'a', 00H, 'd', 00H
	DB	'l', 00H, 00H, 00H				; `string'
CONST	ENDS
;	COMDAT ??_C@_19MIKKJKOM@?$AAw?$AAs?$AAd?$AAl?$AA?$AA@
CONST	SEGMENT
??_C@_19MIKKJKOM@?$AAw?$AAs?$AAd?$AAl?$AA?$AA@ DB 'w', 00H, 's', 00H, 'd', 00H
	DB	'l', 00H, 00H, 00H				; `string'
CONST	ENDS
;	COMDAT ??_C@_17BGFFMJMN@?$AAv?$AAi?$AAm?$AA?$AA@
CONST	SEGMENT
??_C@_17BGFFMJMN@?$AAv?$AAi?$AAm?$AA?$AA@ DB 'v', 00H, 'i', 00H, 'm', 00H
	DB	00H, 00H					; `string'
CONST	ENDS
;	COMDAT ??_C@_17KAABFFOC@?$AAv?$AAh?$AAd?$AA?$AA@
CONST	SEGMENT
??_C@_17KAABFFOC@?$AAv?$AAh?$AAd?$AA?$AA@ DB 'v', 00H, 'h', 00H, 'd', 00H
	DB	00H, 00H					; `string'
CONST	ENDS
;	COMDAT ??_C@_19GLJNMKP@?$AAv?$AAh?$AAd?$AAl?$AA?$AA@
CONST	SEGMENT
??_C@_19GLJNMKP@?$AAv?$AAh?$AAd?$AAl?$AA?$AA@ DB 'v', 00H, 'h', 00H, 'd', 00H
	DB	'l', 00H, 00H, 00H				; `string'
CONST	ENDS
;	COMDAT ??_C@_15INNPNOHD@?$AAs?$AAv?$AA?$AA@
CONST	SEGMENT
??_C@_15INNPNOHD@?$AAs?$AAv?$AA?$AA@ DB 's', 00H, 'v', 00H, 00H, 00H ; `string'
CONST	ENDS
;	COMDAT ??_C@_15GNNEGPGM@?$AAv?$AAh?$AA?$AA@
CONST	SEGMENT
??_C@_15GNNEGPGM@?$AAv?$AAh?$AA?$AA@ DB 'v', 00H, 'h', 00H, 00H, 00H ; `string'
CONST	ENDS
;	COMDAT ??_C@_13JAOPNPKD@?$AAv?$AA?$AA@
CONST	SEGMENT
??_C@_13JAOPNPKD@?$AAv?$AA?$AA@ DB 'v', 00H, 00H, 00H	; `string'
CONST	ENDS
;	COMDAT ??_C@_1BA@KKFJHIAD@?$AAv?$AAe?$AAr?$AAi?$AAl?$AAo?$AAg?$AA?$AA@
CONST	SEGMENT
??_C@_1BA@KKFJHIAD@?$AAv?$AAe?$AAr?$AAi?$AAl?$AAo?$AAg?$AA?$AA@ DB 'v', 00H
	DB	'e', 00H, 'r', 00H, 'i', 00H, 'l', 00H, 'o', 00H, 'g', 00H, 00H
	DB	00H						; `string'
CONST	ENDS
;	COMDAT ??_C@_15FKAKJPFO@?$AAv?$AAm?$AA?$AA@
CONST	SEGMENT
??_C@_15FKAKJPFO@?$AAv?$AAm?$AA?$AA@ DB 'v', 00H, 'm', 00H, 00H, 00H ; `string'
CONST	ENDS
;	COMDAT ??_C@_1BC@JDPGABLB@?$AAv?$AAe?$AAl?$AAo?$AAc?$AAi?$AAt?$AAy?$AA?$AA@
CONST	SEGMENT
??_C@_1BC@JDPGABLB@?$AAv?$AAe?$AAl?$AAo?$AAc?$AAi?$AAt?$AAy?$AA?$AA@ DB 'v'
	DB	00H, 'e', 00H, 'l', 00H, 'o', 00H, 'c', 00H, 'i', 00H, 't', 00H
	DB	'y', 00H, 00H, 00H				; `string'
CONST	ENDS
;	COMDAT ??_C@_19FFPPJLOP@?$AAr?$AAe?$AAs?$AAx?$AA?$AA@
CONST	SEGMENT
??_C@_19FFPPJLOP@?$AAr?$AAe?$AAs?$AAx?$AA?$AA@ DB 'r', 00H, 'e', 00H, 's', 00H
	DB	'x', 00H, 00H, 00H				; `string'
CONST	ENDS
;	COMDAT ??_C@_17DPPAKLO@?$AAf?$AAr?$AAm?$AA?$AA@
CONST	SEGMENT
??_C@_17DPPAKLO@?$AAf?$AAr?$AAm?$AA?$AA@ DB 'f', 00H, 'r', 00H, 'm', 00H, 00H
	DB	00H						; `string'
CONST	ENDS
;	COMDAT ??_C@_17LCDBFENN@?$AAb?$AAa?$AAs?$AA?$AA@
CONST	SEGMENT
??_C@_17LCDBFENN@?$AAb?$AAa?$AAs?$AA?$AA@ DB 'b', 00H, 'a', 00H, 's', 00H
	DB	00H, 00H					; `string'
CONST	ENDS
;	COMDAT ??_C@_15CGJIPAI@?$AAv?$AAb?$AA?$AA@
CONST	SEGMENT
??_C@_15CGJIPAI@?$AAv?$AAb?$AA?$AA@ DB 'v', 00H, 'b', 00H, 00H, 00H ; `string'
CONST	ENDS
;	COMDAT ??_C@_19LGGPHHDL@?$AAv?$AAa?$AAp?$AAi?$AA?$AA@
CONST	SEGMENT
??_C@_19LGGPHHDL@?$AAv?$AAa?$AAp?$AAi?$AA?$AA@ DB 'v', 00H, 'a', 00H, 'p', 00H
	DB	'i', 00H, 00H, 00H				; `string'
CONST	ENDS
;	COMDAT ??_C@_19HMPJNDE@?$AAv?$AAa?$AAl?$AAa?$AA?$AA@
CONST	SEGMENT
??_C@_19HMPJNDE@?$AAv?$AAa?$AAl?$AAa?$AA?$AA@ DB 'v', 00H, 'a', 00H, 'l', 00H
	DB	'a', 00H, 00H, 00H				; `string'
CONST	ENDS
;	COMDAT ??_C@_19OFHHJDO@?$AAt?$AAt?$AAm?$AAl?$AA?$AA@
CONST	SEGMENT
??_C@_19OFHHJDO@?$AAt?$AAt?$AAm?$AAl?$AA?$AA@ DB 't', 00H, 't', 00H, 'm', 00H
	DB	'l', 00H, 00H, 00H				; `string'
CONST	ENDS
;	COMDAT ??_C@_17HIFGMAAB@?$AAt?$AAt?$AA2?$AA?$AA@
CONST	SEGMENT
??_C@_17HIFGMAAB@?$AAt?$AAt?$AA2?$AA?$AA@ DB 't', 00H, 't', 00H, '2', 00H
	DB	00H, 00H					; `string'
CONST	ENDS
;	COMDAT ??_C@_15DKNDCGEA@?$AAt?$AAt?$AA?$AA@
CONST	SEGMENT
??_C@_15DKNDCGEA@?$AAt?$AAt?$AA?$AA@ DB 't', 00H, 't', 00H, 00H, 00H ; `string'
CONST	ENDS
;	COMDAT ??_C@_17DOIGBGCE@?$AAs?$AAt?$AAy?$AA?$AA@
CONST	SEGMENT
??_C@_17DOIGBGCE@?$AAs?$AAt?$AAy?$AA?$AA@ DB 's', 00H, 't', 00H, 'y', 00H
	DB	00H, 00H					; `string'
CONST	ENDS
;	COMDAT ??_C@_17MCAFEHJN@?$AAc?$AAl?$AAs?$AA?$AA@
CONST	SEGMENT
??_C@_17MCAFEHJN@?$AAc?$AAl?$AAs?$AA?$AA@ DB 'c', 00H, 'l', 00H, 's', 00H
	DB	00H, 00H					; `string'
CONST	ENDS
;	COMDAT ??_C@_17EEHFKJGG@?$AAt?$AAe?$AAx?$AA?$AA@
CONST	SEGMENT
??_C@_17EEHFKJGG@?$AAt?$AAe?$AAx?$AA?$AA@ DB 't', 00H, 'e', 00H, 'x', 00H
	DB	00H, 00H					; `string'
CONST	ENDS
;	COMDAT ??_C@_17CJONKEND@?$AAi?$AAt?$AAk?$AA?$AA@
CONST	SEGMENT
??_C@_17CJONKEND@?$AAi?$AAt?$AAk?$AA?$AA@ DB 'i', 00H, 't', 00H, 'k', 00H
	DB	00H, 00H					; `string'
CONST	ENDS
;	COMDAT ??_C@_19OGANBCBG@?$AAi?$AAt?$AAc?$AAl?$AA?$AA@
CONST	SEGMENT
??_C@_19OGANBCBG@?$AAi?$AAt?$AAc?$AAl?$AA?$AA@ DB 'i', 00H, 't', 00H, 'c', 00H
	DB	'l', 00H, 00H, 00H				; `string'
CONST	ENDS
;	COMDAT ??_C@_17ENFHIKLD@?$AAt?$AAc?$AAl?$AA?$AA@
CONST	SEGMENT
??_C@_17ENFHIKLD@?$AAt?$AAc?$AAl?$AA?$AA@ DB 't', 00H, 'c', 00H, 'l', 00H
	DB	00H, 00H					; `string'
CONST	ENDS
;	COMDAT ??_C@_1M@DGDPJEGJ@?$AAs?$AAw?$AAi?$AAf?$AAt?$AA?$AA@
CONST	SEGMENT
??_C@_1M@DGDPJEGJ@?$AAs?$AAw?$AAi?$AAf?$AAt?$AA?$AA@ DB 's', 00H, 'w', 00H
	DB	'i', 00H, 'f', 00H, 't', 00H, 00H, 00H	; `string'
CONST	ENDS
;	COMDAT ??_C@_19HEMMCCMK@?$AAs?$AAt?$AAy?$AAl?$AA?$AA@
CONST	SEGMENT
??_C@_19HEMMCCMK@?$AAs?$AAt?$AAy?$AAl?$AA?$AA@ DB 's', 00H, 't', 00H, 'y', 00H
	DB	'l', 00H, 00H, 00H				; `string'
CONST	ENDS
;	COMDAT ??_C@_1O@DAHLCCIL@?$AAs?$AAt?$AAy?$AAl?$AAu?$AAs?$AA?$AA@
CONST	SEGMENT
??_C@_1O@DAHLCCIL@?$AAs?$AAt?$AAy?$AAl?$AAu?$AAs?$AA?$AA@ DB 's', 00H, 't'
	DB	00H, 'y', 00H, 'l', 00H, 'u', 00H, 's', 00H, 00H, 00H ; `string'
CONST	ENDS
;	COMDAT ??_C@_17CFPKIAKC@?$AAc?$AAt?$AAl?$AA?$AA@
CONST	SEGMENT
??_C@_17CFPKIAKC@?$AAc?$AAt?$AAl?$AA?$AA@ DB 'c', 00H, 't', 00H, 'l', 00H
	DB	00H, 00H					; `string'
CONST	ENDS
;	COMDAT ??_C@_17JIMCADK@?$AAs?$AAq?$AAl?$AA?$AA@
CONST	SEGMENT
??_C@_17JIMCADK@?$AAs?$AAq?$AAl?$AA?$AA@ DB 's', 00H, 'q', 00H, 'l', 00H, 00H
	DB	00H						; `string'
CONST	ENDS
;	COMDAT ??_C@_15CHNGBGPI@?$AAs?$AAt?$AA?$AA@
CONST	SEGMENT
??_C@_15CHNGBGPI@?$AAs?$AAt?$AA?$AA@ DB 's', 00H, 't', 00H, 00H, 00H ; `string'
CONST	ENDS
;	COMDAT ??_C@_1BE@OIIKGMEE@?$AAs?$AAm?$AAa?$AAl?$AAl?$AAt?$AAa?$AAl?$AAk?$AA?$AA@
CONST	SEGMENT
??_C@_1BE@OIIKGMEE@?$AAs?$AAm?$AAa?$AAl?$AAl?$AAt?$AAa?$AAl?$AAk?$AA?$AA@ DB 's'
	DB	00H, 'm', 00H, 'a', 00H, 'l', 00H, 'l', 00H, 't', 00H, 'a', 00H
	DB	'l', 00H, 'k', 00H, 00H, 00H			; `string'
CONST	ENDS
;	COMDAT ??_C@_17NEGJANEN@?$AAz?$AAs?$AAh?$AA?$AA@
CONST	SEGMENT
??_C@_17NEGJANEN@?$AAz?$AAs?$AAh?$AA?$AA@ DB 'z', 00H, 's', 00H, 'h', 00H
	DB	00H, 00H					; `string'
CONST	ENDS
;	COMDAT ??_C@_17GEHIDMPI@?$AAk?$AAs?$AAh?$AA?$AA@
CONST	SEGMENT
??_C@_17GEHIDMPI@?$AAk?$AAs?$AAh?$AA?$AA@ DB 'k', 00H, 's', 00H, 'h', 00H
	DB	00H, 00H					; `string'
CONST	ENDS
;	COMDAT ??_C@_19MOJHLFLA@?$AAt?$AAc?$AAs?$AAh?$AA?$AA@
CONST	SEGMENT
??_C@_19MOJHLFLA@?$AAt?$AAc?$AAs?$AAh?$AA?$AA@ DB 't', 00H, 'c', 00H, 's', 00H
	DB	'h', 00H, 00H, 00H				; `string'
CONST	ENDS
;	COMDAT ??_C@_17LHJNCHEN@?$AAc?$AAs?$AAh?$AA?$AA@
CONST	SEGMENT
??_C@_17LHJNCHEN@?$AAc?$AAs?$AAh?$AA?$AA@ DB 'c', 00H, 's', 00H, 'h', 00H
	DB	00H, 00H					; `string'
CONST	ENDS
;	COMDAT ??_C@_19KGACEDGC@?$AAb?$AAa?$AAs?$AAh?$AA?$AA@
CONST	SEGMENT
??_C@_19KGACEDGC@?$AAb?$AAa?$AAs?$AAh?$AA?$AA@ DB 'b', 00H, 'a', 00H, 's', 00H
	DB	'h', 00H, 00H, 00H				; `string'
CONST	ENDS
;	COMDAT ??_C@_15DNBJPONP@?$AAs?$AAh?$AA?$AA@
CONST	SEGMENT
??_C@_15DNBJPONP@?$AAs?$AAh?$AA?$AA@ DB 's', 00H, 'h', 00H, 00H, 00H ; `string'
CONST	ENDS
;	COMDAT ??_C@_1M@IDADAHFF@?$AAs?$AAh?$AAe?$AAl?$AAl?$AA?$AA@
CONST	SEGMENT
??_C@_1M@IDADAHFF@?$AAs?$AAh?$AAe?$AAl?$AAl?$AA?$AA@ DB 's', 00H, 'h', 00H
	DB	'e', 00H, 'l', 00H, 'l', 00H, 00H, 00H	; `string'
CONST	ENDS
;	COMDAT ??_C@_15LKABCOEB@?$AAs?$AAs?$AA?$AA@
CONST	SEGMENT
??_C@_15LKABCOEB@?$AAs?$AAs?$AA?$AA@ DB 's', 00H, 's', 00H, 00H, 00H ; `string'
CONST	ENDS
;	COMDAT ??_C@_17PPCOOEMP@?$AAs?$AAc?$AAm?$AA?$AA@
CONST	SEGMENT
??_C@_17PPCOOEMP@?$AAs?$AAc?$AAm?$AA?$AA@ DB 's', 00H, 'c', 00H, 'm', 00H
	DB	00H, 00H					; `string'
CONST	ENDS
;	COMDAT ??_C@_1O@FCPFPLA@?$AAs?$AAc?$AAh?$AAe?$AAm?$AAe?$AA?$AA@
CONST	SEGMENT
??_C@_1O@FCPFPLA@?$AAs?$AAc?$AAh?$AAe?$AAm?$AAe?$AA?$AA@ DB 's', 00H, 'c', 00H
	DB	'h', 00H, 'e', 00H, 'm', 00H, 'e', 00H, 00H, 00H ; `string'
CONST	ENDS
;	COMDAT ??_C@_1M@NMDCKIF@?$AAs?$AAc?$AAa?$AAl?$AAa?$AA?$AA@
CONST	SEGMENT
??_C@_1M@NMDCKIF@?$AAs?$AAc?$AAa?$AAl?$AAa?$AA?$AA@ DB 's', 00H, 'c', 00H
	DB	'a', 00H, 'l', 00H, 'a', 00H, 00H, 00H	; `string'
CONST	ENDS
;	COMDAT ??_C@_19KLFDHOFH@?$AAs?$AAc?$AAs?$AAs?$AA?$AA@
CONST	SEGMENT
??_C@_19KLFDHOFH@?$AAs?$AAc?$AAs?$AAs?$AA?$AA@ DB 's', 00H, 'c', 00H, 's', 00H
	DB	's', 00H, 00H, 00H				; `string'
CONST	ENDS
;	COMDAT ??_C@_19OJHGHJCK@?$AAs?$AAa?$AAs?$AAs?$AA?$AA@
CONST	SEGMENT
??_C@_19OJHGHJCK@?$AAs?$AAa?$AAs?$AAs?$AA?$AA@ DB 's', 00H, 'a', 00H, 's', 00H
	DB	's', 00H, 00H, 00H				; `string'
CONST	ENDS
;	COMDAT ??_C@_17LOLOHGLG@?$AAs?$AAl?$AAs?$AA?$AA@
CONST	SEGMENT
??_C@_17LOLOHGLG@?$AAs?$AAl?$AAs?$AA?$AA@ DB 's', 00H, 'l', 00H, 's', 00H
	DB	00H, 00H					; `string'
CONST	ENDS
;	COMDAT ??_C@_19IGCBPBNN@?$AAs?$AAa?$AAl?$AAt?$AA?$AA@
CONST	SEGMENT
??_C@_19IGCBPBNN@?$AAs?$AAa?$AAl?$AAt?$AA?$AA@ DB 's', 00H, 'a', 00H, 'l', 00H
	DB	't', 00H, 00H, 00H				; `string'
CONST	ENDS
;	COMDAT ??_C@_19GDJCBFHM@?$AAr?$AAu?$AAs?$AAt?$AA?$AA@
CONST	SEGMENT
??_C@_19GDJCBFHM@?$AAr?$AAu?$AAs?$AAt?$AA?$AA@ DB 'r', 00H, 'u', 00H, 's', 00H
	DB	't', 00H, 00H, 00H				; `string'
CONST	ENDS
;	COMDAT ??_C@_19NMPBPOIG@?$AAs?$AAp?$AAe?$AAc?$AA?$AA@
CONST	SEGMENT
??_C@_19NMPBPOIG@?$AAs?$AAp?$AAe?$AAc?$AA?$AA@ DB 's', 00H, 'p', 00H, 'e', 00H
	DB	'c', 00H, 00H, 00H				; `string'
CONST	ENDS
;	COMDAT ??_C@_17NFBDBNAL@?$AAe?$AAr?$AAb?$AA?$AA@
CONST	SEGMENT
??_C@_17NFBDBNAL@?$AAe?$AAr?$AAb?$AA?$AA@ DB 'e', 00H, 'r', 00H, 'b', 00H
	DB	00H, 00H					; `string'
CONST	ENDS
;	COMDAT ??_C@_19FEOGBMDG@?$AAr?$AAx?$AAm?$AAl?$AA?$AA@
CONST	SEGMENT
??_C@_19FEOGBMDG@?$AAr?$AAx?$AAm?$AAl?$AA?$AA@ DB 'r', 00H, 'x', 00H, 'm', 00H
	DB	'l', 00H, 00H, 00H				; `string'
CONST	ENDS
;	COMDAT ??_C@_17KEENJFDF@?$AAr?$AAj?$AAs?$AA?$AA@
CONST	SEGMENT
??_C@_17KEENJFDF@?$AAr?$AAj?$AAs?$AA?$AA@ DB 'r', 00H, 'j', 00H, 's', 00H
	DB	00H, 00H					; `string'
CONST	ENDS
;	COMDAT ??_C@_1M@GDOLKJCK@?$AAr?$AAh?$AAt?$AAm?$AAl?$AA?$AA@
CONST	SEGMENT
??_C@_1M@GDOLKJCK@?$AAr?$AAh?$AAt?$AAm?$AAl?$AA?$AA@ DB 'r', 00H, 'h', 00H
	DB	't', 00H, 'm', 00H, 'l', 00H, 00H, 00H	; `string'
CONST	ENDS
;	COMDAT ??_C@_15JJPIMNBO@?$AAr?$AAb?$AA?$AA@
CONST	SEGMENT
??_C@_15JJPIMNBO@?$AAr?$AAb?$AA?$AA@ DB 'r', 00H, 'b', 00H, 00H, 00H ; `string'
CONST	ENDS
;	COMDAT ??_C@_19FJHCBMJP@?$AAr?$AAu?$AAb?$AAy?$AA?$AA@
CONST	SEGMENT
??_C@_19FJHCBMJP@?$AAr?$AAu?$AAb?$AAy?$AA?$AA@ DB 'r', 00H, 'u', 00H, 'b', 00H
	DB	'y', 00H, 00H, 00H				; `string'
CONST	ENDS
;	COMDAT ??_C@_19CGAKBPLF@?$AAR?$AAr?$AAs?$AAt?$AA?$AA@
CONST	SEGMENT
??_C@_19CGAKBPLF@?$AAR?$AAr?$AAs?$AAt?$AA?$AA@ DB 'R', 00H, 'r', 00H, 's', 00H
	DB	't', 00H, 00H, 00H				; `string'
CONST	ENDS
;	COMDAT ??_C@_19HPDMEIAM@?$AAR?$AAt?$AAe?$AAx?$AA?$AA@
CONST	SEGMENT
??_C@_19HPDMEIAM@?$AAR?$AAt?$AAe?$AAx?$AA?$AA@ DB 'R', 00H, 't', 00H, 'e', 00H
	DB	'x', 00H, 00H, 00H				; `string'
CONST	ENDS
;	COMDAT ??_C@_17EJMICCCC@?$AAR?$AAn?$AAw?$AA?$AA@
CONST	SEGMENT
??_C@_17EJMICCCC@?$AAR?$AAn?$AAw?$AA?$AA@ DB 'R', 00H, 'n', 00H, 'w', 00H
	DB	00H, 00H					; `string'
CONST	ENDS
;	COMDAT ??_C@_17INPAKIPN@?$AAR?$AAm?$AAd?$AA?$AA@
CONST	SEGMENT
??_C@_17INPAKIPN@?$AAR?$AAm?$AAd?$AA?$AA@ DB 'R', 00H, 'm', 00H, 'd', 00H
	DB	00H, 00H					; `string'
CONST	ENDS
;	COMDAT ??_C@_13LPLPOHMK@?$AAR?$AA?$AA@
CONST	SEGMENT
??_C@_13LPLPOHMK@?$AAR?$AA?$AA@ DB 'R', 00H, 00H, 00H	; `string'
CONST	ENDS
;	COMDAT ??_C@_15HBFNPNOE@?$AAr?$AAs?$AA?$AA@
CONST	SEGMENT
??_C@_15HBFNPNOE@?$AAr?$AAs?$AA?$AA@ DB 'r', 00H, 's', 00H, 00H, 00H ; `string'
CONST	ENDS
;	COMDAT ??_C@_1BE@MAMNOCDP@?$AAR?$AAa?$AAk?$AAe?$AAf?$AAi?$AAl?$AAe?$AAs?$AA?$AA@
CONST	SEGMENT
??_C@_1BE@MAMNOCDP@?$AAR?$AAa?$AAk?$AAe?$AAf?$AAi?$AAl?$AAe?$AAs?$AA?$AA@ DB 'R'
	DB	00H, 'a', 00H, 'k', 00H, 'e', 00H, 'f', 00H, 'i', 00H, 'l', 00H
	DB	'e', 00H, 's', 00H, 00H, 00H			; `string'
CONST	ENDS
;	COMDAT ??_C@_19JMEDJKKB@?$AAr?$AAa?$AAk?$AAe?$AA?$AA@
CONST	SEGMENT
??_C@_19JMEDJKKB@?$AAr?$AAa?$AAk?$AAe?$AA?$AA@ DB 'r', 00H, 'a', 00H, 'k', 00H
	DB	'e', 00H, 00H, 00H				; `string'
CONST	ENDS
;	COMDAT ??_C@_1O@KDDPCNEL@?$AAp?$AAy?$AAt?$AAh?$AAo?$AAn?$AA?$AA@
CONST	SEGMENT
??_C@_1O@KDDPCNEL@?$AAp?$AAy?$AAt?$AAh?$AAo?$AAn?$AA?$AA@ DB 'p', 00H, 'y'
	DB	00H, 't', 00H, 'h', 00H, 'o', 00H, 'n', 00H, 00H, 00H ; `string'
CONST	ENDS
;	COMDAT ??_C@_15COCAPDAB@?$AAp?$AAp?$AA?$AA@
CONST	SEGMENT
??_C@_15COCAPDAB@?$AAp?$AAp?$AA?$AA@ DB 'p', 00H, 'p', 00H, 00H, 00H ; `string'
CONST	ENDS
;	COMDAT ??_C@_1O@JOLPHOLD@?$AAp?$AAu?$AAp?$AAp?$AAe?$AAt?$AA?$AA@
CONST	SEGMENT
??_C@_1O@JOLPHOLD@?$AAp?$AAu?$AAp?$AAp?$AAe?$AAt?$AA?$AA@ DB 'p', 00H, 'u'
	DB	00H, 'p', 00H, 'p', 00H, 'e', 00H, 't', 00H, 00H, 00H ; `string'
CONST	ENDS
;	COMDAT ??_C@_15FDCILMIL@?$AAp?$AAy?$AA?$AA@
CONST	SEGMENT
??_C@_15FDCILMIL@?$AAp?$AAy?$AA?$AA@ DB 'p', 00H, 'y', 00H, 00H, 00H ; `string'
CONST	ENDS
;	COMDAT ??_C@_17NJKMGFBJ@?$AAc?$AAp?$AAy?$AA?$AA@
CONST	SEGMENT
??_C@_17NJKMGFBJ@?$AAc?$AAp?$AAy?$AA?$AA@ DB 'c', 00H, 'p', 00H, 'y', 00H
	DB	00H, 00H					; `string'
CONST	ENDS
;	COMDAT ??_C@_1BC@FIMMKADP@?$AAm?$AAe?$AAt?$AAa?$AAd?$AAa?$AAt?$AAa?$AA?$AA@
CONST	SEGMENT
??_C@_1BC@FIMMKADP@?$AAm?$AAe?$AAt?$AAa?$AAd?$AAa?$AAt?$AAa?$AA?$AA@ DB 'm'
	DB	00H, 'e', 00H, 't', 00H, 'a', 00H, 'd', 00H, 'a', 00H, 't', 00H
	DB	'a', 00H, 00H, 00H				; `string'
CONST	ENDS
;	COMDAT ??_C@_17CLMGLNME@?$AAc?$AAp?$AAt?$AA?$AA@
CONST	SEGMENT
??_C@_17CLMGLNME@?$AAc?$AAp?$AAt?$AA?$AA@ DB 'c', 00H, 'p', 00H, 't', 00H
	DB	00H, 00H					; `string'
CONST	ENDS
;	COMDAT ??_C@_15KBECGEFG@?$AAp?$AAt?$AA?$AA@
CONST	SEGMENT
??_C@_15KBECGEFG@?$AAp?$AAt?$AA?$AA@ DB 'p', 00H, 't', 00H, 00H, 00H ; `string'
CONST	ENDS
;	COMDAT ??_C@_1M@FMHGIHJG@?$AAp?$AAl?$AAo?$AAn?$AAe?$AA?$AA@
CONST	SEGMENT
??_C@_1M@FMHGIHJG@?$AAp?$AAl?$AAo?$AAn?$AAe?$AA?$AA@ DB 'p', 00H, 'l', 00H
	DB	'o', 00H, 'n', 00H, 'e', 00H, 00H, 00H	; `string'
CONST	ENDS
;	COMDAT ??_C@_19OMDEHKKA@?$AAp?$AAm?$AAo?$AAd?$AA?$AA@
CONST	SEGMENT
??_C@_19OMDEHKKA@?$AAp?$AAm?$AAo?$AAd?$AA?$AA@ DB 'p', 00H, 'm', 00H, 'o', 00H
	DB	'd', 00H, 00H, 00H				; `string'
CONST	ENDS
;	COMDAT ??_C@_19ELFDFBCJ@?$AAp?$AAi?$AAk?$AAe?$AA?$AA@
CONST	SEGMENT
??_C@_19ELFDFBCJ@?$AAp?$AAi?$AAk?$AAe?$AA?$AA@ DB 'p', 00H, 'i', 00H, 'k', 00H
	DB	'e', 00H, 00H, 00H				; `string'
CONST	ENDS
;	COMDAT ??_C@_1M@IPNADHLF@?$AAp?$AAh?$AAt?$AAm?$AAl?$AA?$AA@
CONST	SEGMENT
??_C@_1M@IPNADHLF@?$AAp?$AAh?$AAt?$AAm?$AAl?$AA?$AA@ DB 'p', 00H, 'h', 00H
	DB	't', 00H, 'm', 00H, 'l', 00H, 00H, 00H	; `string'
CONST	ENDS
;	COMDAT ??_C@_19CFOFKMEN@?$AAp?$AAh?$AAp?$AA5?$AA?$AA@
CONST	SEGMENT
??_C@_19CFOFKMEN@?$AAp?$AAh?$AAp?$AA5?$AA?$AA@ DB 'p', 00H, 'h', 00H, 'p', 00H
	DB	'5', 00H, 00H, 00H				; `string'
CONST	ENDS
;	COMDAT ??_C@_19JNFJMLCI@?$AAp?$AAh?$AAp?$AA4?$AA?$AA@
CONST	SEGMENT
??_C@_19JNFJMLCI@?$AAp?$AAh?$AAp?$AA4?$AA?$AA@ DB 'p', 00H, 'h', 00H, 'p', 00H
	DB	'4', 00H, 00H, 00H				; `string'
CONST	ENDS
;	COMDAT ??_C@_19IOPDJB@?$AAp?$AAh?$AAp?$AA3?$AA?$AA@
CONST	SEGMENT
??_C@_19IOPDJB@?$AAp?$AAh?$AAp?$AA3?$AA?$AA@ DB 'p', 00H, 'h', 00H, 'p', 00H
	DB	'3', 00H, 00H, 00H				; `string'
CONST	ENDS
;	COMDAT ??_C@_19GENJDBF@?$AAp?$AAh?$AAp?$AAt?$AA?$AA@
CONST	SEGMENT
??_C@_19GENJDBF@?$AAp?$AAh?$AAp?$AAt?$AA?$AA@ DB 'p', 00H, 'h', 00H, 'p', 00H
	DB	't', 00H, 00H, 00H				; `string'
CONST	ENDS
;	COMDAT ??_C@_17LJBFJMKN@?$AAp?$AAh?$AAp?$AA?$AA@
CONST	SEGMENT
??_C@_17LJBFJMKN@?$AAp?$AAh?$AAp?$AA?$AA@ DB 'p', 00H, 'h', 00H, 'p', 00H
	DB	00H, 00H					; `string'
CONST	ENDS
;	COMDAT ??_C@_13DKOGBHCI@?$AAt?$AA?$AA@
CONST	SEGMENT
??_C@_13DKOGBHCI@?$AAt?$AA?$AA@ DB 't', 00H, 00H, 00H	; `string'
CONST	ENDS
;	COMDAT ??_C@_17FHKHAKPP@?$AAp?$AAm?$AA6?$AA?$AA@
CONST	SEGMENT
??_C@_17FHKHAKPP@?$AAp?$AAm?$AA6?$AA?$AA@ DB 'p', 00H, 'm', 00H, '6', 00H
	DB	00H, 00H					; `string'
CONST	ENDS
;	COMDAT ??_C@_15IMFDHMED@?$AAp?$AAm?$AA?$AA@
CONST	SEGMENT
??_C@_15IMFDHMED@?$AAp?$AAm?$AA?$AA@ DB 'p', 00H, 'm', 00H, 00H, 00H ; `string'
CONST	ENDS
;	COMDAT ??_C@_15DEOPBLCG@?$AAp?$AAl?$AA?$AA@
CONST	SEGMENT
??_C@_15DEOPBLCG@?$AAp?$AAl?$AA?$AA@ DB 'p', 00H, 'l', 00H, 00H, 00H ; `string'
CONST	ENDS
;	COMDAT ??_C@_19EFCNFILP@?$AAp?$AAe?$AAr?$AAl?$AA?$AA@
CONST	SEGMENT
??_C@_19EFCNFILP@?$AAp?$AAe?$AAr?$AAl?$AA?$AA@ DB 'p', 00H, 'e', 00H, 'r', 00H
	DB	'l', 00H, 00H, 00H				; `string'
CONST	ENDS
;	COMDAT ??_C@_15HIHPNODB@?$AAt?$AAg?$AA?$AA@
CONST	SEGMENT
??_C@_15HIHPNODB@?$AAt?$AAg?$AA?$AA@ DB 't', 00H, 'g', 00H, 00H, 00H ; `string'
CONST	ENDS
;	COMDAT ??_C@_15ODOOJMCH@?$AAp?$AAg?$AA?$AA@
CONST	SEGMENT
??_C@_15ODOOJMCH@?$AAp?$AAg?$AA?$AA@ DB 'p', 00H, 'g', 00H, 00H, 00H ; `string'
CONST	ENDS
;	COMDAT ??_C@_17HLGLGMNN@?$AAp?$AAo?$AAd?$AA?$AA@
CONST	SEGMENT
??_C@_17HLGLGMNN@?$AAp?$AAo?$AAd?$AA?$AA@ DB 'p', 00H, 'o', 00H, 'd', 00H
	DB	00H, 00H					; `string'
CONST	ENDS
;	COMDAT ??_C@_17OBLOJADC@?$AAo?$AAp?$AAs?$AA?$AA@
CONST	SEGMENT
??_C@_17OBLOJADC@?$AAo?$AAp?$AAs?$AA?$AA@ DB 'o', 00H, 'p', 00H, 's', 00H
	DB	00H, 00H					; `string'
CONST	ENDS
;	COMDAT ??_C@_17KLHEPFGP@?$AAp?$AAm?$AAc?$AA?$AA@
CONST	SEGMENT
??_C@_17KLHEPFGP@?$AAp?$AAm?$AAc?$AA?$AA@ DB 'p', 00H, 'm', 00H, 'c', 00H
	DB	00H, 00H					; `string'
CONST	ENDS
;	COMDAT ??_C@_19LCIHOCIF@?$AAp?$AAa?$AAs?$AAm?$AA?$AA@
CONST	SEGMENT
??_C@_19LCIHOCIF@?$AAp?$AAa?$AAs?$AAm?$AA?$AA@ DB 'p', 00H, 'a', 00H, 's', 00H
	DB	'm', 00H, 00H, 00H				; `string'
CONST	ENDS
;	COMDAT ??_C@_17NIEAIHID@?$AAp?$AAi?$AAr?$AA?$AA@
CONST	SEGMENT
??_C@_17NIEAIHID@?$AAp?$AAi?$AAr?$AA?$AA@ DB 'p', 00H, 'i', 00H, 'r', 00H
	DB	00H, 00H					; `string'
CONST	ENDS
;	COMDAT ??_C@_1O@HGOKFMBG@?$AAp?$AAa?$AAr?$AAr?$AAo?$AAt?$AA?$AA@
CONST	SEGMENT
??_C@_1O@HGOKFMBG@?$AAp?$AAa?$AAr?$AAr?$AAo?$AAt?$AA?$AA@ DB 'p', 00H, 'a'
	DB	00H, 'r', 00H, 'r', 00H, 'o', 00H, 't', 00H, 00H, 00H ; `string'
CONST	ENDS
;	COMDAT ??_C@_1O@JJKBGPDF@?$AAo?$AAc?$AAt?$AAa?$AAv?$AAe?$AA?$AA@
CONST	SEGMENT
??_C@_1O@JJKBGPDF@?$AAo?$AAc?$AAt?$AAa?$AAv?$AAe?$AA?$AA@ DB 'o', 00H, 'c'
	DB	00H, 't', 00H, 'a', 00H, 'v', 00H, 'e', 00H, 00H, 00H ; `string'
CONST	ENDS
;	COMDAT ??_C@_17LIDCLFML@?$AAm?$AAl?$AAy?$AA?$AA@
CONST	SEGMENT
??_C@_17LIDCLFML@?$AAm?$AAl?$AAy?$AA?$AA@ DB 'm', 00H, 'l', 00H, 'y', 00H
	DB	00H, 00H					; `string'
CONST	ENDS
;	COMDAT ??_C@_17NPPFBCGG@?$AAm?$AAl?$AAl?$AA?$AA@
CONST	SEGMENT
??_C@_17NPPFBCGG@?$AAm?$AAl?$AAl?$AA?$AA@ DB 'm', 00H, 'l', 00H, 'l', 00H
	DB	00H, 00H					; `string'
CONST	ENDS
;	COMDAT ??_C@_17OICLOCFE@?$AAm?$AAl?$AAi?$AA?$AA@
CONST	SEGMENT
??_C@_17OICLOCFE@?$AAm?$AAl?$AAi?$AA?$AA@ DB 'm', 00H, 'l', 00H, 'i', 00H
	DB	00H, 00H					; `string'
CONST	ENDS
;	COMDAT ??_C@_15ILKHAKGD@?$AAm?$AAl?$AA?$AA@
CONST	SEGMENT
??_C@_15ILKHAKGD@?$AAm?$AAl?$AA?$AA@ DB 'm', 00H, 'l', 00H, 00H, 00H ; `string'
CONST	ENDS
;	COMDAT ??_C@_1M@DNOHIBIA@?$AAo?$AAc?$AAa?$AAm?$AAl?$AA?$AA@
CONST	SEGMENT
??_C@_1M@DNOHIBIA@?$AAo?$AAc?$AAa?$AAm?$AAl?$AA?$AA@ DB 'o', 00H, 'c', 00H
	DB	'a', 00H, 'm', 00H, 'l', 00H, 00H, 00H	; `string'
CONST	ENDS
;	COMDAT ??_C@_15DDBLGNAG@?$AAm?$AAm?$AA?$AA@
CONST	SEGMENT
??_C@_15DDBLGNAG@?$AAm?$AAm?$AA?$AA@ DB 'm', 00H, 'm', 00H, 00H, 00H ; `string'
CONST	ENDS
;	COMDAT ??_C@_1O@MININBMM@?$AAo?$AAb?$AAj?$AAc?$AAp?$AAp?$AA?$AA@
CONST	SEGMENT
??_C@_1O@MININBMM@?$AAo?$AAb?$AAj?$AAc?$AAp?$AAp?$AA?$AA@ DB 'o', 00H, 'b'
	DB	00H, 'j', 00H, 'c', 00H, 'p', 00H, 'p', 00H, 00H, 00H ; `string'
CONST	ENDS
;	COMDAT ??_C@_19COKLBLGD@?$AAo?$AAb?$AAj?$AAc?$AA?$AA@
CONST	SEGMENT
??_C@_19COKLBLGD@?$AAo?$AAb?$AAj?$AAc?$AA?$AA@ DB 'o', 00H, 'b', 00H, 'j', 00H
	DB	'c', 00H, 00H, 00H				; `string'
CONST	ENDS
;	COMDAT ??_C@_17LJALODFD@?$AAn?$AAi?$AAm?$AA?$AA@
CONST	SEGMENT
??_C@_17LJALODFD@?$AAn?$AAi?$AAm?$AA?$AA@ DB 'n', 00H, 'i', 00H, 'm', 00H
	DB	00H, 00H					; `string'
CONST	ENDS
;	COMDAT ??_C@_17ELNEMPCG@?$AAm?$AAo?$AAo?$AA?$AA@
CONST	SEGMENT
??_C@_17ELNEMPCG@?$AAm?$AAo?$AAo?$AA?$AA@ DB 'm', 00H, 'o', 00H, 'o', 00H
	DB	00H, 00H					; `string'
CONST	ENDS
;	COMDAT ??_C@_1BA@GNPNOGAA@?$AAm?$AAe?$AAr?$AAc?$AAu?$AAr?$AAy?$AA?$AA@
CONST	SEGMENT
??_C@_1BA@GNPNOGAA@?$AAm?$AAe?$AAr?$AAc?$AAu?$AAr?$AAy?$AA?$AA@ DB 'm', 00H
	DB	'e', 00H, 'r', 00H, 'c', 00H, 'u', 00H, 'r', 00H, 'y', 00H, 00H
	DB	00H						; `string'
CONST	ENDS
;	COMDAT ??_C@_15CJOKCLJO@?$AAw?$AAl?$AA?$AA@
CONST	SEGMENT
??_C@_15CJOKCLJO@?$AAw?$AAl?$AA?$AA@ DB 'w', 00H, 'l', 00H, 00H, 00H ; `string'
CONST	ENDS
;	COMDAT ??_C@_1BI@GMGCAJEL@?$AAm?$AAa?$AAt?$AAh?$AAe?$AAm?$AAa?$AAt?$AAi?$AAc?$AAa?$AA?$AA@
CONST	SEGMENT
??_C@_1BI@GMGCAJEL@?$AAm?$AAa?$AAt?$AAh?$AAe?$AAm?$AAa?$AAt?$AAi?$AAc?$AAa?$AA?$AA@ DB 'm'
	DB	00H, 'a', 00H, 't', 00H, 'h', 00H, 'e', 00H, 'm', 00H, 'a', 00H
	DB	't', 00H, 'i', 00H, 'c', 00H, 'a', 00H, 00H, 00H ; `string'
CONST	ENDS
;	COMDAT ??_C@_1O@IMPFCKEM@?$AAm?$AAa?$AAt?$AAl?$AAa?$AAb?$AA?$AA@
CONST	SEGMENT
??_C@_1O@IMPFCKEM@?$AAm?$AAa?$AAt?$AAl?$AAa?$AAb?$AA?$AA@ DB 'm', 00H, 'a'
	DB	00H, 't', 00H, 'l', 00H, 'a', 00H, 'b', 00H, 00H, 00H ; `string'
CONST	ENDS
;	COMDAT ??_C@_19BDFKDPEE@?$AAm?$AAt?$AAx?$AAt?$AA?$AA@
CONST	SEGMENT
??_C@_19BDFKDPEE@?$AAm?$AAt?$AAx?$AAt?$AA?$AA@ DB 'm', 00H, 't', 00H, 'x', 00H
	DB	't', 00H, 00H, 00H				; `string'
CONST	ENDS
;	COMDAT ??_C@_17KLOBNAIG@?$AAm?$AAp?$AAl?$AA?$AA@
CONST	SEGMENT
??_C@_17KLOBNAIG@?$AAm?$AAp?$AAl?$AA?$AA@ DB 'm', 00H, 'p', 00H, 'l', 00H
	DB	00H, 00H					; `string'
CONST	ENDS
;	COMDAT ??_C@_1M@BNGHNLKH@?$AAm?$AAh?$AAt?$AAm?$AAl?$AA?$AA@
CONST	SEGMENT
??_C@_1M@BNGHNLKH@?$AAm?$AAh?$AAt?$AAm?$AAl?$AA?$AA@ DB 'm', 00H, 'h', 00H
	DB	't', 00H, 'm', 00H, 'l', 00H, 00H, 00H	; `string'
CONST	ENDS
;	COMDAT ??_C@_17GLBBEGHB@?$AAm?$AAa?$AAs?$AA?$AA@
CONST	SEGMENT
??_C@_17GLBBEGHB@?$AAm?$AAa?$AAs?$AA?$AA@ DB 'm', 00H, 'a', 00H, 's', 00H
	DB	00H, 00H					; `string'
CONST	ENDS
;	COMDAT ??_C@_1M@MHGJAPE@?$AAm?$AAa?$AAs?$AAo?$AAn?$AA?$AA@
CONST	SEGMENT
??_C@_1M@MHGJAPE@?$AAm?$AAa?$AAs?$AAo?$AAn?$AA?$AA@ DB 'm', 00H, 'a', 00H
	DB	's', 00H, 'o', 00H, 'n', 00H, 00H, 00H	; `string'
CONST	ENDS
;	COMDAT ??_C@_15EOBDCCIM@?$AAm?$AAd?$AA?$AA@
CONST	SEGMENT
??_C@_15EOBDCCIM@?$AAm?$AAd?$AA?$AA@ DB 'm', 00H, 'd', 00H, 00H, 00H ; `string'
CONST	ENDS
;	COMDAT ??_C@_17HEEAKDB@?$AAm?$AAk?$AAd?$AA?$AA@
CONST	SEGMENT
??_C@_17HEEAKDB@?$AAm?$AAk?$AAd?$AA?$AA@ DB 'm', 00H, 'k', 00H, 'd', 00H, 00H
	DB	00H						; `string'
CONST	ENDS
;	COMDAT ??_C@_19PNHBGJNI@?$AAm?$AAk?$AAd?$AAn?$AA?$AA@
CONST	SEGMENT
??_C@_19PNHBGJNI@?$AAm?$AAk?$AAd?$AAn?$AA?$AA@ DB 'm', 00H, 'k', 00H, 'd', 00H
	DB	'n', 00H, 00H, 00H				; `string'
CONST	ENDS
;	COMDAT ??_C@_19KBBDALEB@?$AAm?$AAd?$AAw?$AAn?$AA?$AA@
CONST	SEGMENT
??_C@_19KBBDALEB@?$AAm?$AAd?$AAw?$AAn?$AA?$AA@ DB 'm', 00H, 'd', 00H, 'w', 00H
	DB	'n', 00H, 00H, 00H				; `string'
CONST	ENDS
;	COMDAT ??_C@_1M@COMOPPCC@?$AAm?$AAd?$AAo?$AAw?$AAn?$AA?$AA@
CONST	SEGMENT
??_C@_1M@COMOPPCC@?$AAm?$AAd?$AAo?$AAw?$AAn?$AA?$AA@ DB 'm', 00H, 'd', 00H
	DB	'o', 00H, 'w', 00H, 'n', 00H, 00H, 00H	; `string'
CONST	ENDS
;	COMDAT ??_C@_1BC@FFHFDPKF@?$AAm?$AAa?$AAr?$AAk?$AAd?$AAo?$AAw?$AAn?$AA?$AA@
CONST	SEGMENT
??_C@_1BC@FFHFDPKF@?$AAm?$AAa?$AAr?$AAk?$AAd?$AAo?$AAw?$AAn?$AA?$AA@ DB 'm'
	DB	00H, 'a', 00H, 'r', 00H, 'k', 00H, 'd', 00H, 'o', 00H, 'w', 00H
	DB	'n', 00H, 00H, 00H				; `string'
CONST	ENDS
;	COMDAT ??_C@_17POLMDJAB@?$AAm?$AAa?$AAk?$AA?$AA@
CONST	SEGMENT
??_C@_17POLMDJAB@?$AAm?$AAa?$AAk?$AA?$AA@ DB 'm', 00H, 'a', 00H, 'k', 00H
	DB	00H, 00H					; `string'
CONST	ENDS
;	COMDAT ??_C@_15BGHADCNK@?$AAm?$AAk?$AA?$AA@
CONST	SEGMENT
??_C@_15BGHADCNK@?$AAm?$AAk?$AA?$AA@ DB 'm', 00H, 'k', 00H, 00H, 00H ; `string'
CONST	ENDS
;	COMDAT ??_C@_1BE@FMJEDJDL@?$AAM?$AAa?$AAk?$AAe?$AAf?$AAi?$AAl?$AAe?$AAs?$AA?$AA@
CONST	SEGMENT
??_C@_1BE@FMJEDJDL@?$AAM?$AAa?$AAk?$AAe?$AAf?$AAi?$AAl?$AAe?$AAs?$AA?$AA@ DB 'M'
	DB	00H, 'a', 00H, 'k', 00H, 'e', 00H, 'f', 00H, 'i', 00H, 'l', 00H
	DB	'e', 00H, 's', 00H, 00H, 00H			; `string'
CONST	ENDS
;	COMDAT ??_C@_19EKOGEAME@?$AAm?$AAa?$AAk?$AAe?$AA?$AA@
CONST	SEGMENT
??_C@_19EKOGEAME@?$AAm?$AAa?$AAk?$AAe?$AA?$AA@ DB 'm', 00H, 'a', 00H, 'k', 00H
	DB	'e', 00H, 00H, 00H				; `string'
CONST	ENDS
;	COMDAT ??_C@_15IFBOCNCO@?$AAm?$AA4?$AA?$AA@
CONST	SEGMENT
??_C@_15IFBOCNCO@?$AAm?$AA4?$AA?$AA@ DB 'm', 00H, '4', 00H, 00H, 00H ; `string'
CONST	ENDS
;	COMDAT ??_C@_17MFOMJJHG@?$AAl?$AAu?$AAa?$AA?$AA@
CONST	SEGMENT
??_C@_17MFOMJJHG@?$AAl?$AAu?$AAa?$AA?$AA@ DB 'l', 00H, 'u', 00H, 'a', 00H
	DB	00H, 00H					; `string'
CONST	ENDS
;	COMDAT ??_C@_17PLBAEKJB@?$AAl?$AAs?$AAp?$AA?$AA@
CONST	SEGMENT
??_C@_17PLBAEKJB@?$AAl?$AAs?$AAp?$AA?$AA@ DB 'l', 00H, 's', 00H, 'p', 00H
	DB	00H, 00H					; `string'
CONST	ENDS
;	COMDAT ??_C@_19POIDBHBE@?$AAl?$AAi?$AAs?$AAp?$AA?$AA@
CONST	SEGMENT
??_C@_19POIDBHBE@?$AAl?$AAi?$AAs?$AAp?$AA?$AA@ DB 'l', 00H, 'i', 00H, 's', 00H
	DB	'p', 00H, 00H, 00H				; `string'
CONST	ENDS
;	COMDAT ??_C@_1O@FLBDIBDB@?$AAl?$AAi?$AAq?$AAu?$AAi?$AAd?$AA?$AA@
CONST	SEGMENT
??_C@_1O@FLBDIBDB@?$AAl?$AAi?$AAq?$AAu?$AAi?$AAd?$AA?$AA@ DB 'l', 00H, 'i'
	DB	00H, 'q', 00H, 'u', 00H, 'i', 00H, 'd', 00H, 00H, 00H ; `string'
CONST	ENDS
;	COMDAT ??_C@_19LLJJKNLF@?$AAl?$AAe?$AAs?$AAs?$AA?$AA@
CONST	SEGMENT
??_C@_19LLJJKNLF@?$AAl?$AAe?$AAs?$AAs?$AA?$AA@ DB 'l', 00H, 'e', 00H, 's', 00H
	DB	's', 00H, 00H, 00H				; `string'
CONST	ENDS
;	COMDAT ??_C@_1M@GJPPDCCI@?$AAj?$AAh?$AAt?$AAm?$AAl?$AA?$AA@
CONST	SEGMENT
??_C@_1M@GJPPDCCI@?$AAj?$AAh?$AAt?$AAm?$AAl?$AA?$AA@ DB 'j', 00H, 'h', 00H
	DB	't', 00H, 'm', 00H, 'l', 00H, 00H, 00H	; `string'
CONST	ENDS
;	COMDAT ??_C@_19IAEBNIDH@?$AAj?$AAh?$AAt?$AAm?$AA?$AA@
CONST	SEGMENT
??_C@_19IAEBNIDH@?$AAj?$AAh?$AAt?$AAm?$AA?$AA@ DB 'j', 00H, 'h', 00H, 't', 00H
	DB	'm', 00H, 00H, 00H				; `string'
CONST	ENDS
;	COMDAT ??_C@_19FNMGBAPB@?$AAj?$AAs?$AAp?$AAx?$AA?$AA@
CONST	SEGMENT
??_C@_19FNMGBAPB@?$AAj?$AAs?$AAp?$AAx?$AA?$AA@ DB 'j', 00H, 's', 00H, 'p', 00H
	DB	'x', 00H, 00H, 00H				; `string'
CONST	ENDS
;	COMDAT ??_C@_17DNHPEDBG@?$AAj?$AAs?$AAp?$AA?$AA@
CONST	SEGMENT
??_C@_17DNHPEDBG@?$AAj?$AAs?$AAp?$AA?$AA@ DB 'j', 00H, 's', 00H, 'p', 00H
	DB	00H, 00H					; `string'
CONST	ENDS
;	COMDAT ??_C@_19NKDEKIPM@?$AAj?$AAs?$AAo?$AAn?$AA?$AA@
CONST	SEGMENT
??_C@_19NKDEKIPM@?$AAj?$AAs?$AAo?$AAn?$AA?$AA@ DB 'j', 00H, 's', 00H, 'o', 00H
	DB	'n', 00H, 00H, 00H				; `string'
CONST	ENDS
;	COMDAT ??_C@_17PIMLGLPJ@?$AAj?$AAs?$AAx?$AA?$AA@
CONST	SEGMENT
??_C@_17PIMLGLPJ@?$AAj?$AAs?$AAx?$AA?$AA@ DB 'j', 00H, 's', 00H, 'x', 00H
	DB	00H, 00H					; `string'
CONST	ENDS
;	COMDAT ??_C@_15JONIHNBC@?$AAj?$AAs?$AA?$AA@
CONST	SEGMENT
??_C@_15JONIHNBC@?$AAj?$AAs?$AA?$AA@ DB 'j', 00H, 's', 00H, 00H, 00H ; `string'
CONST	ENDS
;	COMDAT ??_C@_1BG@KGJELGAJ@?$AAp?$AAr?$AAo?$AAp?$AAe?$AAr?$AAt?$AAi?$AAe?$AAs?$AA?$AA@
CONST	SEGMENT
??_C@_1BG@KGJELGAJ@?$AAp?$AAr?$AAo?$AAp?$AAe?$AAr?$AAt?$AAi?$AAe?$AAs?$AA?$AA@ DB 'p'
	DB	00H, 'r', 00H, 'o', 00H, 'p', 00H, 'e', 00H, 'r', 00H, 't', 00H
	DB	'i', 00H, 'e', 00H, 's', 00H, 00H, 00H	; `string'
CONST	ENDS
;	COMDAT ??_C@_19JIBANNKP@?$AAj?$AAa?$AAv?$AAa?$AA?$AA@
CONST	SEGMENT
??_C@_19JIBANNKP@?$AAj?$AAa?$AAv?$AAa?$AA?$AA@ DB 'j', 00H, 'a', 00H, 'v', 00H
	DB	'a', 00H, 00H, 00H				; `string'
CONST	ENDS
;	COMDAT ??_C@_19FJGMOJGI@?$AAj?$AAa?$AAd?$AAe?$AA?$AA@
CONST	SEGMENT
??_C@_19FJGMOJGI@?$AAj?$AAa?$AAd?$AAe?$AA?$AA@ DB 'j', 00H, 'a', 00H, 'd', 00H
	DB	'e', 00H, 00H, 00H				; `string'
CONST	ENDS
;	COMDAT ??_C@_17CBKJENKF@?$AAi?$AAn?$AAi?$AA?$AA@
CONST	SEGMENT
??_C@_17CBKJENKF@?$AAi?$AAn?$AAi?$AA?$AA@ DB 'i', 00H, 'n', 00H, 'i', 00H
	DB	00H, 00H					; `string'
CONST	ENDS
;	COMDAT ??_C@_1M@IJNMEBEL@?$AAx?$AAh?$AAt?$AAm?$AAl?$AA?$AA@
CONST	SEGMENT
??_C@_1M@IJNMEBEL@?$AAx?$AAh?$AAt?$AAm?$AAl?$AA?$AA@ DB 'x', 00H, 'h', 00H
	DB	't', 00H, 'm', 00H, 'l', 00H, 00H, 00H	; `string'
CONST	ENDS
;	COMDAT ??_C@_1M@PIEOOFEF@?$AAs?$AAh?$AAt?$AAm?$AAl?$AA?$AA@
CONST	SEGMENT
??_C@_1M@PIEOOFEF@?$AAs?$AAh?$AAt?$AAm?$AAl?$AA?$AA@ DB 's', 00H, 'h', 00H
	DB	't', 00H, 'm', 00H, 'l', 00H, 00H, 00H	; `string'
CONST	ENDS
;	COMDAT ??_C@_17MACMPLJB@?$AAh?$AAt?$AAm?$AA?$AA@
CONST	SEGMENT
??_C@_17MACMPLJB@?$AAh?$AAt?$AAm?$AA?$AA@ DB 'h', 00H, 't', 00H, 'm', 00H
	DB	00H, 00H					; `string'
CONST	ENDS
;	COMDAT ??_C@_19DDMFBIFI@?$AAh?$AAt?$AAm?$AAl?$AA?$AA@
CONST	SEGMENT
??_C@_19DDMFBIFI@?$AAh?$AAt?$AAm?$AAl?$AA?$AA@ DB 'h', 00H, 't', 00H, 'm', 00H
	DB	'l', 00H, 00H, 00H				; `string'
CONST	ENDS
;	COMDAT ??_C@_17IALEBHCH@?$AAl?$AAh?$AAs?$AA?$AA@
CONST	SEGMENT
??_C@_17IALEBHCH@?$AAl?$AAh?$AAs?$AA?$AA@ DB 'l', 00H, 'h', 00H, 's', 00H
	DB	00H, 00H					; `string'
CONST	ENDS
;	COMDAT ??_C@_15NDBANMBJ@?$AAh?$AAs?$AA?$AA@
CONST	SEGMENT
??_C@_15NDBANMBJ@?$AAh?$AAs?$AA?$AA@ DB 'h', 00H, 's', 00H, 00H, 00H ; `string'
CONST	ENDS
;	COMDAT ??_C@_1BA@KENKENPL@?$AAh?$AAa?$AAs?$AAk?$AAe?$AAl?$AAl?$AA?$AA@
CONST	SEGMENT
??_C@_1BA@KENKENPL@?$AAh?$AAa?$AAs?$AAk?$AAe?$AAl?$AAl?$AA?$AA@ DB 'h', 00H
	DB	'a', 00H, 's', 00H, 'k', 00H, 'e', 00H, 'l', 00H, 'l', 00H, 00H
	DB	00H						; `string'
CONST	ENDS
;	COMDAT ??_C@_19HJOCHBH@?$AAh?$AAa?$AAm?$AAl?$AA?$AA@
CONST	SEGMENT
??_C@_19HJOCHBH@?$AAh?$AAa?$AAm?$AAl?$AA?$AA@ DB 'h', 00H, 'a', 00H, 'm', 00H
	DB	'l', 00H, 00H, 00H				; `string'
CONST	ENDS
;	COMDAT ??_C@_1O@BBICCJLG@?$AAg?$AAr?$AAu?$AAn?$AAi?$AAt?$AA?$AA@
CONST	SEGMENT
??_C@_1O@BBICCJLG@?$AAg?$AAr?$AAu?$AAn?$AAi?$AAt?$AA?$AA@ DB 'g', 00H, 'r'
	DB	00H, 'u', 00H, 'n', 00H, 'i', 00H, 't', 00H, 00H, 00H ; `string'
CONST	ENDS
;	COMDAT ??_C@_17CAOOCEGJ@?$AAg?$AAp?$AAp?$AA?$AA@
CONST	SEGMENT
??_C@_17CAOOCEGJ@?$AAg?$AAp?$AAp?$AA?$AA@ DB 'g', 00H, 'p', 00H, 'p', 00H
	DB	00H, 00H					; `string'
CONST	ENDS
;	COMDAT ??_C@_1M@BGHOGJOF@?$AAg?$AAt?$AAm?$AAp?$AAl?$AA?$AA@
CONST	SEGMENT
??_C@_1M@BGHOGJOF@?$AAg?$AAt?$AAm?$AAp?$AAl?$AA?$AA@ DB 'g', 00H, 't', 00H
	DB	'm', 00H, 'p', 00H, 'l', 00H, 00H, 00H	; `string'
CONST	ENDS
;	COMDAT ??_C@_1O@ONEOFAJK@?$AAg?$AAr?$AAo?$AAo?$AAv?$AAy?$AA?$AA@
CONST	SEGMENT
??_C@_1O@ONEOFAJK@?$AAg?$AAr?$AAo?$AAo?$AAv?$AAy?$AA?$AA@ DB 'g', 00H, 'r'
	DB	00H, 'o', 00H, 'o', 00H, 'v', 00H, 'y', 00H, 00H, 00H ; `string'
CONST	ENDS
;	COMDAT ??_C@_15DIIJIGOL@?$AAg?$AAo?$AA?$AA@
CONST	SEGMENT
??_C@_15DIIJIGOL@?$AAg?$AAo?$AA?$AA@ DB 'g', 00H, 'o', 00H, 00H, 00H ; `string'
CONST	ENDS
;	COMDAT ??_C@_15JJBCKFIN@?$AAm?$AAo?$AA?$AA@
CONST	SEGMENT
??_C@_15JJBCKFIN@?$AAm?$AAo?$AA?$AA@ DB 'm', 00H, 'o', 00H, 00H, 00H ; `string'
CONST	ENDS
;	COMDAT ??_C@_17CLHCDLEC@?$AAp?$AAo?$AAt?$AA?$AA@
CONST	SEGMENT
??_C@_17CLHCDLEC@?$AAp?$AAo?$AAt?$AA?$AA@ DB 'p', 00H, 'o', 00H, 't', 00H
	DB	00H, 00H					; `string'
CONST	ENDS
;	COMDAT ??_C@_15CGFKLEMI@?$AAp?$AAo?$AA?$AA@
CONST	SEGMENT
??_C@_15CGFKLEMI@?$AAp?$AAo?$AA?$AA@ DB 'p', 00H, 'o', 00H, 00H, 00H ; `string'
CONST	ENDS
;	COMDAT ??_C@_1BA@JMELKJMN@?$AAg?$AAe?$AAt?$AAt?$AAe?$AAx?$AAt?$AA?$AA@
CONST	SEGMENT
??_C@_1BA@JMELKJMN@?$AAg?$AAe?$AAt?$AAt?$AAe?$AAx?$AAt?$AA?$AA@ DB 'g', 00H
	DB	'e', 00H, 't', 00H, 't', 00H, 'e', 00H, 'x', 00H, 't', 00H, 00H
	DB	00H						; `string'
CONST	ENDS
;	COMDAT ??_C@_17KPGEHOLG@?$AAf?$AAs?$AAx?$AA?$AA@
CONST	SEGMENT
??_C@_17KPGEHOLG@?$AAf?$AAs?$AAx?$AA?$AA@ DB 'f', 00H, 's', 00H, 'x', 00H
	DB	00H, 00H					; `string'
CONST	ENDS
;	COMDAT ??_C@_17EHMBEOEM@?$AAf?$AAs?$AAi?$AA?$AA@
CONST	SEGMENT
??_C@_17EHMBEOEM@?$AAf?$AAs?$AAi?$AA?$AA@ DB 'f', 00H, 's', 00H, 'i', 00H
	DB	00H, 00H					; `string'
CONST	ENDS
;	COMDAT ??_C@_15OJBKLNGJ@?$AAf?$AAs?$AA?$AA@
CONST	SEGMENT
??_C@_15OJBKLNGJ@?$AAf?$AAs?$AA?$AA@ DB 'f', 00H, 's', 00H, 00H, 00H ; `string'
CONST	ENDS
;	COMDAT ??_C@_1O@PKCLPJFE@?$AAf?$AAs?$AAh?$AAa?$AAr?$AAp?$AA?$AA@
CONST	SEGMENT
??_C@_1O@PKCLPJFE@?$AAf?$AAs?$AAh?$AAa?$AAr?$AAp?$AA?$AA@ DB 'f', 00H, 's'
	DB	00H, 'h', 00H, 'a', 00H, 'r', 00H, 'p', 00H, 00H, 00H ; `string'
CONST	ENDS
;	COMDAT ??_C@_17OMEECEPH@?$AAf?$AAp?$AAp?$AA?$AA@
CONST	SEGMENT
??_C@_17OMEECEPH@?$AAf?$AAp?$AAp?$AA?$AA@ DB 'f', 00H, 'p', 00H, 'p', 00H
	DB	00H, 00H					; `string'
CONST	ENDS
;	COMDAT ??_C@_17MHBDEGEN@?$AAf?$AAt?$AAn?$AA?$AA@
CONST	SEGMENT
??_C@_17MHBDEGEN@?$AAf?$AAt?$AAn?$AA?$AA@ DB 'f', 00H, 't', 00H, 'n', 00H
	DB	00H, 00H					; `string'
CONST	ENDS
;	COMDAT ??_C@_17LEMNFMDC@?$AAf?$AAo?$AAr?$AA?$AA@
CONST	SEGMENT
??_C@_17LEMNFMDC@?$AAf?$AAo?$AAr?$AA?$AA@ DB 'f', 00H, 'o', 00H, 'r', 00H
	DB	00H, 00H					; `string'
CONST	ENDS
;	COMDAT ??_C@_17GKLNNJEI@?$AAf?$AA0?$AA3?$AA?$AA@
CONST	SEGMENT
??_C@_17GKLNNJEI@?$AAf?$AA0?$AA3?$AA?$AA@ DB 'f', 00H, '0', 00H, '3', 00H
	DB	00H, 00H					; `string'
CONST	ENDS
;	COMDAT ??_C@_17GINJNHFM@?$AAf?$AA9?$AA5?$AA?$AA@
CONST	SEGMENT
??_C@_17GINJNHFM@?$AAf?$AA9?$AA5?$AA?$AA@ DB 'f', 00H, '9', 00H, '5', 00H
	DB	00H, 00H					; `string'
CONST	ENDS
;	COMDAT ??_C@_17FPAHCHGO@?$AAf?$AA9?$AA0?$AA?$AA@
CONST	SEGMENT
??_C@_17FPAHCHGO@?$AAf?$AA9?$AA0?$AA?$AA@ DB 'f', 00H, '9', 00H, '0', 00H
	DB	00H, 00H					; `string'
CONST	ENDS
;	COMDAT ??_C@_17PINKHOKH@?$AAf?$AA7?$AA7?$AA?$AA@
CONST	SEGMENT
??_C@_17PINKHOKH@?$AAf?$AA7?$AA7?$AA?$AA@ DB 'f', 00H, '7', 00H, '7', 00H
	DB	00H, 00H					; `string'
CONST	ENDS
;	COMDAT ??_C@_13MAPGIIDM@?$AAf?$AA?$AA@
CONST	SEGMENT
??_C@_13MAPGIIDM@?$AAf?$AA?$AA@ DB 'f', 00H, 00H, 00H	; `string'
CONST	ENDS
;	COMDAT ??_C@_1BA@GCCKJLLN@?$AAf?$AAo?$AAr?$AAt?$AAr?$AAa?$AAn?$AA?$AA@
CONST	SEGMENT
??_C@_1BA@GCCKJLLN@?$AAf?$AAo?$AAr?$AAt?$AAr?$AAa?$AAn?$AA?$AA@ DB 'f', 00H
	DB	'o', 00H, 'r', 00H, 't', 00H, 'r', 00H, 'a', 00H, 'n', 00H, 00H
	DB	00H						; `string'
CONST	ENDS
;	COMDAT ??_C@_17KOMJHPOJ@?$AAh?$AAr?$AAl?$AA?$AA@
CONST	SEGMENT
??_C@_17KOMJHPOJ@?$AAh?$AAr?$AAl?$AA?$AA@ DB 'h', 00H, 'r', 00H, 'l', 00H
	DB	00H, 00H					; `string'
CONST	ENDS
;	COMDAT ??_C@_17DFMMGKDI@?$AAe?$AAr?$AAl?$AA?$AA@
CONST	SEGMENT
??_C@_17DFMMGKDI@?$AAe?$AAr?$AAl?$AA?$AA@ DB 'e', 00H, 'r', 00H, 'l', 00H
	DB	00H, 00H					; `string'
CONST	ENDS
;	COMDAT ??_C@_1O@KNNOJNFM@?$AAe?$AAr?$AAl?$AAa?$AAn?$AAg?$AA?$AA@
CONST	SEGMENT
??_C@_1O@KNNOJNFM@?$AAe?$AAr?$AAl?$AAa?$AAn?$AAg?$AA?$AA@ DB 'e', 00H, 'r'
	DB	00H, 'l', 00H, 'a', 00H, 'n', 00H, 'g', 00H, 00H, 00H ; `string'
CONST	ENDS
;	COMDAT ??_C@_15GHPEIIAO@?$AAe?$AAl?$AA?$AA@
CONST	SEGMENT
??_C@_15GHPEIIAO@?$AAe?$AAl?$AA?$AA@ DB 'e', 00H, 'l', 00H, 00H, 00H ; `string'
CONST	ENDS
;	COMDAT ??_C@_1M@NGCNKCBF@?$AAe?$AAl?$AAi?$AAs?$AAp?$AA?$AA@
CONST	SEGMENT
??_C@_1M@NGCNKCBF@?$AAe?$AAl?$AAi?$AAs?$AAp?$AA?$AA@ DB 'e', 00H, 'l', 00H
	DB	'i', 00H, 's', 00H, 'p', 00H, 00H, 00H	; `string'
CONST	ENDS
;	COMDAT ??_C@_1O@FKFAONEC@?$AAe?$AAc?$AAl?$AAa?$AAs?$AAs?$AA?$AA@
CONST	SEGMENT
??_C@_1O@FKFAONEC@?$AAe?$AAc?$AAl?$AAa?$AAs?$AAs?$AA?$AA@ DB 'e', 00H, 'c'
	DB	00H, 'l', 00H, 'a', 00H, 's', 00H, 's', 00H, 00H, 00H ; `string'
CONST	ENDS
;	COMDAT ??_C@_1O@PGOFMPNC@?$AAe?$AAb?$AAu?$AAi?$AAl?$AAd?$AA?$AA@
CONST	SEGMENT
??_C@_1O@PGOFMPNC@?$AAe?$AAb?$AAu?$AAi?$AAl?$AAd?$AA?$AA@ DB 'e', 00H, 'b'
	DB	00H, 'u', 00H, 'i', 00H, 'l', 00H, 'd', 00H, 00H, 00H ; `string'
CONST	ENDS
;	COMDAT ??_C@_1BA@NOAFPGOF@?$AAb?$AAd?$AAs?$AAp?$AAr?$AAo?$AAj?$AA?$AA@
CONST	SEGMENT
??_C@_1BA@NOAFPGOF@?$AAb?$AAd?$AAs?$AAp?$AAr?$AAo?$AAj?$AA?$AA@ DB 'b', 00H
	DB	'd', 00H, 's', 00H, 'p', 00H, 'r', 00H, 'o', 00H, 'j', 00H, 00H
	DB	00H						; `string'
CONST	ENDS
;	COMDAT ??_C@_1BC@JGOIJKCE@?$AAb?$AAd?$AAs?$AAg?$AAr?$AAo?$AAu?$AAp?$AA?$AA@
CONST	SEGMENT
??_C@_1BC@JGOIJKCE@?$AAb?$AAd?$AAs?$AAg?$AAr?$AAo?$AAu?$AAp?$AA?$AA@ DB 'b'
	DB	00H, 'd', 00H, 's', 00H, 'g', 00H, 'r', 00H, 'o', 00H, 'u', 00H
	DB	'p', 00H, 00H, 00H				; `string'
CONST	ENDS
;	COMDAT ??_C@_1BE@LKPOMCML@?$AAg?$AAr?$AAo?$AAu?$AAp?$AAp?$AAr?$AAo?$AAj?$AA?$AA@
CONST	SEGMENT
??_C@_1BE@LKPOMCML@?$AAg?$AAr?$AAo?$AAu?$AAp?$AAp?$AAr?$AAo?$AAj?$AA?$AA@ DB 'g'
	DB	00H, 'r', 00H, 'o', 00H, 'u', 00H, 'p', 00H, 'p', 00H, 'r', 00H
	DB	'o', 00H, 'j', 00H, 00H, 00H			; `string'
CONST	ENDS
;	COMDAT ??_C@_1M@BKHLNHHK@?$AAd?$AAp?$AAr?$AAo?$AAj?$AA?$AA@
CONST	SEGMENT
??_C@_1M@BKHLNHHK@?$AAd?$AAp?$AAr?$AAo?$AAj?$AA?$AA@ DB 'd', 00H, 'p', 00H
	DB	'r', 00H, 'o', 00H, 'j', 00H, 00H, 00H	; `string'
CONST	ENDS
;	COMDAT ??_C@_17CJHJPDBE@?$AAd?$AAp?$AAk?$AA?$AA@
CONST	SEGMENT
??_C@_17CJHJPDBE@?$AAd?$AAp?$AAk?$AA?$AA@ DB 'd', 00H, 'p', 00H, 'k', 00H
	DB	00H, 00H					; `string'
CONST	ENDS
;	COMDAT ??_C@_17CJJDJLIH@?$AAd?$AAo?$AAf?$AA?$AA@
CONST	SEGMENT
??_C@_17CJJDJLIH@?$AAd?$AAo?$AAf?$AA?$AA@ DB 'd', 00H, 'o', 00H, 'f', 00H
	DB	00H, 00H					; `string'
CONST	ENDS
;	COMDAT ??_C@_17EIFNFBIG@?$AAn?$AAf?$AAm?$AA?$AA@
CONST	SEGMENT
??_C@_17EIFNFBIG@?$AAn?$AAf?$AAm?$AA?$AA@ DB 'n', 00H, 'f', 00H, 'm', 00H
	DB	00H, 00H					; `string'
CONST	ENDS
;	COMDAT ??_C@_17NJJNENEO@?$AAd?$AAf?$AAm?$AA?$AA@
CONST	SEGMENT
??_C@_17NJJNENEO@?$AAd?$AAf?$AAm?$AA?$AA@ DB 'd', 00H, 'f', 00H, 'm', 00H
	DB	00H, 00H					; `string'
CONST	ENDS
;	COMDAT ??_C@_17IDNKMCOH@?$AAi?$AAn?$AAt?$AA?$AA@
CONST	SEGMENT
??_C@_17IDNKMCOH@?$AAi?$AAn?$AAt?$AA?$AA@ DB 'i', 00H, 'n', 00H, 't', 00H
	DB	00H, 00H					; `string'
CONST	ENDS
;	COMDAT ??_C@_17IMKPGCIL@?$AAp?$AAa?$AAs?$AA?$AA@
CONST	SEGMENT
??_C@_17IMKPGCIL@?$AAp?$AAa?$AAs?$AA?$AA@ DB 'p', 00H, 'a', 00H, 's', 00H
	DB	00H, 00H					; `string'
CONST	ENDS
;	COMDAT ??_C@_1O@MOMGNNMC@?$AAd?$AAe?$AAl?$AAp?$AAh?$AAi?$AA?$AA@
CONST	SEGMENT
??_C@_1O@MOMGNNMC@?$AAd?$AAe?$AAl?$AAp?$AAh?$AAi?$AA?$AA@ DB 'd', 00H, 'e'
	DB	00H, 'l', 00H, 'p', 00H, 'h', 00H, 'i', 00H, 00H, 00H ; `string'
CONST	ENDS
;	COMDAT ??_C@_17DAIFPHND@?$AAc?$AAs?$AAs?$AA?$AA@
CONST	SEGMENT
??_C@_17DAIFPHND@?$AAc?$AAs?$AAs?$AA?$AA@ DB 'c', 00H, 's', 00H, 's', 00H
	DB	00H, 00H					; `string'
CONST	ENDS
;	COMDAT ??_C@_15LJNHCMNK@?$AAc?$AAs?$AA?$AA@
CONST	SEGMENT
??_C@_15LJNHCMNK@?$AAc?$AAs?$AA?$AA@ DB 'c', 00H, 's', 00H, 00H, 00H ; `string'
CONST	ENDS
;	COMDAT ??_C@_1O@HOIIJHDJ@?$AAc?$AAs?$AAh?$AAa?$AAr?$AAp?$AA?$AA@
CONST	SEGMENT
??_C@_1O@HOIIJHDJ@?$AAc?$AAs?$AAh?$AAa?$AAr?$AAp?$AA?$AA@ DB 'c', 00H, 's'
	DB	00H, 'h', 00H, 'a', 00H, 'r', 00H, 'p', 00H, 00H, 00H ; `string'
CONST	ENDS
;	COMDAT ??_C@_17NACJJMEH@?$AAh?$AAx?$AAx?$AA?$AA@
CONST	SEGMENT
??_C@_17NACJJMEH@?$AAh?$AAx?$AAx?$AA?$AA@ DB 'h', 00H, 'x', 00H, 'x', 00H
	DB	00H, 00H					; `string'
CONST	ENDS
;	COMDAT ??_C@_13IABLFADB@?$AAH?$AA?$AA@
CONST	SEGMENT
??_C@_13IABLFADB@?$AAH?$AA?$AA@ DB 'H', 00H, 00H, 00H	; `string'
CONST	ENDS
;	COMDAT ??_C@_15FEAIAMIH@?$AAh?$AAh?$AA?$AA@
CONST	SEGMENT
??_C@_15FEAIAMIH@?$AAh?$AAh?$AA?$AA@ DB 'h', 00H, 'h', 00H, 00H, 00H ; `string'
CONST	ENDS
;	COMDAT ??_C@_17PJMODGMF@?$AAh?$AAp?$AAp?$AA?$AA@
CONST	SEGMENT
??_C@_17PJMODGMF@?$AAh?$AAp?$AAp?$AA?$AA@ DB 'h', 00H, 'p', 00H, 'p', 00H
	DB	00H, 00H					; `string'
CONST	ENDS
;	COMDAT ??_C@_13BHPHAPDN@?$AAm?$AA?$AA@
CONST	SEGMENT
??_C@_13BHPHAPDN@?$AAm?$AA?$AA@ DB 'm', 00H, 00H, 00H	; `string'
CONST	ENDS
;	COMDAT ??_C@_17INEDIABB@?$AAc?$AAx?$AAx?$AA?$AA@
CONST	SEGMENT
??_C@_17INEDIABB@?$AAc?$AAx?$AAx?$AA?$AA@ DB 'c', 00H, 'x', 00H, 'x', 00H
	DB	00H, 00H					; `string'
CONST	ENDS
;	COMDAT ??_C@_13FHBKNHDA@?$AAC?$AA?$AA@
CONST	SEGMENT
??_C@_13FHBKNHDA@?$AAC?$AA?$AA@ DB 'C', 00H, 00H, 00H	; `string'
CONST	ENDS
;	COMDAT ??_C@_17KEKECKJD@?$AAc?$AAp?$AAp?$AA?$AA@
CONST	SEGMENT
??_C@_17KEKECKJD@?$AAc?$AAp?$AAp?$AA?$AA@ DB 'c', 00H, 'p', 00H, 'p', 00H
	DB	00H, 00H					; `string'
CONST	ENDS
;	COMDAT ??_C@_1O@BKICJLGA@?$AAc?$AAo?$AAf?$AAf?$AAe?$AAe?$AA?$AA@
CONST	SEGMENT
??_C@_1O@BKICJLGA@?$AAc?$AAo?$AAf?$AAf?$AAe?$AAe?$AA?$AA@ DB 'c', 00H, 'o'
	DB	00H, 'f', 00H, 'f', 00H, 'e', 00H, 'e', 00H, 00H, 00H ; `string'
CONST	ENDS
;	COMDAT ??_C@_19KGAFDJEB@?$AAc?$AAl?$AAj?$AAx?$AA?$AA@
CONST	SEGMENT
??_C@_19KGAFDJEB@?$AAc?$AAl?$AAj?$AAx?$AA?$AA@ DB 'c', 00H, 'l', 00H, 'j', 00H
	DB	'x', 00H, 00H, 00H				; `string'
CONST	ENDS
;	COMDAT ??_C@_19CBBNOJNP@?$AAc?$AAl?$AAj?$AAc?$AA?$AA@
CONST	SEGMENT
??_C@_19CBBNOJNP@?$AAc?$AAl?$AAj?$AAc?$AA?$AA@ DB 'c', 00H, 'l', 00H, 'j', 00H
	DB	'c', 00H, 00H, 00H				; `string'
CONST	ENDS
;	COMDAT ??_C@_19HBAELOEA@?$AAc?$AAl?$AAj?$AAs?$AA?$AA@
CONST	SEGMENT
??_C@_19HBAELOEA@?$AAc?$AAl?$AAj?$AAs?$AA?$AA@ DB 'c', 00H, 'l', 00H, 'j', 00H
	DB	's', 00H, 00H, 00H				; `string'
CONST	ENDS
;	COMDAT ??_C@_17OPBEFPII@?$AAc?$AAl?$AAj?$AA?$AA@
CONST	SEGMENT
??_C@_17OPBEFPII@?$AAc?$AAl?$AAj?$AA?$AA@ DB 'c', 00H, 'l', 00H, 'j', 00H
	DB	00H, 00H					; `string'
CONST	ENDS
;	COMDAT ??_C@_1BA@JHEEMABE@?$AAc?$AAl?$AAo?$AAj?$AAu?$AAr?$AAe?$AA?$AA@
CONST	SEGMENT
??_C@_1BA@JHEEMABE@?$AAc?$AAl?$AAo?$AAj?$AAu?$AAr?$AAe?$AA?$AA@ DB 'c', 00H
	DB	'l', 00H, 'o', 00H, 'j', 00H, 'u', 00H, 'r', 00H, 'e', 00H, 00H
	DB	00H						; `string'
CONST	ENDS
;	COMDAT ??_C@_19PFLLNFPJ@?$AAc?$AAf?$AAm?$AAl?$AA?$AA@
CONST	SEGMENT
??_C@_19PFLLNFPJ@?$AAc?$AAf?$AAm?$AAl?$AA?$AA@ DB 'c', 00H, 'f', 00H, 'm', 00H
	DB	'l', 00H, 00H, 00H				; `string'
CONST	ENDS
;	COMDAT ??_C@_17NDFIEEFH@?$AAc?$AAf?$AAm?$AA?$AA@
CONST	SEGMENT
??_C@_17NDFIEEFH@?$AAc?$AAf?$AAm?$AA?$AA@ DB 'c', 00H, 'f', 00H, 'm', 00H
	DB	00H, 00H					; `string'
CONST	ENDS
;	COMDAT ??_C@_17DDIHDDGE@?$AAc?$AAf?$AAc?$AA?$AA@
CONST	SEGMENT
??_C@_17DDIHDDGE@?$AAc?$AAf?$AAc?$AA?$AA@ DB 'c', 00H, 'f', 00H, 'c', 00H
	DB	00H, 00H					; `string'
CONST	ENDS
;	COMDAT ??_C@_19CKMABFDB@?$AAc?$AAf?$AAm?$AAx?$AA?$AA@
CONST	SEGMENT
??_C@_19CKMABFDB@?$AAc?$AAf?$AAm?$AAx?$AA?$AA@ DB 'c', 00H, 'f', 00H, 'm', 00H
	DB	'x', 00H, 00H, 00H				; `string'
CONST	ENDS
;	COMDAT ??_C@_15NAMGNOIC@?$AAx?$AAs?$AA?$AA@
CONST	SEGMENT
??_C@_15NAMGNOIC@?$AAx?$AAs?$AA?$AA@ DB 'x', 00H, 's', 00H, 00H, 00H ; `string'
CONST	ENDS
;	COMDAT ??_C@_13CACJPPAP@?$AAh?$AA?$AA@
CONST	SEGMENT
??_C@_13CACJPPAP@?$AAh?$AA?$AA@ DB 'h', 00H, 00H, 00H	; `string'
CONST	ENDS
;	COMDAT ??_C@_13PHCIHIAO@?$AAc?$AA?$AA@
CONST	SEGMENT
??_C@_13PHCIHIAO@?$AAc?$AA?$AA@ DB 'c', 00H, 00H, 00H	; `string'
CONST	ENDS
;	COMDAT ??_C@_15OJMOHLEF@?$AAc?$AAc?$AA?$AA@
CONST	SEGMENT
??_C@_15OJMOHLEF@?$AAc?$AAc?$AA?$AA@ DB 'c', 00H, 'c', 00H, 00H, 00H ; `string'
CONST	ENDS
;	COMDAT ??_C@_17MEJHPLBO@?$AAc?$AAm?$AAd?$AA?$AA@
CONST	SEGMENT
??_C@_17MEJHPLBO@?$AAc?$AAm?$AAd?$AA?$AA@ DB 'c', 00H, 'm', 00H, 'd', 00H
	DB	00H, 00H					; `string'
CONST	ENDS
;	COMDAT ??_C@_17CPOGGMGE@?$AAb?$AAa?$AAt?$AA?$AA@
CONST	SEGMENT
??_C@_17CPOGGMGE@?$AAb?$AAa?$AAt?$AA?$AA@ DB 'b', 00H, 'a', 00H, 't', 00H
	DB	00H, 00H					; `string'
CONST	ENDS
;	COMDAT ??_C@_1M@CGIOJJDL@?$AAb?$AAa?$AAt?$AAc?$AAh?$AA?$AA@
CONST	SEGMENT
??_C@_1M@CGIOJJDL@?$AAb?$AAa?$AAt?$AAc?$AAh?$AA?$AA@ DB 'b', 00H, 'a', 00H
	DB	't', 00H, 'c', 00H, 'h', 00H, 00H, 00H	; `string'
CONST	ENDS
;	COMDAT ??_C@_13KHDBCPJB@?$AAs?$AA?$AA@
CONST	SEGMENT
??_C@_13KHDBCPJB@?$AAs?$AA?$AA@ DB 's', 00H, 00H, 00H	; `string'
CONST	ENDS
;	COMDAT ??_C@_17MCGGNAAC@?$AAa?$AAs?$AAm?$AA?$AA@
CONST	SEGMENT
??_C@_17MCGGNAAC@?$AAa?$AAs?$AAm?$AA?$AA@ DB 'a', 00H, 's', 00H, 'm', 00H
	DB	00H, 00H					; `string'
CONST	ENDS
;	COMDAT ??_C@_17GMHDMCIN@?$AAa?$AAd?$AAs?$AA?$AA@
CONST	SEGMENT
??_C@_17GMHDMCIN@?$AAa?$AAd?$AAs?$AA?$AA@ DB 'a', 00H, 'd', 00H, 's', 00H
	DB	00H, 00H					; `string'
CONST	ENDS
;	COMDAT ??_C@_17IENGPCHH@?$AAa?$AAd?$AAb?$AA?$AA@
CONST	SEGMENT
??_C@_17IENGPCHH@?$AAa?$AAd?$AAb?$AA?$AA@ DB 'a', 00H, 'd', 00H, 'b', 00H
	DB	00H, 00H					; `string'
CONST	ENDS
;	COMDAT ??_C@_17JGGDFNJJ@?$AAa?$AAd?$AAa?$AA?$AA@
CONST	SEGMENT
??_C@_17JGGDFNJJ@?$AAa?$AAd?$AAa?$AA?$AA@ DB 'a', 00H, 'd', 00H, 'a', 00H
	DB	00H, 00H					; `string'
CONST	ENDS
;	COMDAT ??_C@_19ICEDMGFD@?$AAm?$AAx?$AAm?$AAl?$AA?$AA@
CONST	SEGMENT
??_C@_19ICEDMGFD@?$AAm?$AAx?$AAm?$AAl?$AA?$AA@ DB 'm', 00H, 'x', 00H, 'm', 00H
	DB	'l', 00H, 00H, 00H				; `string'
CONST	ENDS
;	COMDAT ??_C@_15PEBPINNB@?$AAa?$AAs?$AA?$AA@
CONST	SEGMENT
??_C@_15PEBPINNB@?$AAa?$AAs?$AA?$AA@ DB 'a', 00H, 's', 00H, 00H, 00H ; `string'
CONST	ENDS
;	COMDAT ??_C@_1BK@PPIADMO@?$AAa?$AAc?$AAt?$AAi?$AAo?$AAn?$AAs?$AAc?$AAr?$AAi?$AAp?$AAt?$AA?$AA@
CONST	SEGMENT
??_C@_1BK@PPIADMO@?$AAa?$AAc?$AAt?$AAi?$AAo?$AAn?$AAs?$AAc?$AAr?$AAi?$AAp?$AAt?$AA?$AA@ DB 'a'
	DB	00H, 'c', 00H, 't', 00H, 'i', 00H, 'o', 00H, 'n', 00H, 's', 00H
	DB	'c', 00H, 'r', 00H, 'i', 00H, 'p', 00H, 't', 00H, 00H, 00H ; `string'
	ORG $+2
?langs@@3PAUlang_spec_t@@A DD FLAT:??_C@_1BK@PPIADMO@?$AAa?$AAc?$AAt?$AAi?$AAo?$AAn?$AAs?$AAc?$AAr?$AAi?$AAp?$AAt?$AA?$AA@ ; langs
	DD	FLAT:??_C@_15PEBPINNB@?$AAa?$AAs?$AA?$AA@
	DD	FLAT:??_C@_19ICEDMGFD@?$AAm?$AAx?$AAm?$AAl?$AA?$AA@
	ORG $+40
	DD	FLAT:??_C@_17JGGDFNJJ@?$AAa?$AAd?$AAa?$AA?$AA@
	DD	FLAT:??_C@_17JGGDFNJJ@?$AAa?$AAd?$AAa?$AA?$AA@
	DD	FLAT:??_C@_17IENGPCHH@?$AAa?$AAd?$AAb?$AA?$AA@
	DD	FLAT:??_C@_17GMHDMCIN@?$AAa?$AAd?$AAs?$AA?$AA@
	ORG $+36
	DD	FLAT:??_C@_17MCGGNAAC@?$AAa?$AAs?$AAm?$AA?$AA@
	DD	FLAT:??_C@_17MCGGNAAC@?$AAa?$AAs?$AAm?$AA?$AA@
	DD	FLAT:??_C@_13KHDBCPJB@?$AAs?$AA?$AA@
	ORG $+40
	DD	FLAT:??_C@_1M@CGIOJJDL@?$AAb?$AAa?$AAt?$AAc?$AAh?$AA?$AA@
	DD	FLAT:??_C@_17CPOGGMGE@?$AAb?$AAa?$AAt?$AA?$AA@
	DD	FLAT:??_C@_17MEJHPLBO@?$AAc?$AAm?$AAd?$AA?$AA@
	ORG $+40
	DD	FLAT:??_C@_15OJMOHLEF@?$AAc?$AAc?$AA?$AA@
	DD	FLAT:??_C@_13PHCIHIAO@?$AAc?$AA?$AA@
	DD	FLAT:??_C@_13CACJPPAP@?$AAh?$AA?$AA@
	DD	FLAT:??_C@_15NAMGNOIC@?$AAx?$AAs?$AA?$AA@
	ORG $+36
	DD	FLAT:??_C@_19CKMABFDB@?$AAc?$AAf?$AAm?$AAx?$AA?$AA@
	DD	FLAT:??_C@_17DDIHDDGE@?$AAc?$AAf?$AAc?$AA?$AA@
	DD	FLAT:??_C@_17NDFIEEFH@?$AAc?$AAf?$AAm?$AA?$AA@
	DD	FLAT:??_C@_19PFLLNFPJ@?$AAc?$AAf?$AAm?$AAl?$AA?$AA@
	ORG $+36
	DD	FLAT:??_C@_1BA@JHEEMABE@?$AAc?$AAl?$AAo?$AAj?$AAu?$AAr?$AAe?$AA?$AA@
	DD	FLAT:??_C@_17OPBEFPII@?$AAc?$AAl?$AAj?$AA?$AA@
	DD	FLAT:??_C@_19HBAELOEA@?$AAc?$AAl?$AAj?$AAs?$AA?$AA@
	DD	FLAT:??_C@_19CBBNOJNP@?$AAc?$AAl?$AAj?$AAc?$AA?$AA@
	DD	FLAT:??_C@_19KGAFDJEB@?$AAc?$AAl?$AAj?$AAx?$AA?$AA@
	ORG $+32
	DD	FLAT:??_C@_1O@BKICJLGA@?$AAc?$AAo?$AAf?$AAf?$AAe?$AAe?$AA?$AA@
	DD	FLAT:??_C@_1O@BKICJLGA@?$AAc?$AAo?$AAf?$AAf?$AAe?$AAe?$AA?$AA@
	ORG $+44
	DD	FLAT:??_C@_17KEKECKJD@?$AAc?$AAp?$AAp?$AA?$AA@
	DD	FLAT:??_C@_17KEKECKJD@?$AAc?$AAp?$AAp?$AA?$AA@
	DD	FLAT:??_C@_15OJMOHLEF@?$AAc?$AAc?$AA?$AA@
	DD	FLAT:??_C@_13FHBKNHDA@?$AAC?$AA?$AA@
	DD	FLAT:??_C@_17INEDIABB@?$AAc?$AAx?$AAx?$AA?$AA@
	DD	FLAT:??_C@_13BHPHAPDN@?$AAm?$AA?$AA@
	DD	FLAT:??_C@_17PJMODGMF@?$AAh?$AAp?$AAp?$AA?$AA@
	DD	FLAT:??_C@_15FEAIAMIH@?$AAh?$AAh?$AA?$AA@
	DD	FLAT:??_C@_13CACJPPAP@?$AAh?$AA?$AA@
	DD	FLAT:??_C@_13IABLFADB@?$AAH?$AA?$AA@
	DD	FLAT:??_C@_17NACJJMEH@?$AAh?$AAx?$AAx?$AA?$AA@
	ORG $+8
	DD	FLAT:??_C@_1O@HOIIJHDJ@?$AAc?$AAs?$AAh?$AAa?$AAr?$AAp?$AA?$AA@
	DD	FLAT:??_C@_15LJNHCMNK@?$AAc?$AAs?$AA?$AA@
	ORG $+44
	DD	FLAT:??_C@_17DAIFPHND@?$AAc?$AAs?$AAs?$AA?$AA@
	DD	FLAT:??_C@_17DAIFPHND@?$AAc?$AAs?$AAs?$AA?$AA@
	ORG $+44
	DD	FLAT:??_C@_1O@MOMGNNMC@?$AAd?$AAe?$AAl?$AAp?$AAh?$AAi?$AA?$AA@
	DD	FLAT:??_C@_17IMKPGCIL@?$AAp?$AAa?$AAs?$AA?$AA@
	DD	FLAT:??_C@_17IDNKMCOH@?$AAi?$AAn?$AAt?$AA?$AA@
	DD	FLAT:??_C@_17NJJNENEO@?$AAd?$AAf?$AAm?$AA?$AA@
	DD	FLAT:??_C@_17EIFNFBIG@?$AAn?$AAf?$AAm?$AA?$AA@
	DD	FLAT:??_C@_17CJJDJLIH@?$AAd?$AAo?$AAf?$AA?$AA@
	DD	FLAT:??_C@_17CJHJPDBE@?$AAd?$AAp?$AAk?$AA?$AA@
	DD	FLAT:??_C@_1M@BKHLNHHK@?$AAd?$AAp?$AAr?$AAo?$AAj?$AA?$AA@
	DD	FLAT:??_C@_1BE@LKPOMCML@?$AAg?$AAr?$AAo?$AAu?$AAp?$AAp?$AAr?$AAo?$AAj?$AA?$AA@
	DD	FLAT:??_C@_1BC@JGOIJKCE@?$AAb?$AAd?$AAs?$AAg?$AAr?$AAo?$AAu?$AAp?$AA?$AA@
	DD	FLAT:??_C@_1BA@NOAFPGOF@?$AAb?$AAd?$AAs?$AAp?$AAr?$AAo?$AAj?$AA?$AA@
	ORG $+8
	DD	FLAT:??_C@_1O@PGOFMPNC@?$AAe?$AAb?$AAu?$AAi?$AAl?$AAd?$AA?$AA@
	DD	FLAT:??_C@_1O@PGOFMPNC@?$AAe?$AAb?$AAu?$AAi?$AAl?$AAd?$AA?$AA@
	DD	FLAT:??_C@_1O@FKFAONEC@?$AAe?$AAc?$AAl?$AAa?$AAs?$AAs?$AA?$AA@
	ORG $+40
	DD	FLAT:??_C@_1M@NGCNKCBF@?$AAe?$AAl?$AAi?$AAs?$AAp?$AA?$AA@
	DD	FLAT:??_C@_15GHPEIIAO@?$AAe?$AAl?$AA?$AA@
	ORG $+44
	DD	FLAT:??_C@_1O@KNNOJNFM@?$AAe?$AAr?$AAl?$AAa?$AAn?$AAg?$AA?$AA@
	DD	FLAT:??_C@_17DFMMGKDI@?$AAe?$AAr?$AAl?$AA?$AA@
	DD	FLAT:??_C@_17KOMJHPOJ@?$AAh?$AAr?$AAl?$AA?$AA@
	ORG $+40
	DD	FLAT:??_C@_1BA@GCCKJLLN@?$AAf?$AAo?$AAr?$AAt?$AAr?$AAa?$AAn?$AA?$AA@
	DD	FLAT:??_C@_13MAPGIIDM@?$AAf?$AA?$AA@
	DD	FLAT:??_C@_17PINKHOKH@?$AAf?$AA7?$AA7?$AA?$AA@
	DD	FLAT:??_C@_17FPAHCHGO@?$AAf?$AA9?$AA0?$AA?$AA@
	DD	FLAT:??_C@_17GINJNHFM@?$AAf?$AA9?$AA5?$AA?$AA@
	DD	FLAT:??_C@_17GKLNNJEI@?$AAf?$AA0?$AA3?$AA?$AA@
	DD	FLAT:??_C@_17LEMNFMDC@?$AAf?$AAo?$AAr?$AA?$AA@
	DD	FLAT:??_C@_17MHBDEGEN@?$AAf?$AAt?$AAn?$AA?$AA@
	DD	FLAT:??_C@_17OMEECEPH@?$AAf?$AAp?$AAp?$AA?$AA@
	ORG $+16
	DD	FLAT:??_C@_1O@PKCLPJFE@?$AAf?$AAs?$AAh?$AAa?$AAr?$AAp?$AA?$AA@
	DD	FLAT:??_C@_15OJBKLNGJ@?$AAf?$AAs?$AA?$AA@
	DD	FLAT:??_C@_17EHMBEOEM@?$AAf?$AAs?$AAi?$AA?$AA@
	DD	FLAT:??_C@_17KPGEHOLG@?$AAf?$AAs?$AAx?$AA?$AA@
	ORG $+36
	DD	FLAT:??_C@_1BA@JMELKJMN@?$AAg?$AAe?$AAt?$AAt?$AAe?$AAx?$AAt?$AA?$AA@
	DD	FLAT:??_C@_15CGFKLEMI@?$AAp?$AAo?$AA?$AA@
	DD	FLAT:??_C@_17CLHCDLEC@?$AAp?$AAo?$AAt?$AA?$AA@
	DD	FLAT:??_C@_15JJBCKFIN@?$AAm?$AAo?$AA?$AA@
	ORG $+36
	DD	FLAT:??_C@_15DIIJIGOL@?$AAg?$AAo?$AA?$AA@
	DD	FLAT:??_C@_15DIIJIGOL@?$AAg?$AAo?$AA?$AA@
	ORG $+44
	DD	FLAT:??_C@_1O@ONEOFAJK@?$AAg?$AAr?$AAo?$AAo?$AAv?$AAy?$AA?$AA@
	DD	FLAT:??_C@_1O@ONEOFAJK@?$AAg?$AAr?$AAo?$AAo?$AAv?$AAy?$AA?$AA@
	DD	FLAT:??_C@_1M@BGHOGJOF@?$AAg?$AAt?$AAm?$AAp?$AAl?$AA?$AA@
	DD	FLAT:??_C@_17CAOOCEGJ@?$AAg?$AAp?$AAp?$AA?$AA@
	DD	FLAT:??_C@_1O@BBICCJLG@?$AAg?$AAr?$AAu?$AAn?$AAi?$AAt?$AA?$AA@
	ORG $+32
	DD	FLAT:??_C@_19HJOCHBH@?$AAh?$AAa?$AAm?$AAl?$AA?$AA@
	DD	FLAT:??_C@_19HJOCHBH@?$AAh?$AAa?$AAm?$AAl?$AA?$AA@
	ORG $+44
	DD	FLAT:??_C@_1BA@KENKENPL@?$AAh?$AAa?$AAs?$AAk?$AAe?$AAl?$AAl?$AA?$AA@
	DD	FLAT:??_C@_15NDBANMBJ@?$AAh?$AAs?$AA?$AA@
	DD	FLAT:??_C@_17IALEBHCH@?$AAl?$AAh?$AAs?$AA?$AA@
	ORG $+40
	DD	FLAT:??_C@_15FEAIAMIH@?$AAh?$AAh?$AA?$AA@
	DD	FLAT:??_C@_13CACJPPAP@?$AAh?$AA?$AA@
	ORG $+44
	DD	FLAT:??_C@_19DDMFBIFI@?$AAh?$AAt?$AAm?$AAl?$AA?$AA@
	DD	FLAT:??_C@_17MACMPLJB@?$AAh?$AAt?$AAm?$AA?$AA@
	DD	FLAT:??_C@_19DDMFBIFI@?$AAh?$AAt?$AAm?$AAl?$AA?$AA@
	DD	FLAT:??_C@_1M@PIEOOFEF@?$AAs?$AAh?$AAt?$AAm?$AAl?$AA?$AA@
	DD	FLAT:??_C@_1M@IJNMEBEL@?$AAx?$AAh?$AAt?$AAm?$AAl?$AA?$AA@
	ORG $+32
	DD	FLAT:??_C@_17CBKJENKF@?$AAi?$AAn?$AAi?$AA?$AA@
	DD	FLAT:??_C@_17CBKJENKF@?$AAi?$AAn?$AAi?$AA?$AA@
	ORG $+44
	DD	FLAT:??_C@_19FJGMOJGI@?$AAj?$AAa?$AAd?$AAe?$AA?$AA@
	DD	FLAT:??_C@_19FJGMOJGI@?$AAj?$AAa?$AAd?$AAe?$AA?$AA@
	ORG $+44
	DD	FLAT:??_C@_19JIBANNKP@?$AAj?$AAa?$AAv?$AAa?$AA?$AA@
	DD	FLAT:??_C@_19JIBANNKP@?$AAj?$AAa?$AAv?$AAa?$AA?$AA@
	DD	FLAT:??_C@_1BG@KGJELGAJ@?$AAp?$AAr?$AAo?$AAp?$AAe?$AAr?$AAt?$AAi?$AAe?$AAs?$AA?$AA@
	ORG $+40
	DD	FLAT:??_C@_15JONIHNBC@?$AAj?$AAs?$AA?$AA@
	DD	FLAT:??_C@_15JONIHNBC@?$AAj?$AAs?$AA?$AA@
	DD	FLAT:??_C@_17PIMLGLPJ@?$AAj?$AAs?$AAx?$AA?$AA@
	ORG $+40
	DD	FLAT:??_C@_19NKDEKIPM@?$AAj?$AAs?$AAo?$AAn?$AA?$AA@
	DD	FLAT:??_C@_19NKDEKIPM@?$AAj?$AAs?$AAo?$AAn?$AA?$AA@
	ORG $+44
	DD	FLAT:??_C@_17DNHPEDBG@?$AAj?$AAs?$AAp?$AA?$AA@
	DD	FLAT:??_C@_17DNHPEDBG@?$AAj?$AAs?$AAp?$AA?$AA@
	DD	FLAT:??_C@_19FNMGBAPB@?$AAj?$AAs?$AAp?$AAx?$AA?$AA@
	DD	FLAT:??_C@_19IAEBNIDH@?$AAj?$AAh?$AAt?$AAm?$AA?$AA@
	DD	FLAT:??_C@_1M@GJPPDCCI@?$AAj?$AAh?$AAt?$AAm?$AAl?$AA?$AA@
	ORG $+32
	DD	FLAT:??_C@_19LLJJKNLF@?$AAl?$AAe?$AAs?$AAs?$AA?$AA@
	DD	FLAT:??_C@_19LLJJKNLF@?$AAl?$AAe?$AAs?$AAs?$AA?$AA@
	ORG $+44
	DD	FLAT:??_C@_1O@FLBDIBDB@?$AAl?$AAi?$AAq?$AAu?$AAi?$AAd?$AA?$AA@
	DD	FLAT:??_C@_1O@FLBDIBDB@?$AAl?$AAi?$AAq?$AAu?$AAi?$AAd?$AA?$AA@
	ORG $+44
	DD	FLAT:??_C@_19POIDBHBE@?$AAl?$AAi?$AAs?$AAp?$AA?$AA@
	DD	FLAT:??_C@_19POIDBHBE@?$AAl?$AAi?$AAs?$AAp?$AA?$AA@
	DD	FLAT:??_C@_17PLBAEKJB@?$AAl?$AAs?$AAp?$AA?$AA@
	ORG $+40
	DD	FLAT:??_C@_17MFOMJJHG@?$AAl?$AAu?$AAa?$AA?$AA@
	DD	FLAT:??_C@_17MFOMJJHG@?$AAl?$AAu?$AAa?$AA?$AA@
	ORG $+44
	DD	FLAT:??_C@_15IFBOCNCO@?$AAm?$AA4?$AA?$AA@
	DD	FLAT:??_C@_15IFBOCNCO@?$AAm?$AA4?$AA?$AA@
	ORG $+44
	DD	FLAT:??_C@_19EKOGEAME@?$AAm?$AAa?$AAk?$AAe?$AA?$AA@
	DD	FLAT:??_C@_1BE@FMJEDJDL@?$AAM?$AAa?$AAk?$AAe?$AAf?$AAi?$AAl?$AAe?$AAs?$AA?$AA@
	DD	FLAT:??_C@_15BGHADCNK@?$AAm?$AAk?$AA?$AA@
	DD	FLAT:??_C@_17POLMDJAB@?$AAm?$AAa?$AAk?$AA?$AA@
	ORG $+36
	DD	FLAT:??_C@_1BC@FFHFDPKF@?$AAm?$AAa?$AAr?$AAk?$AAd?$AAo?$AAw?$AAn?$AA?$AA@
	DD	FLAT:??_C@_1BC@FFHFDPKF@?$AAm?$AAa?$AAr?$AAk?$AAd?$AAo?$AAw?$AAn?$AA?$AA@
	DD	FLAT:??_C@_1M@COMOPPCC@?$AAm?$AAd?$AAo?$AAw?$AAn?$AA?$AA@
	DD	FLAT:??_C@_19KBBDALEB@?$AAm?$AAd?$AAw?$AAn?$AA?$AA@
	DD	FLAT:??_C@_19PNHBGJNI@?$AAm?$AAk?$AAd?$AAn?$AA?$AA@
	DD	FLAT:??_C@_17HEEAKDB@?$AAm?$AAk?$AAd?$AA?$AA@
	DD	FLAT:??_C@_15EOBDCCIM@?$AAm?$AAd?$AA?$AA@
	ORG $+24
	DD	FLAT:??_C@_1M@MHGJAPE@?$AAm?$AAa?$AAs?$AAo?$AAn?$AA?$AA@
	DD	FLAT:??_C@_17GLBBEGHB@?$AAm?$AAa?$AAs?$AA?$AA@
	DD	FLAT:??_C@_1M@BNGHNLKH@?$AAm?$AAh?$AAt?$AAm?$AAl?$AA?$AA@
	DD	FLAT:??_C@_17KLOBNAIG@?$AAm?$AAp?$AAl?$AA?$AA@
	DD	FLAT:??_C@_19BDFKDPEE@?$AAm?$AAt?$AAx?$AAt?$AA?$AA@
	ORG $+32
	DD	FLAT:??_C@_1O@IMPFCKEM@?$AAm?$AAa?$AAt?$AAl?$AAa?$AAb?$AA?$AA@
	DD	FLAT:??_C@_13BHPHAPDN@?$AAm?$AA?$AA@
	ORG $+44
	DD	FLAT:??_C@_1BI@GMGCAJEL@?$AAm?$AAa?$AAt?$AAh?$AAe?$AAm?$AAa?$AAt?$AAi?$AAc?$AAa?$AA?$AA@
	DD	FLAT:??_C@_13BHPHAPDN@?$AAm?$AA?$AA@
	DD	FLAT:??_C@_15CJOKCLJO@?$AAw?$AAl?$AA?$AA@
	ORG $+40
	DD	FLAT:??_C@_1BA@GNPNOGAA@?$AAm?$AAe?$AAr?$AAc?$AAu?$AAr?$AAy?$AA?$AA@
	DD	FLAT:??_C@_13BHPHAPDN@?$AAm?$AA?$AA@
	DD	FLAT:??_C@_17ELNEMPCG@?$AAm?$AAo?$AAo?$AA?$AA@
	ORG $+40
	DD	FLAT:??_C@_17LJALODFD@?$AAn?$AAi?$AAm?$AA?$AA@
	DD	FLAT:??_C@_17LJALODFD@?$AAn?$AAi?$AAm?$AA?$AA@
	ORG $+44
	DD	FLAT:??_C@_19COKLBLGD@?$AAo?$AAb?$AAj?$AAc?$AA?$AA@
	DD	FLAT:??_C@_13BHPHAPDN@?$AAm?$AA?$AA@
	DD	FLAT:??_C@_13CACJPPAP@?$AAh?$AA?$AA@
	ORG $+40
	DD	FLAT:??_C@_1O@MININBMM@?$AAo?$AAb?$AAj?$AAc?$AAp?$AAp?$AA?$AA@
	DD	FLAT:??_C@_15DDBLGNAG@?$AAm?$AAm?$AA?$AA@
	DD	FLAT:??_C@_13CACJPPAP@?$AAh?$AA?$AA@
	ORG $+40
	DD	FLAT:??_C@_1M@DNOHIBIA@?$AAo?$AAc?$AAa?$AAm?$AAl?$AA?$AA@
	DD	FLAT:??_C@_15ILKHAKGD@?$AAm?$AAl?$AA?$AA@
	DD	FLAT:??_C@_17OICLOCFE@?$AAm?$AAl?$AAi?$AA?$AA@
	DD	FLAT:??_C@_17NPPFBCGG@?$AAm?$AAl?$AAl?$AA?$AA@
	DD	FLAT:??_C@_17LIDCLFML@?$AAm?$AAl?$AAy?$AA?$AA@
	ORG $+32
	DD	FLAT:??_C@_1O@JJKBGPDF@?$AAo?$AAc?$AAt?$AAa?$AAv?$AAe?$AA?$AA@
	DD	FLAT:??_C@_13BHPHAPDN@?$AAm?$AA?$AA@
	ORG $+44
	DD	FLAT:??_C@_1O@HGOKFMBG@?$AAp?$AAa?$AAr?$AAr?$AAo?$AAt?$AA?$AA@
	DD	FLAT:??_C@_17NIEAIHID@?$AAp?$AAi?$AAr?$AA?$AA@
	DD	FLAT:??_C@_19LCIHOCIF@?$AAp?$AAa?$AAs?$AAm?$AA?$AA@
	DD	FLAT:??_C@_17KLHEPFGP@?$AAp?$AAm?$AAc?$AA?$AA@
	DD	FLAT:??_C@_17OBLOJADC@?$AAo?$AAp?$AAs?$AA?$AA@
	DD	FLAT:??_C@_17HLGLGMNN@?$AAp?$AAo?$AAd?$AA?$AA@
	DD	FLAT:??_C@_15ODOOJMCH@?$AAp?$AAg?$AA?$AA@
	DD	FLAT:??_C@_15HIHPNODB@?$AAt?$AAg?$AA?$AA@
	ORG $+20
	DD	FLAT:??_C@_19EFCNFILP@?$AAp?$AAe?$AAr?$AAl?$AA?$AA@
	DD	FLAT:??_C@_15DEOPBLCG@?$AAp?$AAl?$AA?$AA@
	DD	FLAT:??_C@_15IMFDHMED@?$AAp?$AAm?$AA?$AA@
	DD	FLAT:??_C@_17FHKHAKPP@?$AAp?$AAm?$AA6?$AA?$AA@
	DD	FLAT:??_C@_17HLGLGMNN@?$AAp?$AAo?$AAd?$AA?$AA@
	DD	FLAT:??_C@_13DKOGBHCI@?$AAt?$AA?$AA@
	ORG $+28
	DD	FLAT:??_C@_17LJBFJMKN@?$AAp?$AAh?$AAp?$AA?$AA@
	DD	FLAT:??_C@_17LJBFJMKN@?$AAp?$AAh?$AAp?$AA?$AA@
	DD	FLAT:??_C@_19GENJDBF@?$AAp?$AAh?$AAp?$AAt?$AA?$AA@
	DD	FLAT:??_C@_19IOPDJB@?$AAp?$AAh?$AAp?$AA3?$AA?$AA@
	DD	FLAT:??_C@_19JNFJMLCI@?$AAp?$AAh?$AAp?$AA4?$AA?$AA@
	DD	FLAT:??_C@_19CFOFKMEN@?$AAp?$AAh?$AAp?$AA5?$AA?$AA@
	DD	FLAT:??_C@_1M@IPNADHLF@?$AAp?$AAh?$AAt?$AAm?$AAl?$AA?$AA@
	ORG $+24
	DD	FLAT:??_C@_19ELFDFBCJ@?$AAp?$AAi?$AAk?$AAe?$AA?$AA@
	DD	FLAT:??_C@_19ELFDFBCJ@?$AAp?$AAi?$AAk?$AAe?$AA?$AA@
	DD	FLAT:??_C@_19OMDEHKKA@?$AAp?$AAm?$AAo?$AAd?$AA?$AA@
	ORG $+40
	DD	FLAT:??_C@_1M@FMHGIHJG@?$AAp?$AAl?$AAo?$AAn?$AAe?$AA?$AA@
	DD	FLAT:??_C@_15KBECGEFG@?$AAp?$AAt?$AA?$AA@
	DD	FLAT:??_C@_17CLMGLNME@?$AAc?$AAp?$AAt?$AA?$AA@
	DD	FLAT:??_C@_1BC@FIMMKADP@?$AAm?$AAe?$AAt?$AAa?$AAd?$AAa?$AAt?$AAa?$AA?$AA@
	DD	FLAT:??_C@_17NJKMGFBJ@?$AAc?$AAp?$AAy?$AA?$AA@
	DD	FLAT:??_C@_15FDCILMIL@?$AAp?$AAy?$AA?$AA@
	ORG $+28
	DD	FLAT:??_C@_1O@JOLPHOLD@?$AAp?$AAu?$AAp?$AAp?$AAe?$AAt?$AA?$AA@
	DD	FLAT:??_C@_15COCAPDAB@?$AAp?$AAp?$AA?$AA@
	ORG $+44
	DD	FLAT:??_C@_1O@KDDPCNEL@?$AAp?$AAy?$AAt?$AAh?$AAo?$AAn?$AA?$AA@
	DD	FLAT:??_C@_15FDCILMIL@?$AAp?$AAy?$AA?$AA@
	ORG $+44
	DD	FLAT:??_C@_19JMEDJKKB@?$AAr?$AAa?$AAk?$AAe?$AA?$AA@
	DD	FLAT:??_C@_1BE@MAMNOCDP@?$AAR?$AAa?$AAk?$AAe?$AAf?$AAi?$AAl?$AAe?$AAs?$AA?$AA@
	ORG $+44
	DD	FLAT:??_C@_15HBFNPNOE@?$AAr?$AAs?$AA?$AA@
	DD	FLAT:??_C@_15HBFNPNOE@?$AAr?$AAs?$AA?$AA@
	ORG $+44
	DD	FLAT:??_C@_13BPINEIPE@?$AAr?$AA?$AA@
	DD	FLAT:??_C@_13LPLPOHMK@?$AAR?$AA?$AA@
	DD	FLAT:??_C@_17INPAKIPN@?$AAR?$AAm?$AAd?$AA?$AA@
	DD	FLAT:??_C@_17EJMICCCC@?$AAR?$AAn?$AAw?$AA?$AA@
	DD	FLAT:??_C@_19HPDMEIAM@?$AAR?$AAt?$AAe?$AAx?$AA?$AA@
	DD	FLAT:??_C@_19CGAKBPLF@?$AAR?$AAr?$AAs?$AAt?$AA?$AA@
	ORG $+28
	DD	FLAT:??_C@_19FJHCBMJP@?$AAr?$AAu?$AAb?$AAy?$AA?$AA@
	DD	FLAT:??_C@_15JJPIMNBO@?$AAr?$AAb?$AA?$AA@
	DD	FLAT:??_C@_1M@GDOLKJCK@?$AAr?$AAh?$AAt?$AAm?$AAl?$AA?$AA@
	DD	FLAT:??_C@_17KEENJFDF@?$AAr?$AAj?$AAs?$AA?$AA@
	DD	FLAT:??_C@_19FEOGBMDG@?$AAr?$AAx?$AAm?$AAl?$AA?$AA@
	DD	FLAT:??_C@_17NFBDBNAL@?$AAe?$AAr?$AAb?$AA?$AA@
	DD	FLAT:??_C@_19JMEDJKKB@?$AAr?$AAa?$AAk?$AAe?$AA?$AA@
	DD	FLAT:??_C@_19NMPBPOIG@?$AAs?$AAp?$AAe?$AAc?$AA?$AA@
	ORG $+20
	DD	FLAT:??_C@_19GDJCBFHM@?$AAr?$AAu?$AAs?$AAt?$AA?$AA@
	DD	FLAT:??_C@_15HBFNPNOE@?$AAr?$AAs?$AA?$AA@
	ORG $+44
	DD	FLAT:??_C@_19IGCBPBNN@?$AAs?$AAa?$AAl?$AAt?$AA?$AA@
	DD	FLAT:??_C@_17LOLOHGLG@?$AAs?$AAl?$AAs?$AA?$AA@
	ORG $+44
	DD	FLAT:??_C@_19OJHGHJCK@?$AAs?$AAa?$AAs?$AAs?$AA?$AA@
	DD	FLAT:??_C@_19OJHGHJCK@?$AAs?$AAa?$AAs?$AAs?$AA?$AA@
	DD	FLAT:??_C@_19KLFDHOFH@?$AAs?$AAc?$AAs?$AAs?$AA?$AA@
	ORG $+40
	DD	FLAT:??_C@_1M@NMDCKIF@?$AAs?$AAc?$AAa?$AAl?$AAa?$AA?$AA@
	DD	FLAT:??_C@_1M@NMDCKIF@?$AAs?$AAc?$AAa?$AAl?$AAa?$AA?$AA@
	ORG $+44
	DD	FLAT:??_C@_1O@FCPFPLA@?$AAs?$AAc?$AAh?$AAe?$AAm?$AAe?$AA?$AA@
	DD	FLAT:??_C@_17PPCOOEMP@?$AAs?$AAc?$AAm?$AA?$AA@
	DD	FLAT:??_C@_15LKABCOEB@?$AAs?$AAs?$AA?$AA@
	ORG $+40
	DD	FLAT:??_C@_1M@IDADAHFF@?$AAs?$AAh?$AAe?$AAl?$AAl?$AA?$AA@
	DD	FLAT:??_C@_15DNBJPONP@?$AAs?$AAh?$AA?$AA@
	DD	FLAT:??_C@_19KGACEDGC@?$AAb?$AAa?$AAs?$AAh?$AA?$AA@
	DD	FLAT:??_C@_17LHJNCHEN@?$AAc?$AAs?$AAh?$AA?$AA@
	DD	FLAT:??_C@_19MOJHLFLA@?$AAt?$AAc?$AAs?$AAh?$AA?$AA@
	DD	FLAT:??_C@_17GEHIDMPI@?$AAk?$AAs?$AAh?$AA?$AA@
	DD	FLAT:??_C@_17NEGJANEN@?$AAz?$AAs?$AAh?$AA?$AA@
	ORG $+24
	DD	FLAT:??_C@_1BE@OIIKGMEE@?$AAs?$AAm?$AAa?$AAl?$AAl?$AAt?$AAa?$AAl?$AAk?$AA?$AA@
	DD	FLAT:??_C@_15CHNGBGPI@?$AAs?$AAt?$AA?$AA@
	ORG $+44
	DD	FLAT:??_C@_17JIMCADK@?$AAs?$AAq?$AAl?$AA?$AA@
	DD	FLAT:??_C@_17JIMCADK@?$AAs?$AAq?$AAl?$AA?$AA@
	DD	FLAT:??_C@_17CFPKIAKC@?$AAc?$AAt?$AAl?$AA?$AA@
	ORG $+40
	DD	FLAT:??_C@_1O@DAHLCCIL@?$AAs?$AAt?$AAy?$AAl?$AAu?$AAs?$AA?$AA@
	DD	FLAT:??_C@_19HEMMCCMK@?$AAs?$AAt?$AAy?$AAl?$AA?$AA@
	ORG $+44
	DD	FLAT:??_C@_1M@DGDPJEGJ@?$AAs?$AAw?$AAi?$AAf?$AAt?$AA?$AA@
	DD	FLAT:??_C@_1M@DGDPJEGJ@?$AAs?$AAw?$AAi?$AAf?$AAt?$AA?$AA@
	ORG $+44
	DD	FLAT:??_C@_17ENFHIKLD@?$AAt?$AAc?$AAl?$AA?$AA@
	DD	FLAT:??_C@_17ENFHIKLD@?$AAt?$AAc?$AAl?$AA?$AA@
	DD	FLAT:??_C@_19OGANBCBG@?$AAi?$AAt?$AAc?$AAl?$AA?$AA@
	DD	FLAT:??_C@_17CJONKEND@?$AAi?$AAt?$AAk?$AA?$AA@
	ORG $+36
	DD	FLAT:??_C@_17EEHFKJGG@?$AAt?$AAe?$AAx?$AA?$AA@
	DD	FLAT:??_C@_17EEHFKJGG@?$AAt?$AAe?$AAx?$AA?$AA@
	DD	FLAT:??_C@_17MCAFEHJN@?$AAc?$AAl?$AAs?$AA?$AA@
	DD	FLAT:??_C@_17DOIGBGCE@?$AAs?$AAt?$AAy?$AA?$AA@
	ORG $+36
	DD	FLAT:??_C@_15DKNDCGEA@?$AAt?$AAt?$AA?$AA@
	DD	FLAT:??_C@_15DKNDCGEA@?$AAt?$AAt?$AA?$AA@
	DD	FLAT:??_C@_17HIFGMAAB@?$AAt?$AAt?$AA2?$AA?$AA@
	DD	FLAT:??_C@_19OFHHJDO@?$AAt?$AAt?$AAm?$AAl?$AA?$AA@
	ORG $+36
	DD	FLAT:??_C@_19HMPJNDE@?$AAv?$AAa?$AAl?$AAa?$AA?$AA@
	DD	FLAT:??_C@_19HMPJNDE@?$AAv?$AAa?$AAl?$AAa?$AA?$AA@
	DD	FLAT:??_C@_19LGGPHHDL@?$AAv?$AAa?$AAp?$AAi?$AA?$AA@
	ORG $+40
	DD	FLAT:??_C@_15CGJIPAI@?$AAv?$AAb?$AA?$AA@
	DD	FLAT:??_C@_17LCDBFENN@?$AAb?$AAa?$AAs?$AA?$AA@
	DD	FLAT:??_C@_17MCAFEHJN@?$AAc?$AAl?$AAs?$AA?$AA@
	DD	FLAT:??_C@_17DPPAKLO@?$AAf?$AAr?$AAm?$AA?$AA@
	DD	FLAT:??_C@_17CFPKIAKC@?$AAc?$AAt?$AAl?$AA?$AA@
	DD	FLAT:??_C@_15CGJIPAI@?$AAv?$AAb?$AA?$AA@
	DD	FLAT:??_C@_19FFPPJLOP@?$AAr?$AAe?$AAs?$AAx?$AA?$AA@
	ORG $+24
	DD	FLAT:??_C@_1BC@JDPGABLB@?$AAv?$AAe?$AAl?$AAo?$AAc?$AAi?$AAt?$AAy?$AA?$AA@
	DD	FLAT:??_C@_15FKAKJPFO@?$AAv?$AAm?$AA?$AA@
	ORG $+44
	DD	FLAT:??_C@_1BA@KKFJHIAD@?$AAv?$AAe?$AAr?$AAi?$AAl?$AAo?$AAg?$AA?$AA@
	DD	FLAT:??_C@_13JAOPNPKD@?$AAv?$AA?$AA@
	DD	FLAT:??_C@_15GNNEGPGM@?$AAv?$AAh?$AA?$AA@
	DD	FLAT:??_C@_15INNPNOHD@?$AAs?$AAv?$AA?$AA@
	ORG $+36
	DD	FLAT:??_C@_19GLJNMKP@?$AAv?$AAh?$AAd?$AAl?$AA?$AA@
	DD	FLAT:??_C@_17KAABFFOC@?$AAv?$AAh?$AAd?$AA?$AA@
	DD	FLAT:??_C@_19GLJNMKP@?$AAv?$AAh?$AAd?$AAl?$AA?$AA@
	ORG $+40
	DD	FLAT:??_C@_17BGFFMJMN@?$AAv?$AAi?$AAm?$AA?$AA@
	DD	FLAT:??_C@_17BGFFMJMN@?$AAv?$AAi?$AAm?$AA?$AA@
	ORG $+44
	DD	FLAT:??_C@_19MIKKJKOM@?$AAw?$AAs?$AAd?$AAl?$AA?$AA@
	DD	FLAT:??_C@_19MIKKJKOM@?$AAw?$AAs?$AAd?$AAl?$AA?$AA@
	ORG $+44
	DD	FLAT:??_C@_19PGDEKMLK@?$AAw?$AAa?$AAd?$AAl?$AA?$AA@
	DD	FLAT:??_C@_19PGDEKMLK@?$AAw?$AAa?$AAd?$AAl?$AA?$AA@
	ORG $+44
	DD	FLAT:??_C@_17CAPCPOIM@?$AAx?$AAm?$AAl?$AA?$AA@
	DD	FLAT:??_C@_17CAPCPOIM@?$AAx?$AAm?$AAl?$AA?$AA@
	DD	FLAT:??_C@_17OKILKBFE@?$AAd?$AAt?$AAd?$AA?$AA@
	DD	FLAT:??_C@_17BJCOJNGH@?$AAx?$AAs?$AAl?$AA?$AA@
	DD	FLAT:??_C@_19EAFPDMHM@?$AAx?$AAs?$AAl?$AAt?$AA?$AA@
	DD	FLAT:??_C@_17NEHFNHKI@?$AAe?$AAn?$AAt?$AA?$AA@
	ORG $+28
	DD	FLAT:??_C@_19MPPCMNMB@?$AAy?$AAa?$AAm?$AAl?$AA?$AA@
	DD	FLAT:??_C@_19MPPCMNMB@?$AAy?$AAa?$AAm?$AAl?$AA?$AA@
	DD	FLAT:??_C@_17OMFIPOBC@?$AAy?$AAm?$AAl?$AA?$AA@
	ORG $+40
PUBLIC	?combine_file_extensions@@YAIPAIIPAPA_W@Z	; combine_file_extensions
PUBLIC	?make_lang_regex@@YAPA_WPA_WI@Z			; make_lang_regex
PUBLIC	?get_lang_count@@YAIXZ				; get_lang_count
; Function compile flags: /Ogtp
;	COMDAT ?get_lang_count@@YAIXZ
_TEXT	SEGMENT
?get_lang_count@@YAIXZ PROC				; get_lang_count, COMDAT
; File i:\study\filescan\filescan\lang.c
; Line 91
	mov	eax, 80					; 00000050H
; Line 92
	ret	0
?get_lang_count@@YAIXZ ENDP				; get_lang_count
_TEXT	ENDS
; Function compile flags: /Ogtp
;	COMDAT ?make_lang_regex@@YAPA_WPA_WI@Z
_TEXT	SEGMENT
tv278 = -24						; size = 4
_num_exts$1$ = -20					; size = 4
_i$1$ = -16						; size = 4
_subsequent$1$ = -12					; size = 4
_regex_length$1$ = -8					; size = 4
_ext_array$1$ = -4					; size = 4
?make_lang_regex@@YAPA_WPA_WI@Z PROC			; make_lang_regex, COMDAT
; _ext_array$ = ecx
; _num_exts$ = edx
; File i:\study\filescan\filescan\lang.c
; Line 94
	push	ebp
	mov	ebp, esp
	sub	esp, 24					; 00000018H
	push	ebx
	push	esi
	push	edi
; File i:\study\filescan\filescan\util.c
; Line 27
	push	200					; 000000c8H
; File i:\study\filescan\filescan\lang.c
; Line 94
	mov	DWORD PTR _num_exts$1$[ebp], edx
; Line 95
	mov	edi, 100				; 00000064H
	mov	DWORD PTR _ext_array$1$[ebp], ecx
; File i:\study\filescan\filescan\util.c
; Line 27
	call	DWORD PTR __imp__malloc
	mov	edx, eax
	add	esp, 4
; Line 28
	test	edx, edx
	je	$LN37@make_lang_
; File i:\study\filescan\filescan\lang.c
; Line 98
	mov	ebx, 3
	mov	DWORD PTR _subsequent$1$[ebp], 0
; Line 102
	mov	ecx, OFFSET ??_C@_17MAHECFII@?$AA?2?$AA?4?$AA?$CI?$AA?$AA@
	mov	DWORD PTR _regex_length$1$[ebp], ebx
	mov	esi, edx
	sub	esi, ecx
$LL10@make_lang_:
	movzx	eax, WORD PTR [ecx]
	lea	ecx, DWORD PTR [ecx+2]
	mov	WORD PTR [esi+ecx-2], ax
	test	ax, ax
	jne	SHORT $LL10@make_lang_
; Line 104
	cmp	DWORD PTR _num_exts$1$[ebp], 0
	mov	DWORD PTR _i$1$[ebp], 0
	jbe	$LN34@make_lang_
	mov	eax, DWORD PTR _ext_array$1$[ebp]
$LL7@make_lang_:
; Line 106
	mov	esi, eax
	lea	ecx, DWORD PTR [esi+2]
	npad	3
$LL35@make_lang_:
	mov	ax, WORD PTR [esi]
	add	esi, 2
	test	ax, ax
	jne	SHORT $LL35@make_lang_
; Line 107
	mov	eax, DWORD PTR _subsequent$1$[ebp]
	sub	esi, ecx
	add	eax, 3
	sar	esi, 1
	add	eax, esi
	add	eax, ebx
	mov	DWORD PTR tv278[ebp], eax
	cmp	eax, edi
	jle	SHORT $LN3@make_lang_
	lea	ebx, DWORD PTR [edi+edi]
$LL4@make_lang_:
; Line 108
	mov	edi, ebx
; Line 109
	lea	ebx, DWORD PTR [edi+edi]
; File i:\study\filescan\filescan\util.c
; Line 32
	push	ebx
	push	edx
	call	DWORD PTR __imp__realloc
	mov	edx, eax
	add	esp, 8
; Line 33
	test	edx, edx
	je	SHORT $LN37@make_lang_
; File i:\study\filescan\filescan\lang.c
; Line 107
	cmp	DWORD PTR tv278[ebp], edi
	jg	SHORT $LL4@make_lang_
	mov	ebx, DWORD PTR _regex_length$1$[ebp]
$LN3@make_lang_:
; Line 111
	cmp	DWORD PTR _subsequent$1$[ebp], 0
	je	SHORT $LN2@make_lang_
; Line 112
	mov	eax, 124				; 0000007cH
	mov	WORD PTR [edx+ebx*2], ax
	inc	ebx
	mov	DWORD PTR _regex_length$1$[ebp], ebx
; Line 113
	jmp	SHORT $LN1@make_lang_
$LN2@make_lang_:
; Line 114
	mov	DWORD PTR _subsequent$1$[ebp], 1
$LN1@make_lang_:
; Line 116
	mov	eax, DWORD PTR _ext_array$1$[ebp]
	add	ebx, ebx
	sub	ebx, eax
	add	ebx, edx
	npad	10
$LL11@make_lang_:
	movzx	ecx, WORD PTR [eax]
	lea	eax, DWORD PTR [eax+2]
	mov	WORD PTR [ebx+eax-2], cx
	test	cx, cx
	jne	SHORT $LL11@make_lang_
; Line 117
	mov	ecx, DWORD PTR _i$1$[ebp]
	mov	ebx, DWORD PTR _regex_length$1$[ebp]
	inc	ecx
	mov	eax, DWORD PTR _ext_array$1$[ebp]
	add	ebx, esi
	add	eax, 40					; 00000028H
	mov	DWORD PTR _regex_length$1$[ebp], ebx
	mov	DWORD PTR _i$1$[ebp], ecx
	mov	DWORD PTR _ext_array$1$[ebp], eax
	cmp	ecx, DWORD PTR _num_exts$1$[ebp]
	jb	$LL7@make_lang_
$LN34@make_lang_:
	pop	edi
; Line 122
	xor	eax, eax
	mov	DWORD PTR [edx+ebx*2], 2359337		; 00240029H
	mov	WORD PTR [edx+ebx*2+4], ax
; Line 123
	mov	eax, edx
	pop	esi
	pop	ebx
; Line 124
	mov	esp, ebp
	pop	ebp
	ret	0
$LN37@make_lang_:
; File i:\study\filescan\filescan\util.c
; Line 28
	push	OFFSET ??_C@_1DE@PGDGFCEA@?$AAM?$AAe?$AAm?$AAo?$AAr?$AAy?$AA?5?$AAa?$AAl?$AAl?$AAo?$AAc?$AAa?$AAt?$AAi?$AAo?$AAn?$AA?5?$AAf?$AAa?$AAi?$AAl?$AAe?$AAd?$AA?4?$AA?$AA@
	call	?die@@YAXPB_WZZ				; die
$LN39@make_lang_:
$LN36@make_lang_:
	int	3
?make_lang_regex@@YAPA_WPA_WI@Z ENDP			; make_lang_regex
_TEXT	ENDS
; Function compile flags: /Ogtp
;	COMDAT ?combine_file_extensions@@YAIPAIIPAPA_W@Z
_TEXT	SEGMENT
tv277 = -12						; size = 4
_len$1$ = -8						; size = 4
_extension_index$1$ = -4				; size = 4
_exts$ = 8						; size = 4
?combine_file_extensions@@YAIPAIIPAPA_W@Z PROC		; combine_file_extensions, COMDAT
; _extension_index$ = ecx
; _len$ = edx
; File i:\study\filescan\filescan\lang.c
; Line 126
	push	ebp
	mov	ebp, esp
	sub	esp, 12					; 0000000cH
	push	esi
	push	edi
	mov	edi, edx
	mov	DWORD PTR _extension_index$1$[ebp], ecx
; File i:\study\filescan\filescan\util.c
; Line 27
	push	4000					; 00000fa0H
; File i:\study\filescan\filescan\lang.c
; Line 126
	mov	DWORD PTR _len$1$[ebp], edi
; File i:\study\filescan\filescan\util.c
; Line 27
	call	DWORD PTR __imp__malloc
	add	esp, 4
; Line 28
	test	eax, eax
	je	$LN24@combine_fi
; File i:\study\filescan\filescan\lang.c
; Line 132
	mov	ecx, DWORD PTR _exts$[ebp]
	push	4000					; 00000fa0H
	push	0
	push	eax
	mov	DWORD PTR [ecx], eax
	call	_memset
	add	esp, 12					; 0000000cH
; Line 133
	xor	esi, esi
; Line 136
	test	edi, edi
	je	SHORT $LN5@combine_fi
	mov	ecx, DWORD PTR _extension_index$1$[ebp]
	push	ebx
$LL7@combine_fi:
; Line 138
	imul	eax, DWORD PTR [ecx], 52
	lea	edi, DWORD PTR [esi+esi*4]
	xor	ebx, ebx
	shl	edi, 4
	mov	edx, DWORD PTR ?langs@@3PAUlang_spec_t@@A[eax+4]
$LL4@combine_fi:
; Line 140
	cmp	esi, 100				; 00000064H
	je	SHORT $LN2@combine_fi
; Line 144
	mov	eax, edx
	lea	ecx, DWORD PTR [eax+2]
	mov	DWORD PTR tv277[ebp], ecx
$LL22@combine_fi:
	mov	cx, WORD PTR [eax]
	add	eax, 2
	test	cx, cx
	jne	SHORT $LL22@combine_fi
	sub	eax, DWORD PTR tv277[ebp]
	sar	eax, 1
	push	eax
	mov	eax, DWORD PTR _exts$[ebp]
	push	edx
	mov	eax, DWORD PTR [eax]
	add	eax, edi
	push	eax
	call	DWORD PTR __imp__wcsncpy
; Line 146
	mov	ecx, DWORD PTR _extension_index$1$[ebp]
	inc	ebx
	add	esp, 12					; 0000000cH
	inc	esi
	add	edi, 80					; 00000050H
	imul	eax, DWORD PTR [ecx], 13
	add	eax, ebx
	mov	edx, DWORD PTR ?langs@@3PAUlang_spec_t@@A[eax*4+4]
; Line 147
	test	edx, edx
	jne	SHORT $LL4@combine_fi
$LN2@combine_fi:
; Line 136
	add	ecx, 4
	dec	DWORD PTR _len$1$[ebp]
	mov	DWORD PTR _extension_index$1$[ebp], ecx
	jne	SHORT $LL7@combine_fi
	pop	ebx
$LN5@combine_fi:
	pop	edi
; Line 150
	mov	eax, esi
	pop	esi
; Line 151
	mov	esp, ebp
	pop	ebp
	ret	0
$LN24@combine_fi:
; File i:\study\filescan\filescan\util.c
; Line 28
	push	OFFSET ??_C@_1DE@PGDGFCEA@?$AAM?$AAe?$AAm?$AAo?$AAr?$AAy?$AA?5?$AAa?$AAl?$AAl?$AAo?$AAc?$AAa?$AAt?$AAi?$AAo?$AAn?$AA?5?$AAf?$AAa?$AAi?$AAl?$AAe?$AAd?$AA?4?$AA?$AA@
	call	?die@@YAXPB_WZZ				; die
$LN26@combine_fi:
$LN23@combine_fi:
	int	3
?combine_file_extensions@@YAIPAIIPAPA_W@Z ENDP		; combine_file_extensions
_TEXT	ENDS
END
