; Listing generated by Microsoft (R) Optimizing Compiler Version 18.00.31101.0 

	TITLE	I:\Study\filescan\filescan\log.c
	.686P
	.XMM
	include listing.inc
	.model	flat

INCLUDELIB OLDNAMES

PUBLIC	??_C@_1BA@IJPPLDCJ@?$AAD?$AAE?$AAB?$AAU?$AAG?$AA?3?$AA?5?$AA?$AA@ ; `string'
PUBLIC	??_C@_1M@FOEOPCME@?$AAM?$AAS?$AAG?$AA?3?$AA?5?$AA?$AA@ ; `string'
PUBLIC	??_C@_1O@EDGBBBKF@?$AAW?$AAA?$AAR?$AAN?$AA?3?$AA?5?$AA?$AA@ ; `string'
PUBLIC	??_C@_1M@IDNLNAEL@?$AAE?$AAR?$AAR?$AA?3?$AA?5?$AA?$AA@ ; `string'
PUBLIC	??_C@_13LBAGMAIH@?$AA?6?$AA?$AA@		; `string'
EXTRN	__imp____iob_func:PROC
EXTRN	__imp__fwprintf:PROC
EXTRN	__imp__vfwprintf:PROC
;	COMDAT ??_C@_13LBAGMAIH@?$AA?6?$AA?$AA@
CONST	SEGMENT
??_C@_13LBAGMAIH@?$AA?6?$AA?$AA@ DB 0aH, 00H, 00H, 00H	; `string'
CONST	ENDS
;	COMDAT ??_C@_1M@IDNLNAEL@?$AAE?$AAR?$AAR?$AA?3?$AA?5?$AA?$AA@
CONST	SEGMENT
??_C@_1M@IDNLNAEL@?$AAE?$AAR?$AAR?$AA?3?$AA?5?$AA?$AA@ DB 'E', 00H, 'R', 00H
	DB	'R', 00H, ':', 00H, ' ', 00H, 00H, 00H	; `string'
CONST	ENDS
;	COMDAT ??_C@_1O@EDGBBBKF@?$AAW?$AAA?$AAR?$AAN?$AA?3?$AA?5?$AA?$AA@
CONST	SEGMENT
??_C@_1O@EDGBBBKF@?$AAW?$AAA?$AAR?$AAN?$AA?3?$AA?5?$AA?$AA@ DB 'W', 00H, 'A'
	DB	00H, 'R', 00H, 'N', 00H, ':', 00H, ' ', 00H, 00H, 00H ; `string'
CONST	ENDS
;	COMDAT ??_C@_1M@FOEOPCME@?$AAM?$AAS?$AAG?$AA?3?$AA?5?$AA?$AA@
CONST	SEGMENT
??_C@_1M@FOEOPCME@?$AAM?$AAS?$AAG?$AA?3?$AA?5?$AA?$AA@ DB 'M', 00H, 'S', 00H
	DB	'G', 00H, ':', 00H, ' ', 00H, 00H, 00H	; `string'
CONST	ENDS
;	COMDAT ??_C@_1BA@IJPPLDCJ@?$AAD?$AAE?$AAB?$AAU?$AAG?$AA?3?$AA?5?$AA?$AA@
CONST	SEGMENT
??_C@_1BA@IJPPLDCJ@?$AAD?$AAE?$AAB?$AAU?$AAG?$AA?3?$AA?5?$AA?$AA@ DB 'D', 00H
	DB	'E', 00H, 'B', 00H, 'U', 00H, 'G', 00H, ':', 00H, ' ', 00H, 00H
	DB	00H						; `string'
_log_threshold DD 028H
PUBLIC	?vplog@@YAXIPB_WPAD@Z				; vplog
PUBLIC	?log_warn@@YAXPB_WZZ				; log_warn
PUBLIC	?set_log_level@@YAXW4log_level@@@Z		; set_log_level
PUBLIC	?log_err@@YAXPB_WZZ				; log_err
PUBLIC	?log_debug@@YAXPB_WZZ				; log_debug
; Function compile flags: /Ogtp
;	COMDAT ?log_debug@@YAXPB_WZZ
_TEXT	SEGMENT
_fmt$ = 8						; size = 4
?log_debug@@YAXPB_WZZ PROC				; log_debug, COMDAT
; File i:\study\filescan\filescan\log.c
; Line 13
	push	ebp
	mov	ebp, esp
; Line 42
	cmp	DWORD PTR _log_threshold, 10		; 0000000aH
	push	ebx
; Line 16
	mov	ebx, DWORD PTR _fmt$[ebp]
; Line 42
	jg	SHORT $LN10@log_debug
	push	edi
; Line 46
	mov	edi, DWORD PTR ?out_fd@@3PAU_iobuf@@A	; out_fd
; Line 50
	push	OFFSET ??_C@_1BA@IJPPLDCJ@?$AAD?$AAE?$AAB?$AAU?$AAG?$AA?3?$AA?5?$AA?$AA@
	push	edi
	call	DWORD PTR __imp__fwprintf
; Line 64
	lea	eax, DWORD PTR _fmt$[ebp+4]
	push	eax
	push	ebx
	push	edi
	call	DWORD PTR __imp__vfwprintf
; Line 65
	push	OFFSET ??_C@_13LBAGMAIH@?$AA?6?$AA?$AA@
	push	edi
	call	DWORD PTR __imp__fwprintf
	add	esp, 28					; 0000001cH
	pop	edi
$LN10@log_debug:
	pop	ebx
; Line 18
	pop	ebp
	ret	0
?log_debug@@YAXPB_WZZ ENDP				; log_debug
_TEXT	ENDS
; Function compile flags: /Ogtp
;	COMDAT ?log_err@@YAXPB_WZZ
_TEXT	SEGMENT
_fmt$ = 8						; size = 4
?log_err@@YAXPB_WZZ PROC				; log_err, COMDAT
; File i:\study\filescan\filescan\log.c
; Line 34
	push	ebp
	mov	ebp, esp
; Line 42
	cmp	DWORD PTR _log_threshold, 40		; 00000028H
	push	ebx
; Line 37
	mov	ebx, DWORD PTR _fmt$[ebp]
; Line 42
	jg	SHORT $LN10@log_err
	push	edi
; Line 59
	call	DWORD PTR __imp____iob_func
; Line 60
	push	OFFSET ??_C@_1M@IDNLNAEL@?$AAE?$AAR?$AAR?$AA?3?$AA?5?$AA?$AA@
	lea	edi, DWORD PTR [eax+64]
	push	edi
	call	DWORD PTR __imp__fwprintf
; Line 64
	lea	eax, DWORD PTR _fmt$[ebp+4]
	push	eax
	push	ebx
	push	edi
	call	DWORD PTR __imp__vfwprintf
; Line 65
	push	OFFSET ??_C@_13LBAGMAIH@?$AA?6?$AA?$AA@
	push	edi
	call	DWORD PTR __imp__fwprintf
	add	esp, 28					; 0000001cH
	pop	edi
$LN10@log_err:
	pop	ebx
; Line 39
	pop	ebp
	ret	0
?log_err@@YAXPB_WZZ ENDP				; log_err
_TEXT	ENDS
; Function compile flags: /Ogtp
;	COMDAT ?set_log_level@@YAXW4log_level@@@Z
_TEXT	SEGMENT
?set_log_level@@YAXW4log_level@@@Z PROC			; set_log_level, COMDAT
; _threshold$ = ecx
; File i:\study\filescan\filescan\log.c
; Line 10
	mov	DWORD PTR _log_threshold, ecx
; Line 11
	ret	0
?set_log_level@@YAXW4log_level@@@Z ENDP			; set_log_level
_TEXT	ENDS
; Function compile flags: /Ogtp
;	COMDAT ?log_warn@@YAXPB_WZZ
_TEXT	SEGMENT
_fmt$ = 8						; size = 4
?log_warn@@YAXPB_WZZ PROC				; log_warn, COMDAT
; File i:\study\filescan\filescan\log.c
; Line 27
	push	ebp
	mov	ebp, esp
; Line 42
	cmp	DWORD PTR _log_threshold, 30		; 0000001eH
	push	ebx
; Line 30
	mov	ebx, DWORD PTR _fmt$[ebp]
; Line 42
	jg	SHORT $LN10@log_warn
	push	edi
; Line 46
	mov	edi, DWORD PTR ?out_fd@@3PAU_iobuf@@A	; out_fd
; Line 56
	push	OFFSET ??_C@_1O@EDGBBBKF@?$AAW?$AAA?$AAR?$AAN?$AA?3?$AA?5?$AA?$AA@
	push	edi
	call	DWORD PTR __imp__fwprintf
; Line 64
	lea	eax, DWORD PTR _fmt$[ebp+4]
	push	eax
	push	ebx
	push	edi
	call	DWORD PTR __imp__vfwprintf
; Line 65
	push	OFFSET ??_C@_13LBAGMAIH@?$AA?6?$AA?$AA@
	push	edi
	call	DWORD PTR __imp__fwprintf
	add	esp, 28					; 0000001cH
	pop	edi
$LN10@log_warn:
	pop	ebx
; Line 32
	pop	ebp
	ret	0
?log_warn@@YAXPB_WZZ ENDP				; log_warn
_TEXT	ENDS
; Function compile flags: /Ogtp
;	COMDAT ?vplog@@YAXIPB_WPAD@Z
_TEXT	SEGMENT
_args$ = 8						; size = 4
?vplog@@YAXIPB_WPAD@Z PROC				; vplog, COMDAT
; _level$ = ecx
; _fmt$ = edx
; File i:\study\filescan\filescan\log.c
; Line 41
	push	ebp
	mov	ebp, esp
	push	ebx
	mov	ebx, edx
; Line 42
	cmp	ecx, DWORD PTR _log_threshold
	jl	SHORT $LN8@vplog
; Line 46
	push	esi
	mov	esi, DWORD PTR ?out_fd@@3PAU_iobuf@@A	; out_fd
; Line 48
	add	ecx, -10				; fffffff6H
	push	edi
	mov	edi, DWORD PTR __imp__fwprintf
	cmp	ecx, 30					; 0000001eH
	ja	SHORT $LN5@vplog
	movzx	eax, BYTE PTR $LN10@vplog[ecx]
	jmp	DWORD PTR $LN13@vplog[eax*4]
$LN4@vplog:
; Line 50
	push	OFFSET ??_C@_1BA@IJPPLDCJ@?$AAD?$AAE?$AAB?$AAU?$AAG?$AA?3?$AA?5?$AA?$AA@
; Line 51
	jmp	SHORT $LN11@vplog
$LN3@vplog:
; Line 53
	push	OFFSET ??_C@_1M@FOEOPCME@?$AAM?$AAS?$AAG?$AA?3?$AA?5?$AA?$AA@
; Line 54
	jmp	SHORT $LN11@vplog
$LN2@vplog:
; Line 56
	push	OFFSET ??_C@_1O@EDGBBBKF@?$AAW?$AAA?$AAR?$AAN?$AA?3?$AA?5?$AA?$AA@
; Line 57
	jmp	SHORT $LN11@vplog
$LN1@vplog:
; Line 59
	call	DWORD PTR __imp____iob_func
; Line 60
	push	OFFSET ??_C@_1M@IDNLNAEL@?$AAE?$AAR?$AAR?$AA?3?$AA?5?$AA?$AA@
	lea	esi, DWORD PTR [eax+64]
$LN11@vplog:
	push	esi
	call	edi
	add	esp, 8
$LN5@vplog:
; Line 64
	push	DWORD PTR _args$[ebp]
	push	ebx
	push	esi
	call	DWORD PTR __imp__vfwprintf
; Line 65
	push	OFFSET ??_C@_13LBAGMAIH@?$AA?6?$AA?$AA@
	push	esi
	call	edi
	add	esp, 20					; 00000014H
	pop	edi
	pop	esi
$LN8@vplog:
	pop	ebx
; Line 66
	pop	ebp
	ret	0
	npad	2
$LN13@vplog:
	DD	$LN4@vplog
	DD	$LN3@vplog
	DD	$LN2@vplog
	DD	$LN1@vplog
	DD	$LN5@vplog
$LN10@vplog:
	DB	0
	DB	4
	DB	4
	DB	4
	DB	4
	DB	4
	DB	4
	DB	4
	DB	4
	DB	4
	DB	1
	DB	4
	DB	4
	DB	4
	DB	4
	DB	4
	DB	4
	DB	4
	DB	4
	DB	4
	DB	2
	DB	4
	DB	4
	DB	4
	DB	4
	DB	4
	DB	4
	DB	4
	DB	4
	DB	4
	DB	3
?vplog@@YAXIPB_WPAD@Z ENDP				; vplog
_TEXT	ENDS
END
