; Listing generated by Microsoft (R) Optimizing Compiler Version 18.00.31101.0 

	TITLE	I:\Study\filescan\filescan\options.c
	.686P
	.XMM
	include listing.inc
	.model	flat

INCLUDELIB OLDNAMES

PUBLIC	?opts@@3Ucli_options@@A				; opts
PUBLIC	??_C@_1BA@JIPEFMBO@?$AA?$BL?$AA?$FL?$AA1?$AA?$DL?$AA3?$AA3?$AAm?$AA?$AA@ ; `string'
PUBLIC	??_C@_1BC@MALKNFOD@?$AA?$BL?$AA?$FL?$AA3?$AA0?$AA?$DL?$AA4?$AA3?$AAm?$AA?$AA@ ; `string'
PUBLIC	??_C@_1BA@FDKIIPLL@?$AA?$BL?$AA?$FL?$AA1?$AA?$DL?$AA3?$AA2?$AAm?$AA?$AA@ ; `string'
PUBLIC	??_C@_01EEMJAFIK@?6?$AA@			; `string'
PUBLIC	??_C@_0DB@GNJOEFFB@Usage?3?5ag?5?$FLFILE?9TYPE?$FN?5?$FLOPTIONS?$FN?5@ ; `string'
PUBLIC	??_C@_0CL@FHIHDFEA@?5?5Recursively?5search?5for?5PATTERN@ ; `string'
PUBLIC	??_C@_0CC@EJPHMHFA@?5?5Like?5grep?5or?5ack?0?5but?5faster?4?6@ ; `string'
PUBLIC	??_C@_0BN@MDFHOCLL@Example?3?6?5?5ag?5?9i?5foo?5?1bar?1?6?6?$AA@ ; `string'
PUBLIC	??_C@_0DBB@OCLLMNJD@Output?5Options?3?6?5?5?5?5?5?9?9ackmate?5?5@ ; `string'
PUBLIC	??_C@_0KE@CKANMNHJ@?5?5?5?5?5?9?9color?9win?9ansi?5?5?5?5?5Use?5an@ ; `string'
PUBLIC	??_C@_0MPB@JANJFJDE@?5?5?5?5?5?9?9column?5?5?5?5?5?5?5?5?5?5?5?5?5Print?5@ ; `string'
PUBLIC	??_C@_0PA@FBGEGBEP@File?5Types?3?6The?5search?5can?5be?5re@ ; `string'
PUBLIC	??_C@_06KKAGMMLF@0?418?41?$AA@			; `string'
PUBLIC	??_C@_0BA@CDBLICEJ@ag?5version?5?$CFs?6?6?$AA@	; `string'
PUBLIC	??_C@_0L@PNLIHEMD@Features?3?6?$AA@		; `string'
PUBLIC	??_C@_0BH@KIMOEOBH@?5?5?$CFcjit?5?$CFclzma?5?$CFczlib?6?$AA@ ; `string'
PUBLIC	??_C@_19HOKJLBCB@?$AAH?$AAO?$AAM?$AAE?$AA?$AA@	; `string'
PUBLIC	??_C@_1BA@IJACKNEL@?$AAa?$AAc?$AAk?$AAm?$AAa?$AAt?$AAe?$AA?$AA@ ; `string'
PUBLIC	??_C@_1CG@KNJAHCHM@?$AAa?$AAc?$AAk?$AAm?$AAa?$AAt?$AAe?$AA?9?$AAd?$AAi?$AAr?$AA?9?$AAf?$AAi?$AAl?$AAt?$AAe?$AAr?$AA?$AA@ ; `string'
PUBLIC	??_C@_1BC@LNEHBHPE@?$AAa?$AAf?$AAf?$AAi?$AAn?$AAi?$AAt?$AAy?$AA?$AA@ ; `string'
PUBLIC	??_C@_1M@FKDBAEFE@?$AAa?$AAf?$AAt?$AAe?$AAr?$AA?$AA@ ; `string'
PUBLIC	??_C@_1BC@EKCNOHAE@?$AAa?$AAl?$AAl?$AA?9?$AAt?$AAe?$AAx?$AAt?$AA?$AA@ ; `string'
PUBLIC	??_C@_1BE@FHFFMGN@?$AAa?$AAl?$AAl?$AA?9?$AAt?$AAy?$AAp?$AAe?$AAs?$AA?$AA@ ; `string'
PUBLIC	??_C@_1O@GMCGLLHP@?$AAb?$AAe?$AAf?$AAo?$AAr?$AAe?$AA?$AA@ ; `string'
PUBLIC	??_C@_1M@FHLJMIA@?$AAb?$AAr?$AAe?$AAa?$AAk?$AA?$AA@ ; `string'
PUBLIC	??_C@_1BO@PJKJNNLF@?$AAc?$AAa?$AAs?$AAe?$AA?9?$AAs?$AAe?$AAn?$AAs?$AAi?$AAt?$AAi?$AAv?$AAe?$AA?$AA@ ; `string'
PUBLIC	??_C@_1M@EENKLIPJ@?$AAc?$AAo?$AAl?$AAo?$AAr?$AA?$AA@ ; `string'
PUBLIC	??_C@_1CE@ILBEIDOC@?$AAc?$AAo?$AAl?$AAo?$AAr?$AA?9?$AAl?$AAi?$AAn?$AAe?$AA?9?$AAn?$AAu?$AAm?$AAb?$AAe?$AAr?$AA?$AA@ ; `string'
PUBLIC	??_C@_1BI@FNIPDBJB@?$AAc?$AAo?$AAl?$AAo?$AAr?$AA?9?$AAm?$AAa?$AAt?$AAc?$AAh?$AA?$AA@ ; `string'
PUBLIC	??_C@_1BG@DKMLJBPI@?$AAc?$AAo?$AAl?$AAo?$AAr?$AA?9?$AAp?$AAa?$AAt?$AAh?$AA?$AA@ ; `string'
PUBLIC	??_C@_1BO@ELCLJFDK@?$AAc?$AAo?$AAl?$AAo?$AAr?$AA?9?$AAw?$AAi?$AAn?$AA?9?$AAa?$AAn?$AAs?$AAi?$AA?$AA@ ; `string'
PUBLIC	??_C@_1O@MEMGDIAN@?$AAc?$AAo?$AAl?$AAu?$AAm?$AAn?$AA?$AA@ ; `string'
PUBLIC	??_C@_1BA@HMGCDKEM@?$AAc?$AAo?$AAn?$AAt?$AAe?$AAx?$AAt?$AA?$AA@ ; `string'
PUBLIC	??_C@_1M@MJBJBOIA@?$AAc?$AAo?$AAu?$AAn?$AAt?$AA?$AA@ ; `string'
PUBLIC	??_C@_1M@PHGAFFNN@?$AAd?$AAe?$AAb?$AAu?$AAg?$AA?$AA@ ; `string'
PUBLIC	??_C@_1M@FKMBKAHI@?$AAd?$AAe?$AAp?$AAt?$AAh?$AA?$AA@ ; `string'
PUBLIC	??_C@_1BC@OIENENHB@?$AAf?$AAi?$AAl?$AAe?$AAn?$AAa?$AAm?$AAe?$AA?$AA@ ; `string'
PUBLIC	??_C@_1CE@DIHNJLFH@?$AAf?$AAi?$AAl?$AAe?$AA?9?$AAs?$AAe?$AAa?$AAr?$AAc?$AAh?$AA?9?$AAr?$AAe?$AAg?$AAe?$AAx?$AA?$AA@ ; `string'
PUBLIC	??_C@_1CG@LBNAEOPK@?$AAf?$AAi?$AAl?$AAe?$AAs?$AA?9?$AAw?$AAi?$AAt?$AAh?$AA?9?$AAm?$AAa?$AAt?$AAc?$AAh?$AAe?$AAs?$AA?$AA@ ; `string'
PUBLIC	??_C@_1CM@OFEKOHLI@?$AAf?$AAi?$AAl?$AAe?$AAs?$AA?9?$AAw?$AAi?$AAt?$AAh?$AAo?$AAu?$AAt?$AA?9?$AAm?$AAa?$AAt?$AAc?$AAh?$AAe?$AAs?$AA?$AA@ ; `string'
PUBLIC	??_C@_1BM@CCAMNKGL@?$AAf?$AAi?$AAx?$AAe?$AAd?$AA?9?$AAs?$AAt?$AAr?$AAi?$AAn?$AAg?$AAs?$AA?$AA@ ; `string'
PUBLIC	??_C@_1O@EDEIMFHO@?$AAf?$AAo?$AAl?$AAl?$AAo?$AAw?$AA?$AA@ ; `string'
PUBLIC	??_C@_1M@BDEHGHEL@?$AAg?$AAr?$AAo?$AAu?$AAp?$AA?$AA@ ; `string'
PUBLIC	??_C@_1BA@GBDINJEL@?$AAh?$AAe?$AAa?$AAd?$AAi?$AAn?$AAg?$AA?$AA@ ; `string'
PUBLIC	??_C@_19FCEHBCGP@?$AAh?$AAe?$AAl?$AAp?$AA?$AA@	; `string'
PUBLIC	??_C@_1O@CLFGFFCM@?$AAh?$AAi?$AAd?$AAd?$AAe?$AAn?$AA?$AA@ ; `string'
PUBLIC	??_C@_1O@NMPCFOPJ@?$AAi?$AAg?$AAn?$AAo?$AAr?$AAe?$AA?$AA@ ; `string'
PUBLIC	??_C@_1BI@KGKFPKKP@?$AAi?$AAg?$AAn?$AAo?$AAr?$AAe?$AA?9?$AAc?$AAa?$AAs?$AAe?$AA?$AA@ ; `string'
PUBLIC	??_C@_1BG@IHFOKHGF@?$AAi?$AAg?$AAn?$AAo?$AAr?$AAe?$AA?9?$AAd?$AAi?$AAr?$AA?$AA@ ; `string'
PUBLIC	??_C@_1BK@ODAOMBJO@?$AAi?$AAn?$AAv?$AAe?$AAr?$AAt?$AA?9?$AAm?$AAa?$AAt?$AAc?$AAh?$AA?$AA@ ; `string'
PUBLIC	??_C@_1BK@HPAIPIPO@?$AAl?$AAi?$AAn?$AAe?$AA?9?$AAn?$AAu?$AAm?$AAb?$AAe?$AAr?$AAs?$AA?$AA@ ; `string'
PUBLIC	??_C@_1CA@OBMILHG@?$AAl?$AAi?$AAs?$AAt?$AA?9?$AAf?$AAi?$AAl?$AAe?$AA?9?$AAt?$AAy?$AAp?$AAe?$AAs?$AA?$AA@ ; `string'
PUBLIC	??_C@_1BA@ODADONJK@?$AAl?$AAi?$AAt?$AAe?$AAr?$AAa?$AAl?$AA?$AA@ ; `string'
PUBLIC	??_C@_1M@FEBKAGEK@?$AAm?$AAa?$AAt?$AAc?$AAh?$AA?$AA@ ; `string'
PUBLIC	??_C@_1BE@PKDOOPLG@?$AAm?$AAa?$AAx?$AA?9?$AAc?$AAo?$AAu?$AAn?$AAt?$AA?$AA@ ; `string'
PUBLIC	??_C@_1BG@JAEIGGLE@?$AAn?$AAo?$AA?9?$AAn?$AAu?$AAm?$AAb?$AAe?$AAr?$AAs?$AA?$AA@ ; `string'
PUBLIC	??_C@_1BG@FDOMBNNF@?$AAn?$AAo?$AA?9?$AAr?$AAe?$AAc?$AAu?$AAr?$AAs?$AAe?$AA?$AA@ ; `string'
PUBLIC	??_C@_1BG@KIINCEOB@?$AAn?$AAo?$AAa?$AAf?$AAf?$AAi?$AAn?$AAi?$AAt?$AAy?$AA?$AA@ ; `string'
PUBLIC	??_C@_1BA@FBJPFBEJ@?$AAn?$AAo?$AAb?$AAr?$AAe?$AAa?$AAk?$AA?$AA@ ; `string'
PUBLIC	??_C@_1BA@BADOHFDA@?$AAn?$AAo?$AAc?$AAo?$AAl?$AAo?$AAr?$AA?$AA@ ; `string'
PUBLIC	??_C@_1BG@PNIHHOGE@?$AAn?$AAo?$AAf?$AAi?$AAl?$AAe?$AAn?$AAa?$AAm?$AAe?$AA?$AA@ ; `string'
PUBLIC	??_C@_1BC@LMKFEDJA@?$AAn?$AAo?$AAf?$AAo?$AAl?$AAl?$AAo?$AAw?$AA?$AA@ ; `string'
PUBLIC	??_C@_1BA@EHKDKKIC@?$AAn?$AAo?$AAg?$AAr?$AAo?$AAu?$AAp?$AA?$AA@ ; `string'
PUBLIC	??_C@_1BE@KFBONONB@?$AAn?$AAo?$AAh?$AAe?$AAa?$AAd?$AAi?$AAn?$AAg?$AA?$AA@ ; `string'
PUBLIC	??_C@_1BE@GEOJKBPI@?$AAn?$AAo?$AAn?$AAu?$AAm?$AAb?$AAe?$AAr?$AAs?$AA?$AA@ ; `string'
PUBLIC	??_C@_1BA@IJIAEFLP@?$AAn?$AAo?$AAp?$AAa?$AAg?$AAe?$AAr?$AA?$AA@ ; `string'
PUBLIC	??_C@_1BE@KHENNKJJ@?$AAn?$AAo?$AAr?$AAe?$AAc?$AAu?$AAr?$AAs?$AAe?$AA?$AA@ ; `string'
PUBLIC	??_C@_19DJCNLLCE@?$AAn?$AAu?$AAl?$AAl?$AA?$AA@	; `string'
PUBLIC	??_C@_1BA@KAMPKGGC@?$AAn?$AAu?$AAm?$AAb?$AAe?$AAr?$AAs?$AA?$AA@ ; `string'
PUBLIC	??_C@_1BM@DACNNOFA@?$AAo?$AAn?$AAl?$AAy?$AA?9?$AAm?$AAa?$AAt?$AAc?$AAh?$AAi?$AAn?$AAg?$AA?$AA@ ; `string'
PUBLIC	??_C@_1BG@HBMOODBC@?$AAo?$AAn?$AAe?$AA?9?$AAd?$AAe?$AAv?$AAi?$AAc?$AAe?$AA?$AA@ ; `string'
PUBLIC	??_C@_1M@NNGEIIHG@?$AAp?$AAa?$AAg?$AAe?$AAr?$AA?$AA@ ; `string'
PUBLIC	??_C@_1BC@BLAFGIDL@?$AAp?$AAa?$AAr?$AAa?$AAl?$AAl?$AAe?$AAl?$AA?$AA@ ; `string'
PUBLIC	??_C@_1BI@LOLOJFNM@?$AAp?$AAa?$AAs?$AAs?$AAt?$AAh?$AAr?$AAo?$AAu?$AAg?$AAh?$AA?$AA@ ; `string'
PUBLIC	??_C@_1BC@OFNIBPPO@?$AAp?$AAa?$AAs?$AAs?$AAt?$AAh?$AAr?$AAu?$AA?$AA@ ; `string'
PUBLIC	??_C@_1CC@DPLOKIO@?$AAp?$AAa?$AAt?$AAh?$AA?9?$AAt?$AAo?$AA?9?$AAa?$AAg?$AAi?$AAg?$AAn?$AAo?$AAr?$AAe?$AA?$AA@ ; `string'
PUBLIC	??_C@_1O@IEFBAAFD@?$AAp?$AAr?$AAi?$AAn?$AAt?$AA0?$AA?$AA@ ; `string'
PUBLIC	??_C@_1CC@NNDKIGAN@?$AAp?$AAr?$AAi?$AAn?$AAt?$AA?9?$AAl?$AAo?$AAn?$AAg?$AA?9?$AAl?$AAi?$AAn?$AAe?$AAs?$AA?$AA@ ; `string'
PUBLIC	??_C@_1BA@GDGLNNAD@?$AAr?$AAe?$AAc?$AAu?$AAr?$AAs?$AAe?$AA?$AA@ ; `string'
PUBLIC	??_C@_1BM@BCKJCGHP@?$AAs?$AAe?$AAa?$AAr?$AAc?$AAh?$AA?9?$AAb?$AAi?$AAn?$AAa?$AAr?$AAy?$AA?$AA@ ; `string'
PUBLIC	??_C@_1BK@FCCOOKFM@?$AAs?$AAe?$AAa?$AAr?$AAc?$AAh?$AA?9?$AAf?$AAi?$AAl?$AAe?$AAs?$AA?$AA@ ; `string'
PUBLIC	??_C@_1BG@MMEMJLOB@?$AAs?$AAe?$AAa?$AAr?$AAc?$AAh?$AA?9?$AAz?$AAi?$AAp?$AA?$AA@ ; `string'
PUBLIC	??_C@_1O@IIMCFFPP@?$AAs?$AAi?$AAl?$AAe?$AAn?$AAt?$AA?$AA@ ; `string'
PUBLIC	??_C@_1CC@GFCDIIKJ@?$AAs?$AAk?$AAi?$AAp?$AA?9?$AAv?$AAc?$AAs?$AA?9?$AAi?$AAg?$AAn?$AAo?$AAr?$AAe?$AAs?$AA?$AA@ ; `string'
PUBLIC	??_C@_1BG@JOAAIHCB@?$AAs?$AAm?$AAa?$AAr?$AAt?$AA?9?$AAc?$AAa?$AAs?$AAe?$AA?$AA@ ; `string'
PUBLIC	??_C@_1M@NNCEKPPG@?$AAs?$AAt?$AAa?$AAt?$AAs?$AA?$AA@ ; `string'
PUBLIC	??_C@_1BK@GPPBMMOJ@?$AAu?$AAn?$AAr?$AAe?$AAs?$AAt?$AAr?$AAi?$AAc?$AAt?$AAe?$AAd?$AA?$AA@ ; `string'
PUBLIC	??_C@_1BA@KPDNCIMM@?$AAv?$AAe?$AAr?$AAs?$AAi?$AAo?$AAn?$AA?$AA@ ; `string'
PUBLIC	??_C@_1BA@OFINMEEJ@?$AAv?$AAi?$AAm?$AAg?$AAr?$AAe?$AAp?$AA?$AA@ ; `string'
PUBLIC	??_C@_1BI@DPJICJMO@?$AAw?$AAo?$AAr?$AAd?$AA?9?$AAr?$AAe?$AAg?$AAe?$AAx?$AAp?$AA?$AA@ ; `string'
PUBLIC	??_C@_1BA@KNIPCJJC@?$AAw?$AAo?$AAr?$AAk?$AAe?$AAr?$AAs?$AA?$AA@ ; `string'
PUBLIC	??_C@_1DA@NALEGOGH@?$AAE?$AAr?$AAr?$AAo?$AAr?$AA?5?$AAf?$AAs?$AAt?$AAa?$AAt?$AA?$CI?$AA?$CJ?$AAi?$AAn?$AAg?$AA?5?$AAs?$AAt?$AAd?$AAo?$AAu?$AAt?$AA?$AA@ ; `string'
PUBLIC	??_C@_1FA@PFJCFACM@?$AAA?$AA?3?$AAa?$AAB?$AA?3?$AAC?$AA?3?$AAc?$AAD?$AAG?$AA?3?$AAg?$AA?3?$AAF?$AAf?$AAH?$AAh?$AAi?$AAL?$AAl?$AAm?$AA?3?$AAn?$AAo?$AAp?$AA?3?$AAQ?$AAR?$AAr?$AAS?$AAs?$AAv@ ; `string'
PUBLIC	??_C@_1M@ENDIDBFO@?$AA?$BL?$AA?$FL?$AA?$CF?$AAs?$AAm?$AA?$AA@ ; `string'
PUBLIC	??_C@_1EA@KHJKBPLA@?$AAo?$AAp?$AAt?$AAi?$AAo?$AAn?$AA?5?$AA?$CF?$AAs?$AA?5?$AAd?$AAo?$AAe?$AAs?$AA?5?$AAn?$AAo?$AAt?$AA?5?$AAt?$AAa?$AAk?$AAe?$AA?5?$AAa?$AA?5?$AAv?$AAa?$AAl?$AAu?$AAe?$AA?$AA@ ; `string'
PUBLIC	??_C@_13CIFDLIMG@?$AAw?$AA?$AA@			; `string'
PUBLIC	??_C@_0BE@PMEDBIFB@Failed?5to?5run?5pager?$AA@	; `string'
PUBLIC	??_C@_1FC@GBLPHMKM@?$AAT?$AAh?$AAe?$AA?5?$AAf?$AAo?$AAl?$AAl?$AAo?$AAw?$AAi?$AAn?$AAg?$AA?5?$AAf?$AAi?$AAl?$AAe?$AA?5?$AAt?$AAy?$AAp?$AAe?$AAs?$AA?5?$AAa?$AAr?$AAe?$AA?5?$AAs?$AAu?$AAp@ ; `string'
PUBLIC	??_C@_1BI@CINNGLAB@?$AA?5?$AA?5?$AA?9?$AA?9?$AA?$CF?$AAs?$AA?6?$AA?5?$AA?5?$AA?5?$AA?5?$AA?$AA@ ; `string'
PUBLIC	??_C@_1M@BBFBAKCL@?$AA?5?$AA?5?$AA?4?$AA?$CF?$AAs?$AA?$AA@ ; `string'
PUBLIC	??_C@_15IABLJNFO@?$AA?6?$AA?6?$AA?$AA@		; `string'
PUBLIC	??_C@_1EA@LCMMDMOI@?$AAW?$AAh?$AAa?$AAt?$AA?5?$AAd?$AAo?$AA?5?$AAy?$AAo?$AAu?$AA?5?$AAw?$AAa?$AAn?$AAt?$AA?5?$AAt?$AAo?$AA?5?$AAs?$AAe?$AAa?$AAr?$AAc?$AAh?$AA?5?$AAf?$AAo?$AAr?$AA?$DP?$AA?$AA@ ; `string'
PUBLIC	??_C@_1DE@BAHLGLGD@?$AAF?$AAo?$AAu?$AAn?$AAd?$AA?5?$AAu?$AAs?$AAe?$AAr?$AA?8?$AAs?$AA?5?$AAh?$AAo?$AAm?$AAe?$AA?5?$AAd?$AAi?$AAr?$AA?3?$AA?5?$AA?$CF?$AAs?$AA?$AA@ ; `string'
PUBLIC	??_C@_1EM@NOLIIAGI@?$AAg?$AAi?$AAt?$AA?5?$AAc?$AAo?$AAn?$AAf?$AAi?$AAg?$AA?5?$AA?9?$AAz?$AA?5?$AA?9?$AA?9?$AAg?$AAe?$AAt?$AA?5?$AAc?$AAo?$AAr?$AAe?$AA?4?$AAe?$AAx?$AAc?$AAl?$AAu?$AAd?$AAe@ ; `string'
PUBLIC	??_C@_1BI@FMFAFCIA@?$AAQ?$AAu?$AAe?$AAr?$AAy?$AA?5?$AAi?$AAs?$AA?5?$AA?$CF?$AAs?$AA?$AA@ ; `string'
PUBLIC	??_C@_1GC@DKKFLBP@?$AAE?$AAr?$AAr?$AAo?$AAr?$AA?3?$AA?5?$AAN?$AAo?$AA?5?$AAq?$AAu?$AAe?$AAr?$AAy?$AA?4?$AA?5?$AAW?$AAh?$AAa?$AAt?$AA?5?$AAd?$AAo?$AA?5?$AAy?$AAo?$AAu?$AA?5?$AAw?$AAa?$AAn@ ; `string'
PUBLIC	?color_match@@3PB_WB				; color_match
PUBLIC	?color_line_number@@3PB_WB			; color_line_number
PUBLIC	?color_path@@3PB_WB				; color_path
EXTRN	__imp__exit:PROC
EXTRN	__imp__CloseHandle@4:PROC
EXTRN	__imp___wpopen:PROC
EXTRN	__imp__CreatePipe@16:PROC
EXTRN	__imp___fileno:PROC
EXTRN	__imp__ReadFile@20:PROC
EXTRN	__imp__printf:PROC
EXTRN	__imp__wcstol:PROC
EXTRN	__imp___wgetenv:PROC
EXTRN	__imp___isatty:PROC
EXTRN	__imp__SetHandleInformation@12:PROC
EXTRN	__imp___fstat64i32:PROC
EXTRN	__imp___wtoi:PROC
EXTRN	__imp__CreateProcessW@40:PROC
EXTRN	__imp__perror:PROC
?opts@@3Ucli_options@@A DB 0e4H DUP (?)			; opts
_BSS	ENDS
;	COMDAT ?BUF_SIZE@?1??read_program_out@@YAPA_WPA_W@Z@4HB
CONST	SEGMENT
?BUF_SIZE@?1??read_program_out@@YAPA_WPA_W@Z@4HB DD 01000H ; `read_program_out'::`2'::BUF_SIZE
CONST	ENDS
;	COMDAT ??_C@_1GC@DKKFLBP@?$AAE?$AAr?$AAr?$AAo?$AAr?$AA?3?$AA?5?$AAN?$AAo?$AA?5?$AAq?$AAu?$AAe?$AAr?$AAy?$AA?4?$AA?5?$AAW?$AAh?$AAa?$AAt?$AA?5?$AAd?$AAo?$AA?5?$AAy?$AAo?$AAu?$AA?5?$AAw?$AAa?$AAn@
CONST	SEGMENT
??_C@_1GC@DKKFLBP@?$AAE?$AAr?$AAr?$AAo?$AAr?$AA?3?$AA?5?$AAN?$AAo?$AA?5?$AAq?$AAu?$AAe?$AAr?$AAy?$AA?4?$AA?5?$AAW?$AAh?$AAa?$AAt?$AA?5?$AAd?$AAo?$AA?5?$AAy?$AAo?$AAu?$AA?5?$AAw?$AAa?$AAn@ DB 'E'
	DB	00H, 'r', 00H, 'r', 00H, 'o', 00H, 'r', 00H, ':', 00H, ' ', 00H
	DB	'N', 00H, 'o', 00H, ' ', 00H, 'q', 00H, 'u', 00H, 'e', 00H, 'r'
	DB	00H, 'y', 00H, '.', 00H, ' ', 00H, 'W', 00H, 'h', 00H, 'a', 00H
	DB	't', 00H, ' ', 00H, 'd', 00H, 'o', 00H, ' ', 00H, 'y', 00H, 'o'
	DB	00H, 'u', 00H, ' ', 00H, 'w', 00H, 'a', 00H, 'n', 00H, 't', 00H
	DB	' ', 00H, 't', 00H, 'o', 00H, ' ', 00H, 's', 00H, 'e', 00H, 'a'
	DB	00H, 'r', 00H, 'c', 00H, 'h', 00H, ' ', 00H, 'f', 00H, 'o', 00H
	DB	'r', 00H, '?', 00H, 00H, 00H			; `string'
CONST	ENDS
;	COMDAT ??_C@_1BI@FMFAFCIA@?$AAQ?$AAu?$AAe?$AAr?$AAy?$AA?5?$AAi?$AAs?$AA?5?$AA?$CF?$AAs?$AA?$AA@
CONST	SEGMENT
??_C@_1BI@FMFAFCIA@?$AAQ?$AAu?$AAe?$AAr?$AAy?$AA?5?$AAi?$AAs?$AA?5?$AA?$CF?$AAs?$AA?$AA@ DB 'Q'
	DB	00H, 'u', 00H, 'e', 00H, 'r', 00H, 'y', 00H, ' ', 00H, 'i', 00H
	DB	's', 00H, ' ', 00H, '%', 00H, 's', 00H, 00H, 00H ; `string'
CONST	ENDS
;	COMDAT ??_C@_1EM@NOLIIAGI@?$AAg?$AAi?$AAt?$AA?5?$AAc?$AAo?$AAn?$AAf?$AAi?$AAg?$AA?5?$AA?9?$AAz?$AA?5?$AA?9?$AA?9?$AAg?$AAe?$AAt?$AA?5?$AAc?$AAo?$AAr?$AAe?$AA?4?$AAe?$AAx?$AAc?$AAl?$AAu?$AAd?$AAe@
CONST	SEGMENT
??_C@_1EM@NOLIIAGI@?$AAg?$AAi?$AAt?$AA?5?$AAc?$AAo?$AAn?$AAf?$AAi?$AAg?$AA?5?$AA?9?$AAz?$AA?5?$AA?9?$AA?9?$AAg?$AAe?$AAt?$AA?5?$AAc?$AAo?$AAr?$AAe?$AA?4?$AAe?$AAx?$AAc?$AAl?$AAu?$AAd?$AAe@ DB 'g'
	DB	00H, 'i', 00H, 't', 00H, ' ', 00H, 'c', 00H, 'o', 00H, 'n', 00H
	DB	'f', 00H, 'i', 00H, 'g', 00H, ' ', 00H, '-', 00H, 'z', 00H, ' '
	DB	00H, '-', 00H, '-', 00H, 'g', 00H, 'e', 00H, 't', 00H, ' ', 00H
	DB	'c', 00H, 'o', 00H, 'r', 00H, 'e', 00H, '.', 00H, 'e', 00H, 'x'
	DB	00H, 'c', 00H, 'l', 00H, 'u', 00H, 'd', 00H, 'e', 00H, 's', 00H
	DB	'f', 00H, 'i', 00H, 'l', 00H, 'e', 00H, 00H, 00H ; `string'
CONST	ENDS
;	COMDAT ??_C@_1DE@BAHLGLGD@?$AAF?$AAo?$AAu?$AAn?$AAd?$AA?5?$AAu?$AAs?$AAe?$AAr?$AA?8?$AAs?$AA?5?$AAh?$AAo?$AAm?$AAe?$AA?5?$AAd?$AAi?$AAr?$AA?3?$AA?5?$AA?$CF?$AAs?$AA?$AA@
CONST	SEGMENT
??_C@_1DE@BAHLGLGD@?$AAF?$AAo?$AAu?$AAn?$AAd?$AA?5?$AAu?$AAs?$AAe?$AAr?$AA?8?$AAs?$AA?5?$AAh?$AAo?$AAm?$AAe?$AA?5?$AAd?$AAi?$AAr?$AA?3?$AA?5?$AA?$CF?$AAs?$AA?$AA@ DB 'F'
	DB	00H, 'o', 00H, 'u', 00H, 'n', 00H, 'd', 00H, ' ', 00H, 'u', 00H
	DB	's', 00H, 'e', 00H, 'r', 00H, '''', 00H, 's', 00H, ' ', 00H, 'h'
	DB	00H, 'o', 00H, 'm', 00H, 'e', 00H, ' ', 00H, 'd', 00H, 'i', 00H
	DB	'r', 00H, ':', 00H, ' ', 00H, '%', 00H, 's', 00H, 00H, 00H ; `string'
CONST	ENDS
;	COMDAT ??_C@_1EA@LCMMDMOI@?$AAW?$AAh?$AAa?$AAt?$AA?5?$AAd?$AAo?$AA?5?$AAy?$AAo?$AAu?$AA?5?$AAw?$AAa?$AAn?$AAt?$AA?5?$AAt?$AAo?$AA?5?$AAs?$AAe?$AAa?$AAr?$AAc?$AAh?$AA?5?$AAf?$AAo?$AAr?$AA?$DP?$AA?$AA@
CONST	SEGMENT
??_C@_1EA@LCMMDMOI@?$AAW?$AAh?$AAa?$AAt?$AA?5?$AAd?$AAo?$AA?5?$AAy?$AAo?$AAu?$AA?5?$AAw?$AAa?$AAn?$AAt?$AA?5?$AAt?$AAo?$AA?5?$AAs?$AAe?$AAa?$AAr?$AAc?$AAh?$AA?5?$AAf?$AAo?$AAr?$AA?$DP?$AA?$AA@ DB 'W'
	DB	00H, 'h', 00H, 'a', 00H, 't', 00H, ' ', 00H, 'd', 00H, 'o', 00H
	DB	' ', 00H, 'y', 00H, 'o', 00H, 'u', 00H, ' ', 00H, 'w', 00H, 'a'
	DB	00H, 'n', 00H, 't', 00H, ' ', 00H, 't', 00H, 'o', 00H, ' ', 00H
	DB	's', 00H, 'e', 00H, 'a', 00H, 'r', 00H, 'c', 00H, 'h', 00H, ' '
	DB	00H, 'f', 00H, 'o', 00H, 'r', 00H, '?', 00H, 00H, 00H ; `string'
CONST	ENDS
;	COMDAT ??_C@_15IABLJNFO@?$AA?6?$AA?6?$AA?$AA@
CONST	SEGMENT
??_C@_15IABLJNFO@?$AA?6?$AA?6?$AA?$AA@ DB 0aH, 00H, 0aH, 00H, 00H, 00H ; `string'
CONST	ENDS
;	COMDAT ??_C@_1M@BBFBAKCL@?$AA?5?$AA?5?$AA?4?$AA?$CF?$AAs?$AA?$AA@
CONST	SEGMENT
??_C@_1M@BBFBAKCL@?$AA?5?$AA?5?$AA?4?$AA?$CF?$AAs?$AA?$AA@ DB ' ', 00H, ' '
	DB	00H, '.', 00H, '%', 00H, 's', 00H, 00H, 00H	; `string'
CONST	ENDS
;	COMDAT ??_C@_1BI@CINNGLAB@?$AA?5?$AA?5?$AA?9?$AA?9?$AA?$CF?$AAs?$AA?6?$AA?5?$AA?5?$AA?5?$AA?5?$AA?$AA@
CONST	SEGMENT
??_C@_1BI@CINNGLAB@?$AA?5?$AA?5?$AA?9?$AA?9?$AA?$CF?$AAs?$AA?6?$AA?5?$AA?5?$AA?5?$AA?5?$AA?$AA@ DB ' '
	DB	00H, ' ', 00H, '-', 00H, '-', 00H, '%', 00H, 's', 00H, 0aH, 00H
	DB	' ', 00H, ' ', 00H, ' ', 00H, ' ', 00H, 00H, 00H ; `string'
CONST	ENDS
;	COMDAT ??_C@_1FC@GBLPHMKM@?$AAT?$AAh?$AAe?$AA?5?$AAf?$AAo?$AAl?$AAl?$AAo?$AAw?$AAi?$AAn?$AAg?$AA?5?$AAf?$AAi?$AAl?$AAe?$AA?5?$AAt?$AAy?$AAp?$AAe?$AAs?$AA?5?$AAa?$AAr?$AAe?$AA?5?$AAs?$AAu?$AAp@
CONST	SEGMENT
??_C@_1FC@GBLPHMKM@?$AAT?$AAh?$AAe?$AA?5?$AAf?$AAo?$AAl?$AAl?$AAo?$AAw?$AAi?$AAn?$AAg?$AA?5?$AAf?$AAi?$AAl?$AAe?$AA?5?$AAt?$AAy?$AAp?$AAe?$AAs?$AA?5?$AAa?$AAr?$AAe?$AA?5?$AAs?$AAu?$AAp@ DB 'T'
	DB	00H, 'h', 00H, 'e', 00H, ' ', 00H, 'f', 00H, 'o', 00H, 'l', 00H
	DB	'l', 00H, 'o', 00H, 'w', 00H, 'i', 00H, 'n', 00H, 'g', 00H, ' '
	DB	00H, 'f', 00H, 'i', 00H, 'l', 00H, 'e', 00H, ' ', 00H, 't', 00H
	DB	'y', 00H, 'p', 00H, 'e', 00H, 's', 00H, ' ', 00H, 'a', 00H, 'r'
	DB	00H, 'e', 00H, ' ', 00H, 's', 00H, 'u', 00H, 'p', 00H, 'p', 00H
	DB	'o', 00H, 'r', 00H, 't', 00H, 'e', 00H, 'd', 00H, ':', 00H, 0aH
	DB	00H, 00H, 00H				; `string'
CONST	ENDS
;	COMDAT ??_C@_0BE@PMEDBIFB@Failed?5to?5run?5pager?$AA@
CONST	SEGMENT
??_C@_0BE@PMEDBIFB@Failed?5to?5run?5pager?$AA@ DB 'Failed to run pager', 00H ; `string'
CONST	ENDS
;	COMDAT ??_C@_13CIFDLIMG@?$AAw?$AA?$AA@
CONST	SEGMENT
??_C@_13CIFDLIMG@?$AAw?$AA?$AA@ DB 'w', 00H, 00H, 00H	; `string'
CONST	ENDS
;	COMDAT ??_C@_1EA@KHJKBPLA@?$AAo?$AAp?$AAt?$AAi?$AAo?$AAn?$AA?5?$AA?$CF?$AAs?$AA?5?$AAd?$AAo?$AAe?$AAs?$AA?5?$AAn?$AAo?$AAt?$AA?5?$AAt?$AAa?$AAk?$AAe?$AA?5?$AAa?$AA?5?$AAv?$AAa?$AAl?$AAu?$AAe?$AA?$AA@
CONST	SEGMENT
??_C@_1EA@KHJKBPLA@?$AAo?$AAp?$AAt?$AAi?$AAo?$AAn?$AA?5?$AA?$CF?$AAs?$AA?5?$AAd?$AAo?$AAe?$AAs?$AA?5?$AAn?$AAo?$AAt?$AA?5?$AAt?$AAa?$AAk?$AAe?$AA?5?$AAa?$AA?5?$AAv?$AAa?$AAl?$AAu?$AAe?$AA?$AA@ DB 'o'
	DB	00H, 'p', 00H, 't', 00H, 'i', 00H, 'o', 00H, 'n', 00H, ' ', 00H
	DB	'%', 00H, 's', 00H, ' ', 00H, 'd', 00H, 'o', 00H, 'e', 00H, 's'
	DB	00H, ' ', 00H, 'n', 00H, 'o', 00H, 't', 00H, ' ', 00H, 't', 00H
	DB	'a', 00H, 'k', 00H, 'e', 00H, ' ', 00H, 'a', 00H, ' ', 00H, 'v'
	DB	00H, 'a', 00H, 'l', 00H, 'u', 00H, 'e', 00H, 00H, 00H ; `string'
CONST	ENDS
;	COMDAT ??_C@_1M@ENDIDBFO@?$AA?$BL?$AA?$FL?$AA?$CF?$AAs?$AAm?$AA?$AA@
CONST	SEGMENT
??_C@_1M@ENDIDBFO@?$AA?$BL?$AA?$FL?$AA?$CF?$AAs?$AAm?$AA?$AA@ DB 01bH, 00H
	DB	'[', 00H, '%', 00H, 's', 00H, 'm', 00H, 00H, 00H ; `string'
CONST	ENDS
;	COMDAT ??_C@_1FA@PFJCFACM@?$AAA?$AA?3?$AAa?$AAB?$AA?3?$AAC?$AA?3?$AAc?$AAD?$AAG?$AA?3?$AAg?$AA?3?$AAF?$AAf?$AAH?$AAh?$AAi?$AAL?$AAl?$AAm?$AA?3?$AAn?$AAo?$AAp?$AA?3?$AAQ?$AAR?$AAr?$AAS?$AAs?$AAv@
CONST	SEGMENT
??_C@_1FA@PFJCFACM@?$AAA?$AA?3?$AAa?$AAB?$AA?3?$AAC?$AA?3?$AAc?$AAD?$AAG?$AA?3?$AAg?$AA?3?$AAF?$AAf?$AAH?$AAh?$AAi?$AAL?$AAl?$AAm?$AA?3?$AAn?$AAo?$AAp?$AA?3?$AAQ?$AAR?$AAr?$AAS?$AAs?$AAv@ DB 'A'
	DB	00H, ':', 00H, 'a', 00H, 'B', 00H, ':', 00H, 'C', 00H, ':', 00H
	DB	'c', 00H, 'D', 00H, 'G', 00H, ':', 00H, 'g', 00H, ':', 00H, 'F'
	DB	00H, 'f', 00H, 'H', 00H, 'h', 00H, 'i', 00H, 'L', 00H, 'l', 00H
	DB	'm', 00H, ':', 00H, 'n', 00H, 'o', 00H, 'p', 00H, ':', 00H, 'Q'
	DB	00H, 'R', 00H, 'r', 00H, 'S', 00H, 's', 00H, 'v', 00H, 'V', 00H
	DB	't', 00H, 'u', 00H, 'U', 00H, 'w', 00H, 'z', 00H, '0', 00H, 00H
	DB	00H						; `string'
CONST	ENDS
;	COMDAT ??_C@_1DA@NALEGOGH@?$AAE?$AAr?$AAr?$AAo?$AAr?$AA?5?$AAf?$AAs?$AAt?$AAa?$AAt?$AA?$CI?$AA?$CJ?$AAi?$AAn?$AAg?$AA?5?$AAs?$AAt?$AAd?$AAo?$AAu?$AAt?$AA?$AA@
CONST	SEGMENT
??_C@_1DA@NALEGOGH@?$AAE?$AAr?$AAr?$AAo?$AAr?$AA?5?$AAf?$AAs?$AAt?$AAa?$AAt?$AA?$CI?$AA?$CJ?$AAi?$AAn?$AAg?$AA?5?$AAs?$AAt?$AAd?$AAo?$AAu?$AAt?$AA?$AA@ DB 'E'
	DB	00H, 'r', 00H, 'r', 00H, 'o', 00H, 'r', 00H, ' ', 00H, 'f', 00H
	DB	's', 00H, 't', 00H, 'a', 00H, 't', 00H, '(', 00H, ')', 00H, 'i'
	DB	00H, 'n', 00H, 'g', 00H, ' ', 00H, 's', 00H, 't', 00H, 'd', 00H
	DB	'o', 00H, 'u', 00H, 't', 00H, 00H, 00H	; `string'
CONST	ENDS
;	COMDAT ??_C@_1BA@KNIPCJJC@?$AAw?$AAo?$AAr?$AAk?$AAe?$AAr?$AAs?$AA?$AA@
CONST	SEGMENT
??_C@_1BA@KNIPCJJC@?$AAw?$AAo?$AAr?$AAk?$AAe?$AAr?$AAs?$AA?$AA@ DB 'w', 00H
	DB	'o', 00H, 'r', 00H, 'k', 00H, 'e', 00H, 'r', 00H, 's', 00H, 00H
	DB	00H						; `string'
CONST	ENDS
;	COMDAT ??_C@_1BI@DPJICJMO@?$AAw?$AAo?$AAr?$AAd?$AA?9?$AAr?$AAe?$AAg?$AAe?$AAx?$AAp?$AA?$AA@
CONST	SEGMENT
??_C@_1BI@DPJICJMO@?$AAw?$AAo?$AAr?$AAd?$AA?9?$AAr?$AAe?$AAg?$AAe?$AAx?$AAp?$AA?$AA@ DB 'w'
	DB	00H, 'o', 00H, 'r', 00H, 'd', 00H, '-', 00H, 'r', 00H, 'e', 00H
	DB	'g', 00H, 'e', 00H, 'x', 00H, 'p', 00H, 00H, 00H ; `string'
CONST	ENDS
;	COMDAT ??_C@_1BA@OFINMEEJ@?$AAv?$AAi?$AAm?$AAg?$AAr?$AAe?$AAp?$AA?$AA@
CONST	SEGMENT
??_C@_1BA@OFINMEEJ@?$AAv?$AAi?$AAm?$AAg?$AAr?$AAe?$AAp?$AA?$AA@ DB 'v', 00H
	DB	'i', 00H, 'm', 00H, 'g', 00H, 'r', 00H, 'e', 00H, 'p', 00H, 00H
	DB	00H						; `string'
CONST	ENDS
;	COMDAT ??_C@_1BA@KPDNCIMM@?$AAv?$AAe?$AAr?$AAs?$AAi?$AAo?$AAn?$AA?$AA@
CONST	SEGMENT
??_C@_1BA@KPDNCIMM@?$AAv?$AAe?$AAr?$AAs?$AAi?$AAo?$AAn?$AA?$AA@ DB 'v', 00H
	DB	'e', 00H, 'r', 00H, 's', 00H, 'i', 00H, 'o', 00H, 'n', 00H, 00H
	DB	00H						; `string'
CONST	ENDS
;	COMDAT ??_C@_1BK@GPPBMMOJ@?$AAu?$AAn?$AAr?$AAe?$AAs?$AAt?$AAr?$AAi?$AAc?$AAt?$AAe?$AAd?$AA?$AA@
CONST	SEGMENT
??_C@_1BK@GPPBMMOJ@?$AAu?$AAn?$AAr?$AAe?$AAs?$AAt?$AAr?$AAi?$AAc?$AAt?$AAe?$AAd?$AA?$AA@ DB 'u'
	DB	00H, 'n', 00H, 'r', 00H, 'e', 00H, 's', 00H, 't', 00H, 'r', 00H
	DB	'i', 00H, 'c', 00H, 't', 00H, 'e', 00H, 'd', 00H, 00H, 00H ; `string'
CONST	ENDS
;	COMDAT ??_C@_1M@NNCEKPPG@?$AAs?$AAt?$AAa?$AAt?$AAs?$AA?$AA@
CONST	SEGMENT
??_C@_1M@NNCEKPPG@?$AAs?$AAt?$AAa?$AAt?$AAs?$AA?$AA@ DB 's', 00H, 't', 00H
	DB	'a', 00H, 't', 00H, 's', 00H, 00H, 00H	; `string'
CONST	ENDS
;	COMDAT ??_C@_1BG@JOAAIHCB@?$AAs?$AAm?$AAa?$AAr?$AAt?$AA?9?$AAc?$AAa?$AAs?$AAe?$AA?$AA@
CONST	SEGMENT
??_C@_1BG@JOAAIHCB@?$AAs?$AAm?$AAa?$AAr?$AAt?$AA?9?$AAc?$AAa?$AAs?$AAe?$AA?$AA@ DB 's'
	DB	00H, 'm', 00H, 'a', 00H, 'r', 00H, 't', 00H, '-', 00H, 'c', 00H
	DB	'a', 00H, 's', 00H, 'e', 00H, 00H, 00H	; `string'
CONST	ENDS
;	COMDAT ??_C@_1CC@GFCDIIKJ@?$AAs?$AAk?$AAi?$AAp?$AA?9?$AAv?$AAc?$AAs?$AA?9?$AAi?$AAg?$AAn?$AAo?$AAr?$AAe?$AAs?$AA?$AA@
CONST	SEGMENT
??_C@_1CC@GFCDIIKJ@?$AAs?$AAk?$AAi?$AAp?$AA?9?$AAv?$AAc?$AAs?$AA?9?$AAi?$AAg?$AAn?$AAo?$AAr?$AAe?$AAs?$AA?$AA@ DB 's'
	DB	00H, 'k', 00H, 'i', 00H, 'p', 00H, '-', 00H, 'v', 00H, 'c', 00H
	DB	's', 00H, '-', 00H, 'i', 00H, 'g', 00H, 'n', 00H, 'o', 00H, 'r'
	DB	00H, 'e', 00H, 's', 00H, 00H, 00H		; `string'
CONST	ENDS
;	COMDAT ??_C@_1O@IIMCFFPP@?$AAs?$AAi?$AAl?$AAe?$AAn?$AAt?$AA?$AA@
CONST	SEGMENT
??_C@_1O@IIMCFFPP@?$AAs?$AAi?$AAl?$AAe?$AAn?$AAt?$AA?$AA@ DB 's', 00H, 'i'
	DB	00H, 'l', 00H, 'e', 00H, 'n', 00H, 't', 00H, 00H, 00H ; `string'
CONST	ENDS
;	COMDAT ??_C@_1BG@MMEMJLOB@?$AAs?$AAe?$AAa?$AAr?$AAc?$AAh?$AA?9?$AAz?$AAi?$AAp?$AA?$AA@
CONST	SEGMENT
??_C@_1BG@MMEMJLOB@?$AAs?$AAe?$AAa?$AAr?$AAc?$AAh?$AA?9?$AAz?$AAi?$AAp?$AA?$AA@ DB 's'
	DB	00H, 'e', 00H, 'a', 00H, 'r', 00H, 'c', 00H, 'h', 00H, '-', 00H
	DB	'z', 00H, 'i', 00H, 'p', 00H, 00H, 00H	; `string'
CONST	ENDS
;	COMDAT ??_C@_1BK@FCCOOKFM@?$AAs?$AAe?$AAa?$AAr?$AAc?$AAh?$AA?9?$AAf?$AAi?$AAl?$AAe?$AAs?$AA?$AA@
CONST	SEGMENT
??_C@_1BK@FCCOOKFM@?$AAs?$AAe?$AAa?$AAr?$AAc?$AAh?$AA?9?$AAf?$AAi?$AAl?$AAe?$AAs?$AA?$AA@ DB 's'
	DB	00H, 'e', 00H, 'a', 00H, 'r', 00H, 'c', 00H, 'h', 00H, '-', 00H
	DB	'f', 00H, 'i', 00H, 'l', 00H, 'e', 00H, 's', 00H, 00H, 00H ; `string'
CONST	ENDS
;	COMDAT ??_C@_1BM@BCKJCGHP@?$AAs?$AAe?$AAa?$AAr?$AAc?$AAh?$AA?9?$AAb?$AAi?$AAn?$AAa?$AAr?$AAy?$AA?$AA@
CONST	SEGMENT
??_C@_1BM@BCKJCGHP@?$AAs?$AAe?$AAa?$AAr?$AAc?$AAh?$AA?9?$AAb?$AAi?$AAn?$AAa?$AAr?$AAy?$AA?$AA@ DB 's'
	DB	00H, 'e', 00H, 'a', 00H, 'r', 00H, 'c', 00H, 'h', 00H, '-', 00H
	DB	'b', 00H, 'i', 00H, 'n', 00H, 'a', 00H, 'r', 00H, 'y', 00H, 00H
	DB	00H						; `string'
CONST	ENDS
;	COMDAT ??_C@_1BA@GDGLNNAD@?$AAr?$AAe?$AAc?$AAu?$AAr?$AAs?$AAe?$AA?$AA@
CONST	SEGMENT
??_C@_1BA@GDGLNNAD@?$AAr?$AAe?$AAc?$AAu?$AAr?$AAs?$AAe?$AA?$AA@ DB 'r', 00H
	DB	'e', 00H, 'c', 00H, 'u', 00H, 'r', 00H, 's', 00H, 'e', 00H, 00H
	DB	00H						; `string'
CONST	ENDS
;	COMDAT ??_C@_1CC@NNDKIGAN@?$AAp?$AAr?$AAi?$AAn?$AAt?$AA?9?$AAl?$AAo?$AAn?$AAg?$AA?9?$AAl?$AAi?$AAn?$AAe?$AAs?$AA?$AA@
CONST	SEGMENT
??_C@_1CC@NNDKIGAN@?$AAp?$AAr?$AAi?$AAn?$AAt?$AA?9?$AAl?$AAo?$AAn?$AAg?$AA?9?$AAl?$AAi?$AAn?$AAe?$AAs?$AA?$AA@ DB 'p'
	DB	00H, 'r', 00H, 'i', 00H, 'n', 00H, 't', 00H, '-', 00H, 'l', 00H
	DB	'o', 00H, 'n', 00H, 'g', 00H, '-', 00H, 'l', 00H, 'i', 00H, 'n'
	DB	00H, 'e', 00H, 's', 00H, 00H, 00H		; `string'
CONST	ENDS
;	COMDAT ??_C@_1O@IEFBAAFD@?$AAp?$AAr?$AAi?$AAn?$AAt?$AA0?$AA?$AA@
CONST	SEGMENT
??_C@_1O@IEFBAAFD@?$AAp?$AAr?$AAi?$AAn?$AAt?$AA0?$AA?$AA@ DB 'p', 00H, 'r'
	DB	00H, 'i', 00H, 'n', 00H, 't', 00H, '0', 00H, 00H, 00H ; `string'
CONST	ENDS
;	COMDAT ??_C@_1CC@DPLOKIO@?$AAp?$AAa?$AAt?$AAh?$AA?9?$AAt?$AAo?$AA?9?$AAa?$AAg?$AAi?$AAg?$AAn?$AAo?$AAr?$AAe?$AA?$AA@
CONST	SEGMENT
??_C@_1CC@DPLOKIO@?$AAp?$AAa?$AAt?$AAh?$AA?9?$AAt?$AAo?$AA?9?$AAa?$AAg?$AAi?$AAg?$AAn?$AAo?$AAr?$AAe?$AA?$AA@ DB 'p'
	DB	00H, 'a', 00H, 't', 00H, 'h', 00H, '-', 00H, 't', 00H, 'o', 00H
	DB	'-', 00H, 'a', 00H, 'g', 00H, 'i', 00H, 'g', 00H, 'n', 00H, 'o'
	DB	00H, 'r', 00H, 'e', 00H, 00H, 00H		; `string'
CONST	ENDS
;	COMDAT ??_C@_1BC@OFNIBPPO@?$AAp?$AAa?$AAs?$AAs?$AAt?$AAh?$AAr?$AAu?$AA?$AA@
CONST	SEGMENT
??_C@_1BC@OFNIBPPO@?$AAp?$AAa?$AAs?$AAs?$AAt?$AAh?$AAr?$AAu?$AA?$AA@ DB 'p'
	DB	00H, 'a', 00H, 's', 00H, 's', 00H, 't', 00H, 'h', 00H, 'r', 00H
	DB	'u', 00H, 00H, 00H				; `string'
CONST	ENDS
;	COMDAT ??_C@_1BI@LOLOJFNM@?$AAp?$AAa?$AAs?$AAs?$AAt?$AAh?$AAr?$AAo?$AAu?$AAg?$AAh?$AA?$AA@
CONST	SEGMENT
??_C@_1BI@LOLOJFNM@?$AAp?$AAa?$AAs?$AAs?$AAt?$AAh?$AAr?$AAo?$AAu?$AAg?$AAh?$AA?$AA@ DB 'p'
	DB	00H, 'a', 00H, 's', 00H, 's', 00H, 't', 00H, 'h', 00H, 'r', 00H
	DB	'o', 00H, 'u', 00H, 'g', 00H, 'h', 00H, 00H, 00H ; `string'
CONST	ENDS
;	COMDAT ??_C@_1BC@BLAFGIDL@?$AAp?$AAa?$AAr?$AAa?$AAl?$AAl?$AAe?$AAl?$AA?$AA@
CONST	SEGMENT
??_C@_1BC@BLAFGIDL@?$AAp?$AAa?$AAr?$AAa?$AAl?$AAl?$AAe?$AAl?$AA?$AA@ DB 'p'
	DB	00H, 'a', 00H, 'r', 00H, 'a', 00H, 'l', 00H, 'l', 00H, 'e', 00H
	DB	'l', 00H, 00H, 00H				; `string'
CONST	ENDS
;	COMDAT ??_C@_1M@NNGEIIHG@?$AAp?$AAa?$AAg?$AAe?$AAr?$AA?$AA@
CONST	SEGMENT
??_C@_1M@NNGEIIHG@?$AAp?$AAa?$AAg?$AAe?$AAr?$AA?$AA@ DB 'p', 00H, 'a', 00H
	DB	'g', 00H, 'e', 00H, 'r', 00H, 00H, 00H	; `string'
CONST	ENDS
;	COMDAT ??_C@_1BG@HBMOODBC@?$AAo?$AAn?$AAe?$AA?9?$AAd?$AAe?$AAv?$AAi?$AAc?$AAe?$AA?$AA@
CONST	SEGMENT
??_C@_1BG@HBMOODBC@?$AAo?$AAn?$AAe?$AA?9?$AAd?$AAe?$AAv?$AAi?$AAc?$AAe?$AA?$AA@ DB 'o'
	DB	00H, 'n', 00H, 'e', 00H, '-', 00H, 'd', 00H, 'e', 00H, 'v', 00H
	DB	'i', 00H, 'c', 00H, 'e', 00H, 00H, 00H	; `string'
CONST	ENDS
;	COMDAT ??_C@_1BM@DACNNOFA@?$AAo?$AAn?$AAl?$AAy?$AA?9?$AAm?$AAa?$AAt?$AAc?$AAh?$AAi?$AAn?$AAg?$AA?$AA@
CONST	SEGMENT
??_C@_1BM@DACNNOFA@?$AAo?$AAn?$AAl?$AAy?$AA?9?$AAm?$AAa?$AAt?$AAc?$AAh?$AAi?$AAn?$AAg?$AA?$AA@ DB 'o'
	DB	00H, 'n', 00H, 'l', 00H, 'y', 00H, '-', 00H, 'm', 00H, 'a', 00H
	DB	't', 00H, 'c', 00H, 'h', 00H, 'i', 00H, 'n', 00H, 'g', 00H, 00H
	DB	00H						; `string'
CONST	ENDS
;	COMDAT ??_C@_1BA@KAMPKGGC@?$AAn?$AAu?$AAm?$AAb?$AAe?$AAr?$AAs?$AA?$AA@
CONST	SEGMENT
??_C@_1BA@KAMPKGGC@?$AAn?$AAu?$AAm?$AAb?$AAe?$AAr?$AAs?$AA?$AA@ DB 'n', 00H
	DB	'u', 00H, 'm', 00H, 'b', 00H, 'e', 00H, 'r', 00H, 's', 00H, 00H
	DB	00H						; `string'
CONST	ENDS
;	COMDAT ??_C@_19DJCNLLCE@?$AAn?$AAu?$AAl?$AAl?$AA?$AA@
CONST	SEGMENT
??_C@_19DJCNLLCE@?$AAn?$AAu?$AAl?$AAl?$AA?$AA@ DB 'n', 00H, 'u', 00H, 'l', 00H
	DB	'l', 00H, 00H, 00H				; `string'
CONST	ENDS
;	COMDAT ??_C@_1BE@KHENNKJJ@?$AAn?$AAo?$AAr?$AAe?$AAc?$AAu?$AAr?$AAs?$AAe?$AA?$AA@
CONST	SEGMENT
??_C@_1BE@KHENNKJJ@?$AAn?$AAo?$AAr?$AAe?$AAc?$AAu?$AAr?$AAs?$AAe?$AA?$AA@ DB 'n'
	DB	00H, 'o', 00H, 'r', 00H, 'e', 00H, 'c', 00H, 'u', 00H, 'r', 00H
	DB	's', 00H, 'e', 00H, 00H, 00H			; `string'
CONST	ENDS
;	COMDAT ??_C@_1BA@IJIAEFLP@?$AAn?$AAo?$AAp?$AAa?$AAg?$AAe?$AAr?$AA?$AA@
CONST	SEGMENT
??_C@_1BA@IJIAEFLP@?$AAn?$AAo?$AAp?$AAa?$AAg?$AAe?$AAr?$AA?$AA@ DB 'n', 00H
	DB	'o', 00H, 'p', 00H, 'a', 00H, 'g', 00H, 'e', 00H, 'r', 00H, 00H
	DB	00H						; `string'
CONST	ENDS
;	COMDAT ??_C@_1BE@GEOJKBPI@?$AAn?$AAo?$AAn?$AAu?$AAm?$AAb?$AAe?$AAr?$AAs?$AA?$AA@
CONST	SEGMENT
??_C@_1BE@GEOJKBPI@?$AAn?$AAo?$AAn?$AAu?$AAm?$AAb?$AAe?$AAr?$AAs?$AA?$AA@ DB 'n'
	DB	00H, 'o', 00H, 'n', 00H, 'u', 00H, 'm', 00H, 'b', 00H, 'e', 00H
	DB	'r', 00H, 's', 00H, 00H, 00H			; `string'
CONST	ENDS
;	COMDAT ??_C@_1BE@KFBONONB@?$AAn?$AAo?$AAh?$AAe?$AAa?$AAd?$AAi?$AAn?$AAg?$AA?$AA@
CONST	SEGMENT
??_C@_1BE@KFBONONB@?$AAn?$AAo?$AAh?$AAe?$AAa?$AAd?$AAi?$AAn?$AAg?$AA?$AA@ DB 'n'
	DB	00H, 'o', 00H, 'h', 00H, 'e', 00H, 'a', 00H, 'd', 00H, 'i', 00H
	DB	'n', 00H, 'g', 00H, 00H, 00H			; `string'
CONST	ENDS
;	COMDAT ??_C@_1BA@EHKDKKIC@?$AAn?$AAo?$AAg?$AAr?$AAo?$AAu?$AAp?$AA?$AA@
CONST	SEGMENT
??_C@_1BA@EHKDKKIC@?$AAn?$AAo?$AAg?$AAr?$AAo?$AAu?$AAp?$AA?$AA@ DB 'n', 00H
	DB	'o', 00H, 'g', 00H, 'r', 00H, 'o', 00H, 'u', 00H, 'p', 00H, 00H
	DB	00H						; `string'
CONST	ENDS
;	COMDAT ??_C@_1BC@LMKFEDJA@?$AAn?$AAo?$AAf?$AAo?$AAl?$AAl?$AAo?$AAw?$AA?$AA@
CONST	SEGMENT
??_C@_1BC@LMKFEDJA@?$AAn?$AAo?$AAf?$AAo?$AAl?$AAl?$AAo?$AAw?$AA?$AA@ DB 'n'
	DB	00H, 'o', 00H, 'f', 00H, 'o', 00H, 'l', 00H, 'l', 00H, 'o', 00H
	DB	'w', 00H, 00H, 00H				; `string'
CONST	ENDS
;	COMDAT ??_C@_1BG@PNIHHOGE@?$AAn?$AAo?$AAf?$AAi?$AAl?$AAe?$AAn?$AAa?$AAm?$AAe?$AA?$AA@
CONST	SEGMENT
??_C@_1BG@PNIHHOGE@?$AAn?$AAo?$AAf?$AAi?$AAl?$AAe?$AAn?$AAa?$AAm?$AAe?$AA?$AA@ DB 'n'
	DB	00H, 'o', 00H, 'f', 00H, 'i', 00H, 'l', 00H, 'e', 00H, 'n', 00H
	DB	'a', 00H, 'm', 00H, 'e', 00H, 00H, 00H	; `string'
CONST	ENDS
;	COMDAT ??_C@_1BA@BADOHFDA@?$AAn?$AAo?$AAc?$AAo?$AAl?$AAo?$AAr?$AA?$AA@
CONST	SEGMENT
??_C@_1BA@BADOHFDA@?$AAn?$AAo?$AAc?$AAo?$AAl?$AAo?$AAr?$AA?$AA@ DB 'n', 00H
	DB	'o', 00H, 'c', 00H, 'o', 00H, 'l', 00H, 'o', 00H, 'r', 00H, 00H
	DB	00H						; `string'
CONST	ENDS
;	COMDAT ??_C@_1BA@FBJPFBEJ@?$AAn?$AAo?$AAb?$AAr?$AAe?$AAa?$AAk?$AA?$AA@
CONST	SEGMENT
??_C@_1BA@FBJPFBEJ@?$AAn?$AAo?$AAb?$AAr?$AAe?$AAa?$AAk?$AA?$AA@ DB 'n', 00H
	DB	'o', 00H, 'b', 00H, 'r', 00H, 'e', 00H, 'a', 00H, 'k', 00H, 00H
	DB	00H						; `string'
CONST	ENDS
;	COMDAT ??_C@_1BG@KIINCEOB@?$AAn?$AAo?$AAa?$AAf?$AAf?$AAi?$AAn?$AAi?$AAt?$AAy?$AA?$AA@
CONST	SEGMENT
??_C@_1BG@KIINCEOB@?$AAn?$AAo?$AAa?$AAf?$AAf?$AAi?$AAn?$AAi?$AAt?$AAy?$AA?$AA@ DB 'n'
	DB	00H, 'o', 00H, 'a', 00H, 'f', 00H, 'f', 00H, 'i', 00H, 'n', 00H
	DB	'i', 00H, 't', 00H, 'y', 00H, 00H, 00H	; `string'
CONST	ENDS
;	COMDAT ??_C@_1BG@FDOMBNNF@?$AAn?$AAo?$AA?9?$AAr?$AAe?$AAc?$AAu?$AAr?$AAs?$AAe?$AA?$AA@
CONST	SEGMENT
??_C@_1BG@FDOMBNNF@?$AAn?$AAo?$AA?9?$AAr?$AAe?$AAc?$AAu?$AAr?$AAs?$AAe?$AA?$AA@ DB 'n'
	DB	00H, 'o', 00H, '-', 00H, 'r', 00H, 'e', 00H, 'c', 00H, 'u', 00H
	DB	'r', 00H, 's', 00H, 'e', 00H, 00H, 00H	; `string'
CONST	ENDS
;	COMDAT ??_C@_1BG@JAEIGGLE@?$AAn?$AAo?$AA?9?$AAn?$AAu?$AAm?$AAb?$AAe?$AAr?$AAs?$AA?$AA@
CONST	SEGMENT
??_C@_1BG@JAEIGGLE@?$AAn?$AAo?$AA?9?$AAn?$AAu?$AAm?$AAb?$AAe?$AAr?$AAs?$AA?$AA@ DB 'n'
	DB	00H, 'o', 00H, '-', 00H, 'n', 00H, 'u', 00H, 'm', 00H, 'b', 00H
	DB	'e', 00H, 'r', 00H, 's', 00H, 00H, 00H	; `string'
CONST	ENDS
;	COMDAT ??_C@_1BE@PKDOOPLG@?$AAm?$AAa?$AAx?$AA?9?$AAc?$AAo?$AAu?$AAn?$AAt?$AA?$AA@
CONST	SEGMENT
??_C@_1BE@PKDOOPLG@?$AAm?$AAa?$AAx?$AA?9?$AAc?$AAo?$AAu?$AAn?$AAt?$AA?$AA@ DB 'm'
	DB	00H, 'a', 00H, 'x', 00H, '-', 00H, 'c', 00H, 'o', 00H, 'u', 00H
	DB	'n', 00H, 't', 00H, 00H, 00H			; `string'
CONST	ENDS
;	COMDAT ??_C@_1M@FEBKAGEK@?$AAm?$AAa?$AAt?$AAc?$AAh?$AA?$AA@
CONST	SEGMENT
??_C@_1M@FEBKAGEK@?$AAm?$AAa?$AAt?$AAc?$AAh?$AA?$AA@ DB 'm', 00H, 'a', 00H
	DB	't', 00H, 'c', 00H, 'h', 00H, 00H, 00H	; `string'
CONST	ENDS
;	COMDAT ??_C@_1BA@ODADONJK@?$AAl?$AAi?$AAt?$AAe?$AAr?$AAa?$AAl?$AA?$AA@
CONST	SEGMENT
??_C@_1BA@ODADONJK@?$AAl?$AAi?$AAt?$AAe?$AAr?$AAa?$AAl?$AA?$AA@ DB 'l', 00H
	DB	'i', 00H, 't', 00H, 'e', 00H, 'r', 00H, 'a', 00H, 'l', 00H, 00H
	DB	00H						; `string'
CONST	ENDS
;	COMDAT ??_C@_1CA@OBMILHG@?$AAl?$AAi?$AAs?$AAt?$AA?9?$AAf?$AAi?$AAl?$AAe?$AA?9?$AAt?$AAy?$AAp?$AAe?$AAs?$AA?$AA@
CONST	SEGMENT
??_C@_1CA@OBMILHG@?$AAl?$AAi?$AAs?$AAt?$AA?9?$AAf?$AAi?$AAl?$AAe?$AA?9?$AAt?$AAy?$AAp?$AAe?$AAs?$AA?$AA@ DB 'l'
	DB	00H, 'i', 00H, 's', 00H, 't', 00H, '-', 00H, 'f', 00H, 'i', 00H
	DB	'l', 00H, 'e', 00H, '-', 00H, 't', 00H, 'y', 00H, 'p', 00H, 'e'
	DB	00H, 's', 00H, 00H, 00H			; `string'
CONST	ENDS
;	COMDAT ??_C@_1BK@HPAIPIPO@?$AAl?$AAi?$AAn?$AAe?$AA?9?$AAn?$AAu?$AAm?$AAb?$AAe?$AAr?$AAs?$AA?$AA@
CONST	SEGMENT
??_C@_1BK@HPAIPIPO@?$AAl?$AAi?$AAn?$AAe?$AA?9?$AAn?$AAu?$AAm?$AAb?$AAe?$AAr?$AAs?$AA?$AA@ DB 'l'
	DB	00H, 'i', 00H, 'n', 00H, 'e', 00H, '-', 00H, 'n', 00H, 'u', 00H
	DB	'm', 00H, 'b', 00H, 'e', 00H, 'r', 00H, 's', 00H, 00H, 00H ; `string'
CONST	ENDS
;	COMDAT ??_C@_1BK@ODAOMBJO@?$AAi?$AAn?$AAv?$AAe?$AAr?$AAt?$AA?9?$AAm?$AAa?$AAt?$AAc?$AAh?$AA?$AA@
CONST	SEGMENT
??_C@_1BK@ODAOMBJO@?$AAi?$AAn?$AAv?$AAe?$AAr?$AAt?$AA?9?$AAm?$AAa?$AAt?$AAc?$AAh?$AA?$AA@ DB 'i'
	DB	00H, 'n', 00H, 'v', 00H, 'e', 00H, 'r', 00H, 't', 00H, '-', 00H
	DB	'm', 00H, 'a', 00H, 't', 00H, 'c', 00H, 'h', 00H, 00H, 00H ; `string'
CONST	ENDS
;	COMDAT ??_C@_1BG@IHFOKHGF@?$AAi?$AAg?$AAn?$AAo?$AAr?$AAe?$AA?9?$AAd?$AAi?$AAr?$AA?$AA@
CONST	SEGMENT
??_C@_1BG@IHFOKHGF@?$AAi?$AAg?$AAn?$AAo?$AAr?$AAe?$AA?9?$AAd?$AAi?$AAr?$AA?$AA@ DB 'i'
	DB	00H, 'g', 00H, 'n', 00H, 'o', 00H, 'r', 00H, 'e', 00H, '-', 00H
	DB	'd', 00H, 'i', 00H, 'r', 00H, 00H, 00H	; `string'
CONST	ENDS
;	COMDAT ??_C@_1BI@KGKFPKKP@?$AAi?$AAg?$AAn?$AAo?$AAr?$AAe?$AA?9?$AAc?$AAa?$AAs?$AAe?$AA?$AA@
CONST	SEGMENT
??_C@_1BI@KGKFPKKP@?$AAi?$AAg?$AAn?$AAo?$AAr?$AAe?$AA?9?$AAc?$AAa?$AAs?$AAe?$AA?$AA@ DB 'i'
	DB	00H, 'g', 00H, 'n', 00H, 'o', 00H, 'r', 00H, 'e', 00H, '-', 00H
	DB	'c', 00H, 'a', 00H, 's', 00H, 'e', 00H, 00H, 00H ; `string'
CONST	ENDS
;	COMDAT ??_C@_1O@NMPCFOPJ@?$AAi?$AAg?$AAn?$AAo?$AAr?$AAe?$AA?$AA@
CONST	SEGMENT
??_C@_1O@NMPCFOPJ@?$AAi?$AAg?$AAn?$AAo?$AAr?$AAe?$AA?$AA@ DB 'i', 00H, 'g'
	DB	00H, 'n', 00H, 'o', 00H, 'r', 00H, 'e', 00H, 00H, 00H ; `string'
CONST	ENDS
;	COMDAT ??_C@_1O@CLFGFFCM@?$AAh?$AAi?$AAd?$AAd?$AAe?$AAn?$AA?$AA@
CONST	SEGMENT
??_C@_1O@CLFGFFCM@?$AAh?$AAi?$AAd?$AAd?$AAe?$AAn?$AA?$AA@ DB 'h', 00H, 'i'
	DB	00H, 'd', 00H, 'd', 00H, 'e', 00H, 'n', 00H, 00H, 00H ; `string'
CONST	ENDS
;	COMDAT ??_C@_19FCEHBCGP@?$AAh?$AAe?$AAl?$AAp?$AA?$AA@
CONST	SEGMENT
??_C@_19FCEHBCGP@?$AAh?$AAe?$AAl?$AAp?$AA?$AA@ DB 'h', 00H, 'e', 00H, 'l', 00H
	DB	'p', 00H, 00H, 00H				; `string'
CONST	ENDS
;	COMDAT ??_C@_1BA@GBDINJEL@?$AAh?$AAe?$AAa?$AAd?$AAi?$AAn?$AAg?$AA?$AA@
CONST	SEGMENT
??_C@_1BA@GBDINJEL@?$AAh?$AAe?$AAa?$AAd?$AAi?$AAn?$AAg?$AA?$AA@ DB 'h', 00H
	DB	'e', 00H, 'a', 00H, 'd', 00H, 'i', 00H, 'n', 00H, 'g', 00H, 00H
	DB	00H						; `string'
CONST	ENDS
;	COMDAT ??_C@_1M@BDEHGHEL@?$AAg?$AAr?$AAo?$AAu?$AAp?$AA?$AA@
CONST	SEGMENT
??_C@_1M@BDEHGHEL@?$AAg?$AAr?$AAo?$AAu?$AAp?$AA?$AA@ DB 'g', 00H, 'r', 00H
	DB	'o', 00H, 'u', 00H, 'p', 00H, 00H, 00H	; `string'
CONST	ENDS
;	COMDAT ??_C@_1O@EDEIMFHO@?$AAf?$AAo?$AAl?$AAl?$AAo?$AAw?$AA?$AA@
CONST	SEGMENT
??_C@_1O@EDEIMFHO@?$AAf?$AAo?$AAl?$AAl?$AAo?$AAw?$AA?$AA@ DB 'f', 00H, 'o'
	DB	00H, 'l', 00H, 'l', 00H, 'o', 00H, 'w', 00H, 00H, 00H ; `string'
CONST	ENDS
;	COMDAT ??_C@_1BM@CCAMNKGL@?$AAf?$AAi?$AAx?$AAe?$AAd?$AA?9?$AAs?$AAt?$AAr?$AAi?$AAn?$AAg?$AAs?$AA?$AA@
CONST	SEGMENT
??_C@_1BM@CCAMNKGL@?$AAf?$AAi?$AAx?$AAe?$AAd?$AA?9?$AAs?$AAt?$AAr?$AAi?$AAn?$AAg?$AAs?$AA?$AA@ DB 'f'
	DB	00H, 'i', 00H, 'x', 00H, 'e', 00H, 'd', 00H, '-', 00H, 's', 00H
	DB	't', 00H, 'r', 00H, 'i', 00H, 'n', 00H, 'g', 00H, 's', 00H, 00H
	DB	00H						; `string'
CONST	ENDS
;	COMDAT ??_C@_1CM@OFEKOHLI@?$AAf?$AAi?$AAl?$AAe?$AAs?$AA?9?$AAw?$AAi?$AAt?$AAh?$AAo?$AAu?$AAt?$AA?9?$AAm?$AAa?$AAt?$AAc?$AAh?$AAe?$AAs?$AA?$AA@
CONST	SEGMENT
??_C@_1CM@OFEKOHLI@?$AAf?$AAi?$AAl?$AAe?$AAs?$AA?9?$AAw?$AAi?$AAt?$AAh?$AAo?$AAu?$AAt?$AA?9?$AAm?$AAa?$AAt?$AAc?$AAh?$AAe?$AAs?$AA?$AA@ DB 'f'
	DB	00H, 'i', 00H, 'l', 00H, 'e', 00H, 's', 00H, '-', 00H, 'w', 00H
	DB	'i', 00H, 't', 00H, 'h', 00H, 'o', 00H, 'u', 00H, 't', 00H, '-'
	DB	00H, 'm', 00H, 'a', 00H, 't', 00H, 'c', 00H, 'h', 00H, 'e', 00H
	DB	's', 00H, 00H, 00H				; `string'
CONST	ENDS
;	COMDAT ??_C@_1CG@LBNAEOPK@?$AAf?$AAi?$AAl?$AAe?$AAs?$AA?9?$AAw?$AAi?$AAt?$AAh?$AA?9?$AAm?$AAa?$AAt?$AAc?$AAh?$AAe?$AAs?$AA?$AA@
CONST	SEGMENT
??_C@_1CG@LBNAEOPK@?$AAf?$AAi?$AAl?$AAe?$AAs?$AA?9?$AAw?$AAi?$AAt?$AAh?$AA?9?$AAm?$AAa?$AAt?$AAc?$AAh?$AAe?$AAs?$AA?$AA@ DB 'f'
	DB	00H, 'i', 00H, 'l', 00H, 'e', 00H, 's', 00H, '-', 00H, 'w', 00H
	DB	'i', 00H, 't', 00H, 'h', 00H, '-', 00H, 'm', 00H, 'a', 00H, 't'
	DB	00H, 'c', 00H, 'h', 00H, 'e', 00H, 's', 00H, 00H, 00H ; `string'
CONST	ENDS
;	COMDAT ??_C@_1CE@DIHNJLFH@?$AAf?$AAi?$AAl?$AAe?$AA?9?$AAs?$AAe?$AAa?$AAr?$AAc?$AAh?$AA?9?$AAr?$AAe?$AAg?$AAe?$AAx?$AA?$AA@
CONST	SEGMENT
??_C@_1CE@DIHNJLFH@?$AAf?$AAi?$AAl?$AAe?$AA?9?$AAs?$AAe?$AAa?$AAr?$AAc?$AAh?$AA?9?$AAr?$AAe?$AAg?$AAe?$AAx?$AA?$AA@ DB 'f'
	DB	00H, 'i', 00H, 'l', 00H, 'e', 00H, '-', 00H, 's', 00H, 'e', 00H
	DB	'a', 00H, 'r', 00H, 'c', 00H, 'h', 00H, '-', 00H, 'r', 00H, 'e'
	DB	00H, 'g', 00H, 'e', 00H, 'x', 00H, 00H, 00H	; `string'
CONST	ENDS
;	COMDAT ??_C@_1BC@OIENENHB@?$AAf?$AAi?$AAl?$AAe?$AAn?$AAa?$AAm?$AAe?$AA?$AA@
CONST	SEGMENT
??_C@_1BC@OIENENHB@?$AAf?$AAi?$AAl?$AAe?$AAn?$AAa?$AAm?$AAe?$AA?$AA@ DB 'f'
	DB	00H, 'i', 00H, 'l', 00H, 'e', 00H, 'n', 00H, 'a', 00H, 'm', 00H
	DB	'e', 00H, 00H, 00H				; `string'
CONST	ENDS
;	COMDAT ??_C@_1M@FKMBKAHI@?$AAd?$AAe?$AAp?$AAt?$AAh?$AA?$AA@
CONST	SEGMENT
??_C@_1M@FKMBKAHI@?$AAd?$AAe?$AAp?$AAt?$AAh?$AA?$AA@ DB 'd', 00H, 'e', 00H
	DB	'p', 00H, 't', 00H, 'h', 00H, 00H, 00H	; `string'
CONST	ENDS
;	COMDAT ??_C@_1M@PHGAFFNN@?$AAd?$AAe?$AAb?$AAu?$AAg?$AA?$AA@
CONST	SEGMENT
??_C@_1M@PHGAFFNN@?$AAd?$AAe?$AAb?$AAu?$AAg?$AA?$AA@ DB 'd', 00H, 'e', 00H
	DB	'b', 00H, 'u', 00H, 'g', 00H, 00H, 00H	; `string'
CONST	ENDS
;	COMDAT ??_C@_1M@MJBJBOIA@?$AAc?$AAo?$AAu?$AAn?$AAt?$AA?$AA@
CONST	SEGMENT
??_C@_1M@MJBJBOIA@?$AAc?$AAo?$AAu?$AAn?$AAt?$AA?$AA@ DB 'c', 00H, 'o', 00H
	DB	'u', 00H, 'n', 00H, 't', 00H, 00H, 00H	; `string'
CONST	ENDS
;	COMDAT ??_C@_1BA@HMGCDKEM@?$AAc?$AAo?$AAn?$AAt?$AAe?$AAx?$AAt?$AA?$AA@
CONST	SEGMENT
??_C@_1BA@HMGCDKEM@?$AAc?$AAo?$AAn?$AAt?$AAe?$AAx?$AAt?$AA?$AA@ DB 'c', 00H
	DB	'o', 00H, 'n', 00H, 't', 00H, 'e', 00H, 'x', 00H, 't', 00H, 00H
	DB	00H						; `string'
CONST	ENDS
;	COMDAT ??_C@_1O@MEMGDIAN@?$AAc?$AAo?$AAl?$AAu?$AAm?$AAn?$AA?$AA@
CONST	SEGMENT
??_C@_1O@MEMGDIAN@?$AAc?$AAo?$AAl?$AAu?$AAm?$AAn?$AA?$AA@ DB 'c', 00H, 'o'
	DB	00H, 'l', 00H, 'u', 00H, 'm', 00H, 'n', 00H, 00H, 00H ; `string'
CONST	ENDS
;	COMDAT ??_C@_1BO@ELCLJFDK@?$AAc?$AAo?$AAl?$AAo?$AAr?$AA?9?$AAw?$AAi?$AAn?$AA?9?$AAa?$AAn?$AAs?$AAi?$AA?$AA@
CONST	SEGMENT
??_C@_1BO@ELCLJFDK@?$AAc?$AAo?$AAl?$AAo?$AAr?$AA?9?$AAw?$AAi?$AAn?$AA?9?$AAa?$AAn?$AAs?$AAi?$AA?$AA@ DB 'c'
	DB	00H, 'o', 00H, 'l', 00H, 'o', 00H, 'r', 00H, '-', 00H, 'w', 00H
	DB	'i', 00H, 'n', 00H, '-', 00H, 'a', 00H, 'n', 00H, 's', 00H, 'i'
	DB	00H, 00H, 00H				; `string'
CONST	ENDS
;	COMDAT ??_C@_1BG@DKMLJBPI@?$AAc?$AAo?$AAl?$AAo?$AAr?$AA?9?$AAp?$AAa?$AAt?$AAh?$AA?$AA@
CONST	SEGMENT
??_C@_1BG@DKMLJBPI@?$AAc?$AAo?$AAl?$AAo?$AAr?$AA?9?$AAp?$AAa?$AAt?$AAh?$AA?$AA@ DB 'c'
	DB	00H, 'o', 00H, 'l', 00H, 'o', 00H, 'r', 00H, '-', 00H, 'p', 00H
	DB	'a', 00H, 't', 00H, 'h', 00H, 00H, 00H	; `string'
CONST	ENDS
;	COMDAT ??_C@_1BI@FNIPDBJB@?$AAc?$AAo?$AAl?$AAo?$AAr?$AA?9?$AAm?$AAa?$AAt?$AAc?$AAh?$AA?$AA@
CONST	SEGMENT
??_C@_1BI@FNIPDBJB@?$AAc?$AAo?$AAl?$AAo?$AAr?$AA?9?$AAm?$AAa?$AAt?$AAc?$AAh?$AA?$AA@ DB 'c'
	DB	00H, 'o', 00H, 'l', 00H, 'o', 00H, 'r', 00H, '-', 00H, 'm', 00H
	DB	'a', 00H, 't', 00H, 'c', 00H, 'h', 00H, 00H, 00H ; `string'
CONST	ENDS
;	COMDAT ??_C@_1CE@ILBEIDOC@?$AAc?$AAo?$AAl?$AAo?$AAr?$AA?9?$AAl?$AAi?$AAn?$AAe?$AA?9?$AAn?$AAu?$AAm?$AAb?$AAe?$AAr?$AA?$AA@
CONST	SEGMENT
??_C@_1CE@ILBEIDOC@?$AAc?$AAo?$AAl?$AAo?$AAr?$AA?9?$AAl?$AAi?$AAn?$AAe?$AA?9?$AAn?$AAu?$AAm?$AAb?$AAe?$AAr?$AA?$AA@ DB 'c'
	DB	00H, 'o', 00H, 'l', 00H, 'o', 00H, 'r', 00H, '-', 00H, 'l', 00H
	DB	'i', 00H, 'n', 00H, 'e', 00H, '-', 00H, 'n', 00H, 'u', 00H, 'm'
	DB	00H, 'b', 00H, 'e', 00H, 'r', 00H, 00H, 00H	; `string'
CONST	ENDS
;	COMDAT ??_C@_1M@EENKLIPJ@?$AAc?$AAo?$AAl?$AAo?$AAr?$AA?$AA@
CONST	SEGMENT
??_C@_1M@EENKLIPJ@?$AAc?$AAo?$AAl?$AAo?$AAr?$AA?$AA@ DB 'c', 00H, 'o', 00H
	DB	'l', 00H, 'o', 00H, 'r', 00H, 00H, 00H	; `string'
CONST	ENDS
;	COMDAT ??_C@_1BO@PJKJNNLF@?$AAc?$AAa?$AAs?$AAe?$AA?9?$AAs?$AAe?$AAn?$AAs?$AAi?$AAt?$AAi?$AAv?$AAe?$AA?$AA@
CONST	SEGMENT
??_C@_1BO@PJKJNNLF@?$AAc?$AAa?$AAs?$AAe?$AA?9?$AAs?$AAe?$AAn?$AAs?$AAi?$AAt?$AAi?$AAv?$AAe?$AA?$AA@ DB 'c'
	DB	00H, 'a', 00H, 's', 00H, 'e', 00H, '-', 00H, 's', 00H, 'e', 00H
	DB	'n', 00H, 's', 00H, 'i', 00H, 't', 00H, 'i', 00H, 'v', 00H, 'e'
	DB	00H, 00H, 00H				; `string'
CONST	ENDS
;	COMDAT ??_C@_1M@FHLJMIA@?$AAb?$AAr?$AAe?$AAa?$AAk?$AA?$AA@
CONST	SEGMENT
??_C@_1M@FHLJMIA@?$AAb?$AAr?$AAe?$AAa?$AAk?$AA?$AA@ DB 'b', 00H, 'r', 00H
	DB	'e', 00H, 'a', 00H, 'k', 00H, 00H, 00H	; `string'
CONST	ENDS
;	COMDAT ??_C@_1O@GMCGLLHP@?$AAb?$AAe?$AAf?$AAo?$AAr?$AAe?$AA?$AA@
CONST	SEGMENT
??_C@_1O@GMCGLLHP@?$AAb?$AAe?$AAf?$AAo?$AAr?$AAe?$AA?$AA@ DB 'b', 00H, 'e'
	DB	00H, 'f', 00H, 'o', 00H, 'r', 00H, 'e', 00H, 00H, 00H ; `string'
CONST	ENDS
;	COMDAT ??_C@_1BE@FHFFMGN@?$AAa?$AAl?$AAl?$AA?9?$AAt?$AAy?$AAp?$AAe?$AAs?$AA?$AA@
CONST	SEGMENT
??_C@_1BE@FHFFMGN@?$AAa?$AAl?$AAl?$AA?9?$AAt?$AAy?$AAp?$AAe?$AAs?$AA?$AA@ DB 'a'
	DB	00H, 'l', 00H, 'l', 00H, '-', 00H, 't', 00H, 'y', 00H, 'p', 00H
	DB	'e', 00H, 's', 00H, 00H, 00H			; `string'
CONST	ENDS
;	COMDAT ??_C@_1BC@EKCNOHAE@?$AAa?$AAl?$AAl?$AA?9?$AAt?$AAe?$AAx?$AAt?$AA?$AA@
CONST	SEGMENT
??_C@_1BC@EKCNOHAE@?$AAa?$AAl?$AAl?$AA?9?$AAt?$AAe?$AAx?$AAt?$AA?$AA@ DB 'a'
	DB	00H, 'l', 00H, 'l', 00H, '-', 00H, 't', 00H, 'e', 00H, 'x', 00H
	DB	't', 00H, 00H, 00H				; `string'
CONST	ENDS
;	COMDAT ??_C@_1M@FKDBAEFE@?$AAa?$AAf?$AAt?$AAe?$AAr?$AA?$AA@
CONST	SEGMENT
??_C@_1M@FKDBAEFE@?$AAa?$AAf?$AAt?$AAe?$AAr?$AA?$AA@ DB 'a', 00H, 'f', 00H
	DB	't', 00H, 'e', 00H, 'r', 00H, 00H, 00H	; `string'
CONST	ENDS
;	COMDAT ??_C@_1BC@LNEHBHPE@?$AAa?$AAf?$AAf?$AAi?$AAn?$AAi?$AAt?$AAy?$AA?$AA@
CONST	SEGMENT
??_C@_1BC@LNEHBHPE@?$AAa?$AAf?$AAf?$AAi?$AAn?$AAi?$AAt?$AAy?$AA?$AA@ DB 'a'
	DB	00H, 'f', 00H, 'f', 00H, 'i', 00H, 'n', 00H, 'i', 00H, 't', 00H
	DB	'y', 00H, 00H, 00H				; `string'
CONST	ENDS
;	COMDAT ??_C@_1CG@KNJAHCHM@?$AAa?$AAc?$AAk?$AAm?$AAa?$AAt?$AAe?$AA?9?$AAd?$AAi?$AAr?$AA?9?$AAf?$AAi?$AAl?$AAt?$AAe?$AAr?$AA?$AA@
CONST	SEGMENT
??_C@_1CG@KNJAHCHM@?$AAa?$AAc?$AAk?$AAm?$AAa?$AAt?$AAe?$AA?9?$AAd?$AAi?$AAr?$AA?9?$AAf?$AAi?$AAl?$AAt?$AAe?$AAr?$AA?$AA@ DB 'a'
	DB	00H, 'c', 00H, 'k', 00H, 'm', 00H, 'a', 00H, 't', 00H, 'e', 00H
	DB	'-', 00H, 'd', 00H, 'i', 00H, 'r', 00H, '-', 00H, 'f', 00H, 'i'
	DB	00H, 'l', 00H, 't', 00H, 'e', 00H, 'r', 00H, 00H, 00H ; `string'
CONST	ENDS
;	COMDAT ??_C@_1BA@IJACKNEL@?$AAa?$AAc?$AAk?$AAm?$AAa?$AAt?$AAe?$AA?$AA@
CONST	SEGMENT
??_C@_1BA@IJACKNEL@?$AAa?$AAc?$AAk?$AAm?$AAa?$AAt?$AAe?$AA?$AA@ DB 'a', 00H
	DB	'c', 00H, 'k', 00H, 'm', 00H, 'a', 00H, 't', 00H, 'e', 00H, 00H
	DB	00H						; `string'
CONST	ENDS
;	COMDAT ??_C@_19HOKJLBCB@?$AAH?$AAO?$AAM?$AAE?$AA?$AA@
CONST	SEGMENT
??_C@_19HOKJLBCB@?$AAH?$AAO?$AAM?$AAE?$AA?$AA@ DB 'H', 00H, 'O', 00H, 'M', 00H
	DB	'E', 00H, 00H, 00H				; `string'
CONST	ENDS
;	COMDAT ??_C@_0BH@KIMOEOBH@?5?5?$CFcjit?5?$CFclzma?5?$CFczlib?6?$AA@
CONST	SEGMENT
??_C@_0BH@KIMOEOBH@?5?5?$CFcjit?5?$CFclzma?5?$CFczlib?6?$AA@ DB '  %cjit '
	DB	'%clzma %czlib', 0aH, 00H			; `string'
CONST	ENDS
;	COMDAT ??_C@_0L@PNLIHEMD@Features?3?6?$AA@
CONST	SEGMENT
??_C@_0L@PNLIHEMD@Features?3?6?$AA@ DB 'Features:', 0aH, 00H ; `string'
CONST	ENDS
;	COMDAT ??_C@_0BA@CDBLICEJ@ag?5version?5?$CFs?6?6?$AA@
CONST	SEGMENT
??_C@_0BA@CDBLICEJ@ag?5version?5?$CFs?6?6?$AA@ DB 'ag version %s', 0aH, 0aH
	DB	00H						; `string'
CONST	ENDS
;	COMDAT ??_C@_06KKAGMMLF@0?418?41?$AA@
CONST	SEGMENT
??_C@_06KKAGMMLF@0?418?41?$AA@ DB '0.18.1', 00H		; `string'
CONST	ENDS
;	COMDAT ??_C@_0PA@FBGEGBEP@File?5Types?3?6The?5search?5can?5be?5re@
CONST	SEGMENT
??_C@_0PA@FBGEGBEP@File?5Types?3?6The?5search?5can?5be?5re@ DB 'File Type'
	DB	's:', 0aH, 'The search can be restricted to certain types of f'
	DB	'iles. Example:', 0aH, '  ag --html needle', 0aH, '  - Searche'
	DB	's for ''needle'' in files with suffix .htm, .html, .shtml or '
	DB	'.xhtml.', 0aH, 0aH, 'For a list of supported file types run:', 0aH
	DB	'  ag --list-file-types', 0aH, 0aH, 00H	; `string'
CONST	ENDS
;	COMDAT ??_C@_0MPB@JANJFJDE@?5?5?5?5?5?9?9column?5?5?5?5?5?5?5?5?5?5?5?5?5Print?5@
CONST	SEGMENT
??_C@_0MPB@JANJFJDE@?5?5?5?5?5?9?9column?5?5?5?5?5?5?5?5?5?5?5?5?5Print?5@ DB ' '
	DB	'    --column             Print column numbers in results', 0aH
	DB	'     --[no]filename       Print file names (Enabled unless se'
	DB	'arching a single file)', 0aH, '  -H --[no]heading        Prin'
	DB	't file names before each file''s matches', 0aH, '            '
	DB	'              (Enabled by default)', 0aH, '  -C --context [LI'
	DB	'NES]    Print lines before and after matches (Default: 2)', 0aH
	DB	'     --[no]group          Same as --[no]break --[no]heading', 0aH
	DB	'  -g PATTERN              Print filenames matching PATTERN', 0aH
	DB	'  -l --files-with-matches Only print filenames that contain m'
	DB	'atches', 0aH, '                          (don''t print the ma'
	DB	'tching lines)', 0aH, '  -L --files-without-matches', 0aH, '  '
	DB	'                        Only print filenames that don''t cont'
	DB	'ain matches', 0aH, '     --[no]numbers        Print line numb'
	DB	'ers. Default is to omit line numbers', 0aH, '                '
	DB	'          when searching streams', 0aH, '  -o --only-matching'
	DB	'      Prints only the matching part of the lines', 0aH, '    '
	DB	' --print-long-lines   Print matches on very long lines (Defau'
	DB	'lt: >2k characters)', 0aH, '     --passthrough        When se'
	DB	'arching a stream, print all lines even if they', 0aH, '      '
	DB	'                    don''t match', 0aH, '     --silent       '
	DB	'      Suppress all log messages, including errors', 0aH, '   '
	DB	'  --stats              Print stats (files scanned, time taken'
	DB	', etc.)', 0aH, '     --vimgrep            Print results like '
	DB	'vim''s :vimgrep /pattern/g would', 0aH, '                    '
	DB	'      (it reports every match on the line)', 0aH, '  -0 --nul'
	DB	'l --print0      Separate filenames with null (for ''xargs -0'''
	DB	')', 0aH, 0aH, 'Search Options:', 0aH, '  -a --all-types      '
	DB	'    Search all files (doesn''t include hidden files', 0aH, ' '
	DB	'                         or patterns from ignore files)', 0aH
	DB	'  -D --debug              Ridiculous debugging (probably not '
	DB	'useful)', 0aH, '     --depth NUM          Search up to NUM di'
	DB	'rectories deep (Default: 25)', 0aH, '  -f --follow           '
	DB	'  Follow symlinks', 0aH, '  -F --fixed-strings      Alias for'
	DB	' --literal for compatibility with grep', 0aH, '  -G --file-se'
	DB	'arch-regex  PATTERN Limit search to filenames matching PATTER'
	DB	'N', 0aH, '     --hidden             Search hidden files (obey'
	DB	's .*ignore files)', 0aH, '  -i --ignore-case        Match cas'
	DB	'e insensitively', 0aH, '     --ignore PATTERN     Ignore file'
	DB	's/directories matching PATTERN', 0aH, '                      '
	DB	'    (literal file/directory names also allowed)', 0aH, '     '
	DB	'--ignore-dir NAME    Alias for --ignore for compatibility wit'
	DB	'h ack.', 0aH, '  -m --max-count NUM      Skip the rest of a f'
	DB	'ile after NUM matches (Default: 10,000)', 0aH, '     --one-de'
	DB	'vice         Don''t follow links to other devices.', 0aH, '  '
	DB	'-p --path-to-agignore STRING', 0aH, '                        '
	DB	'  Use .agignore file at STRING', 0aH, '  -Q --literal        '
	DB	'    Don''t parse PATTERN as a regular expression', 0aH, '  -s'
	DB	' --case-sensitive     Match case sensitively', 0aH, '  -S --s'
	DB	'mart-case         Match case insensitively unless PATTERN con'
	DB	'tains', 0aH, '                          uppercase characters '
	DB	'(Enabled by default)', 0aH, '     --search-binary      Search'
	DB	' binary files for matches', 0aH, '  -t --all-text           S'
	DB	'earch all text files (doesn''t include hidden files)', 0aH, ' '
	DB	' -u --unrestricted       Search all files (ignore .agignore, '
	DB	'.gitignore, etc.;', 0aH, '                          searches '
	DB	'binary and hidden files as well)', 0aH, '  -U --skip-vcs-igno'
	DB	'res   Ignore VCS ignore files', 0aH, '                       '
	DB	'   (.gitignore, .hgignore, .svnignore; still obey .agignore)', 0aH
	DB	'  -v --invert-match', 0aH, '  -w --word-regexp        Only ma'
	DB	'tch whole words', 0aH, '  -z --search-zip         Search cont'
	DB	'ents of compressed (e.g., gzip) files', 0aH, 0aH, 00H ; `string'
CONST	ENDS
;	COMDAT ??_C@_0KE@CKANMNHJ@?5?5?5?5?5?9?9color?9win?9ansi?5?5?5?5?5Use?5an@
CONST	SEGMENT
??_C@_0KE@CKANMNHJ@?5?5?5?5?5?9?9color?9win?9ansi?5?5?5?5?5Use?5an@ DB ' '
	DB	'    --color-win-ansi     Use ansi colors on Windows even wher'
	DB	'e we can use native', 0aH, '                          (pager/'
	DB	'pipe colors are ansi regardless) (Default: off)', 0aH, 00H ; `string'
CONST	ENDS
;	COMDAT ??_C@_0DBB@OCLLMNJD@Output?5Options?3?6?5?5?5?5?5?9?9ackmate?5?5@
CONST	SEGMENT
??_C@_0DBB@OCLLMNJD@Output?5Options?3?6?5?5?5?5?5?9?9ackmate?5?5@ DB 'Out'
	DB	'put Options:', 0aH, '     --ackmate            Print results '
	DB	'in AckMate-parseable format', 0aH, '  -A --after [LINES]     '
	DB	' Print lines after match (Default: 2)', 0aH, '  -B --before ['
	DB	'LINES]     Print lines before match (Default: 2)', 0aH, '    '
	DB	' --[no]break          Print newlines between matches in diffe'
	DB	'rent files', 0aH, '                          (Enabled by defa'
	DB	'ult)', 0aH, '  -c --count              Only print the number '
	DB	'of matches in each file.', 0aH, '                          (T'
	DB	'his often differs from the number of matching lines)', 0aH, ' '
	DB	'    --[no]color          Print color codes in results (Enable'
	DB	'd by default)', 0aH, '     --color-line-number  Color codes f'
	DB	'or line numbers (Default: 1;33)', 0aH, '     --color-match   '
	DB	'     Color codes for result match numbers (Default: 30;43)', 0aH
	DB	'     --color-path         Color codes for path names (Default'
	DB	': 1;32)', 0aH, 00H				; `string'
CONST	ENDS
;	COMDAT ??_C@_0BN@MDFHOCLL@Example?3?6?5?5ag?5?9i?5foo?5?1bar?1?6?6?$AA@
CONST	SEGMENT
??_C@_0BN@MDFHOCLL@Example?3?6?5?5ag?5?9i?5foo?5?1bar?1?6?6?$AA@ DB 'Exam'
	DB	'ple:', 0aH, '  ag -i foo /bar/', 0aH, 0aH, 00H ; `string'
CONST	ENDS
;	COMDAT ??_C@_0CC@EJPHMHFA@?5?5Like?5grep?5or?5ack?0?5but?5faster?4?6@
CONST	SEGMENT
??_C@_0CC@EJPHMHFA@?5?5Like?5grep?5or?5ack?0?5but?5faster?4?6@ DB '  Like'
	DB	' grep or ack, but faster.', 0aH, 0aH, 00H	; `string'
CONST	ENDS
;	COMDAT ??_C@_0CL@FHIHDFEA@?5?5Recursively?5search?5for?5PATTERN@
CONST	SEGMENT
??_C@_0CL@FHIHDFEA@?5?5Recursively?5search?5for?5PATTERN@ DB '  Recursive'
	DB	'ly search for PATTERN in PATH.', 0aH, 00H	; `string'
CONST	ENDS
;	COMDAT ??_C@_0DB@GNJOEFFB@Usage?3?5ag?5?$FLFILE?9TYPE?$FN?5?$FLOPTIONS?$FN?5@
CONST	SEGMENT
??_C@_0DB@GNJOEFFB@Usage?3?5ag?5?$FLFILE?9TYPE?$FN?5?$FLOPTIONS?$FN?5@ DB 'U'
	DB	'sage: ag [FILE-TYPE] [OPTIONS] PATTERN [PATH]', 0aH, 0aH, 00H ; `string'
CONST	ENDS
;	COMDAT ??_C@_01EEMJAFIK@?6?$AA@
CONST	SEGMENT
??_C@_01EEMJAFIK@?6?$AA@ DB 0aH, 00H			; `string'
CONST	ENDS
;	COMDAT ??_C@_1BA@FDKIIPLL@?$AA?$BL?$AA?$FL?$AA1?$AA?$DL?$AA3?$AA2?$AAm?$AA?$AA@
CONST	SEGMENT
??_C@_1BA@FDKIIPLL@?$AA?$BL?$AA?$FL?$AA1?$AA?$DL?$AA3?$AA2?$AAm?$AA?$AA@ DB 01bH
	DB	00H, '[', 00H, '1', 00H, ';', 00H, '3', 00H, '2', 00H, 'm', 00H
	DB	00H, 00H					; `string'
CONST	ENDS
;	COMDAT ??_C@_1BC@MALKNFOD@?$AA?$BL?$AA?$FL?$AA3?$AA0?$AA?$DL?$AA4?$AA3?$AAm?$AA?$AA@
CONST	SEGMENT
??_C@_1BC@MALKNFOD@?$AA?$BL?$AA?$FL?$AA3?$AA0?$AA?$DL?$AA4?$AA3?$AAm?$AA?$AA@ DB 01bH
	DB	00H, '[', 00H, '3', 00H, '0', 00H, ';', 00H, '4', 00H, '3', 00H
	DB	'm', 00H, 00H, 00H				; `string'
CONST	ENDS
;	COMDAT ??_C@_1BA@JIPEFMBO@?$AA?$BL?$AA?$FL?$AA1?$AA?$DL?$AA3?$AA3?$AAm?$AA?$AA@
CONST	SEGMENT
??_C@_1BA@JIPEFMBO@?$AA?$BL?$AA?$FL?$AA1?$AA?$DL?$AA3?$AA3?$AAm?$AA?$AA@ DB 01bH
	DB	00H, '[', 00H, '1', 00H, ';', 00H, '3', 00H, '3', 00H, 'm', 00H
	DB	00H, 00H					; `string'
?color_match@@3PB_WB DD FLAT:??_C@_1BC@MALKNFOD@?$AA?$BL?$AA?$FL?$AA3?$AA0?$AA?$DL?$AA4?$AA3?$AAm?$AA?$AA@ ; color_match
?color_line_number@@3PB_WB DD FLAT:??_C@_1BA@JIPEFMBO@?$AA?$BL?$AA?$FL?$AA1?$AA?$DL?$AA3?$AA3?$AAm?$AA?$AA@ ; color_line_number
?color_path@@3PB_WB DD FLAT:??_C@_1BA@FDKIIPLL@?$AA?$BL?$AA?$FL?$AA1?$AA?$DL?$AA3?$AA2?$AAm?$AA?$AA@ ; color_path
PUBLIC	?init_options@@YAXXZ				; init_options
PUBLIC	?print_version@@YAXXZ				; print_version
PUBLIC	?usage@@YAXXZ					; usage
PUBLIC	?parse_options@@YAXHPAPA_WQAPAPA_W1@Z		; parse_options
PUBLIC	?cleanup_options@@YAXXZ				; cleanup_options
; Function compile flags: /Ogtp
;	COMDAT ?cleanup_options@@YAXXZ
_TEXT	SEGMENT
?cleanup_options@@YAXXZ PROC				; cleanup_options, COMDAT
; File i:\study\filescan\filescan\options.c
; Line 227
	push	esi
; Line 228
	push	DWORD PTR ?opts@@3Ucli_options@@A+52
	mov	esi, DWORD PTR __imp__free
	call	esi
; Line 229
	push	DWORD PTR ?opts@@3Ucli_options@@A+48
	call	esi
; Line 230
	push	DWORD PTR ?opts@@3Ucli_options@@A+44
	call	esi
; Line 232
	mov	eax, DWORD PTR ?opts@@3Ucli_options@@A+192
	add	esp, 12					; 0000000cH
	test	eax, eax
	je	SHORT $LN6@cleanup_op
; Line 233
	push	eax
	call	esi
	add	esp, 4
$LN6@cleanup_op:
; Line 236
	push	DWORD PTR ?opts@@3Ucli_options@@A+140
	call	DWORD PTR _pcre16_free
; Line 237
	mov	eax, DWORD PTR ?opts@@3Ucli_options@@A+144
	add	esp, 4
	pop	esi
	test	eax, eax
	je	SHORT $LN5@cleanup_op
; Line 239
	push	eax
	call	DWORD PTR _pcre16_free
	add	esp, 4
$LN5@cleanup_op:
; Line 242
	mov	eax, DWORD PTR ?opts@@3Ucli_options@@A+4
	test	eax, eax
	je	SHORT $LN4@cleanup_op
; Line 243
	push	eax
	call	DWORD PTR _pcre16_free
	add	esp, 4
$LN4@cleanup_op:
; Line 245
	mov	eax, DWORD PTR ?opts@@3Ucli_options@@A+8
	test	eax, eax
	je	SHORT $LN3@cleanup_op
; Line 246
	push	eax
	call	DWORD PTR _pcre16_free
	add	esp, 4
$LN3@cleanup_op:
; Line 249
	mov	eax, DWORD PTR ?opts@@3Ucli_options@@A+32
	test	eax, eax
	je	SHORT $LN2@cleanup_op
; Line 250
	push	eax
	call	DWORD PTR _pcre16_free
	add	esp, 4
$LN2@cleanup_op:
; Line 252
	mov	eax, DWORD PTR ?opts@@3Ucli_options@@A+36
	test	eax, eax
	je	SHORT $LN1@cleanup_op
; Line 253
	push	eax
	call	DWORD PTR _pcre16_free
	pop	ecx
$LN1@cleanup_op:
; Line 255
	ret	0
?cleanup_options@@YAXXZ ENDP				; cleanup_options
_TEXT	ENDS
; Function compile flags: /Ogtp
;	COMDAT ?parse_options@@YAXHPAPA_WQAPAPA_W1@Z
_TEXT	SEGMENT
_base_longopts$ = -1360					; size = 1184
_home_dir$1$ = -172					; size = 4
_useless$ = -168					; size = 4
_list_file_types$ = -164				; size = 4
_accepts_query$1$ = -160				; size = 4
_pcre_err_offset$1 = -156				; size = 4
_ignore_file_path$ = -152				; size = 4
_version$ = -148					; size = 4
_lang_num$1$ = -144					; size = 4
_argv$GSCopy$1$ = -140					; size = 4
_base_paths$GSCopy$1$ = -136				; size = 4
_paths$GSCopy$1$ = -132					; size = 4
_needs_query$1$ = -128					; size = 4
_pcre_err$2 = -124					; size = 4
_pcre_opts$1$ = -120					; size = 4
_num_end$ = -116					; size = 4
_ptr$1$ = -112						; size = 4
tv2186 = -108						; size = 4
_help$1$ = -108						; size = 4
_pcre_err_offset$3 = -104				; size = 4
_extensions$ = -104					; size = 4
_group$ = -100						; size = 4
_argv$GSCopy$2$ = -96					; size = 4
tv2275 = -96						; size = 4
_lang_regex$1$ = -96					; size = 4
_pcre_err$4 = -92					; size = 4
_opt_index$ = -92					; size = 4
_argc$GSCopy$1$ = -88					; size = 4
_ptr$1$ = -84						; size = 4
_statbuf$ = -80						; size = 48
_regex_chars$5 = -32					; size = 26
_opt$6 = -24						; size = 16
__$ArrayPad$ = -4					; size = 4
_base_paths$ = 8					; size = 4
_paths$ = 12						; size = 4
?parse_options@@YAXHPAPA_WQAPAPA_W1@Z PROC		; parse_options, COMDAT
; _argc$ = ecx
; _argv$ = edx
; File i:\study\filescan\filescan\options.c
; Line 273
	push	ebp
	mov	ebp, esp
	sub	esp, 1364				; 00000554H
	mov	eax, DWORD PTR ___security_cookie
	xor	eax, ebp
	mov	DWORD PTR __$ArrayPad$[ebp], eax
	mov	eax, DWORD PTR _base_paths$[ebp]
	push	ebx
	push	esi
	push	edi
	mov	DWORD PTR _base_paths$GSCopy$1$[ebp], eax
	mov	eax, DWORD PTR _paths$[ebp]
; Line 284
	push	OFFSET ??_C@_19HOKJLBCB@?$AAH?$AAO?$AAM?$AAE?$AA?$AA@
	mov	DWORD PTR _argv$GSCopy$1$[ebp], edx
	mov	DWORD PTR _argc$GSCopy$1$[ebp], ecx
	mov	DWORD PTR _paths$GSCopy$1$[ebp], eax
	mov	DWORD PTR _useless$[ebp], 0
	mov	DWORD PTR _group$[ebp], 1
	mov	DWORD PTR _help$1$[ebp], 0
	mov	DWORD PTR _version$[ebp], 0
	mov	DWORD PTR _list_file_types$[ebp], 0
	mov	DWORD PTR _opt_index$[ebp], 0
	call	DWORD PTR __imp___wgetenv
	add	esp, 4
	mov	DWORD PTR _home_dir$1$[ebp], eax
; Line 285
	mov	DWORD PTR _ignore_file_path$[ebp], 0
; Line 286
	mov	DWORD PTR _accepts_query$1$[ebp], 1
; Line 287
	mov	DWORD PTR _needs_query$1$[ebp], 1
; Line 291
	mov	DWORD PTR _lang_num$1$[ebp], 0
; Line 295
	mov	DWORD PTR _lang_regex$1$[ebp], 0
; Line 297
	mov	DWORD PTR _extensions$[ebp], 0
; Line 300
	call	?init_options@@YAXXZ			; init_options
; Line 379
	mov	DWORD PTR _base_longopts$[ebp], OFFSET ??_C@_1BA@IJACKNEL@?$AAa?$AAc?$AAk?$AAm?$AAa?$AAt?$AAe?$AA?$AA@
	mov	DWORD PTR _base_longopts$[ebp+4], 0
	mov	DWORD PTR _base_longopts$[ebp+8], OFFSET ?opts@@3Ucli_options@@A ; opts
	mov	DWORD PTR _base_longopts$[ebp+12], 1
	mov	DWORD PTR _base_longopts$[ebp+16], OFFSET ??_C@_1CG@KNJAHCHM@?$AAa?$AAc?$AAk?$AAm?$AAa?$AAt?$AAe?$AA?9?$AAd?$AAi?$AAr?$AA?9?$AAf?$AAi?$AAl?$AAt?$AAe?$AAr?$AA?$AA@
	mov	DWORD PTR _base_longopts$[ebp+20], 1
	mov	DWORD PTR _base_longopts$[ebp+24], 0
	mov	DWORD PTR _base_longopts$[ebp+28], 0
	mov	DWORD PTR _base_longopts$[ebp+32], OFFSET ??_C@_1BC@LNEHBHPE@?$AAa?$AAf?$AAf?$AAi?$AAn?$AAi?$AAt?$AAy?$AA?$AA@
	mov	DWORD PTR _base_longopts$[ebp+36], 0
	mov	DWORD PTR _base_longopts$[ebp+40], OFFSET ?opts@@3Ucli_options@@A+212
	mov	DWORD PTR _base_longopts$[ebp+44], 1
	mov	DWORD PTR _base_longopts$[ebp+48], OFFSET ??_C@_1M@FKDBAEFE@?$AAa?$AAf?$AAt?$AAe?$AAr?$AA?$AA@
	mov	DWORD PTR _base_longopts$[ebp+52], 2
	mov	DWORD PTR _base_longopts$[ebp+56], 0
	mov	DWORD PTR _base_longopts$[ebp+60], 65	; 00000041H
	mov	DWORD PTR _base_longopts$[ebp+64], OFFSET ??_C@_1BC@EKCNOHAE@?$AAa?$AAl?$AAl?$AA?9?$AAt?$AAe?$AAx?$AAt?$AA?$AA@
	mov	DWORD PTR _base_longopts$[ebp+68], 0
	mov	DWORD PTR _base_longopts$[ebp+72], 0
	mov	DWORD PTR _base_longopts$[ebp+76], 116	; 00000074H
	mov	DWORD PTR _base_longopts$[ebp+80], OFFSET ??_C@_1BE@FHFFMGN@?$AAa?$AAl?$AAl?$AA?9?$AAt?$AAy?$AAp?$AAe?$AAs?$AA?$AA@
	mov	DWORD PTR _base_longopts$[ebp+84], 0
	mov	DWORD PTR _base_longopts$[ebp+88], 0
	mov	DWORD PTR _base_longopts$[ebp+92], 97	; 00000061H
	mov	DWORD PTR _base_longopts$[ebp+96], OFFSET ??_C@_1O@GMCGLLHP@?$AAb?$AAe?$AAf?$AAo?$AAr?$AAe?$AA?$AA@
	mov	DWORD PTR _base_longopts$[ebp+100], 2
	mov	DWORD PTR _base_longopts$[ebp+104], 0
	mov	DWORD PTR _base_longopts$[ebp+108], 66	; 00000042H
	mov	DWORD PTR _base_longopts$[ebp+112], OFFSET ??_C@_1M@FHLJMIA@?$AAb?$AAr?$AAe?$AAa?$AAk?$AA?$AA@
	mov	DWORD PTR _base_longopts$[ebp+116], 0
	mov	DWORD PTR _base_longopts$[ebp+120], OFFSET ?opts@@3Ucli_options@@A+112
	mov	DWORD PTR _base_longopts$[ebp+124], 1
	mov	DWORD PTR _base_longopts$[ebp+128], OFFSET ??_C@_1BO@PJKJNNLF@?$AAc?$AAa?$AAs?$AAe?$AA?9?$AAs?$AAe?$AAn?$AAs?$AAi?$AAt?$AAi?$AAv?$AAe?$AA?$AA@
	mov	DWORD PTR _base_longopts$[ebp+132], 0
	mov	DWORD PTR _base_longopts$[ebp+136], 0
	mov	DWORD PTR _base_longopts$[ebp+140], 115	; 00000073H
	mov	DWORD PTR _base_longopts$[ebp+144], OFFSET ??_C@_1M@EENKLIPJ@?$AAc?$AAo?$AAl?$AAo?$AAr?$AA?$AA@
	mov	DWORD PTR _base_longopts$[ebp+148], 0
	mov	DWORD PTR _base_longopts$[ebp+152], OFFSET ?opts@@3Ucli_options@@A+40
	mov	DWORD PTR _base_longopts$[ebp+156], 1
	mov	DWORD PTR _base_longopts$[ebp+160], OFFSET ??_C@_1CE@ILBEIDOC@?$AAc?$AAo?$AAl?$AAo?$AAr?$AA?9?$AAl?$AAi?$AAn?$AAe?$AA?9?$AAn?$AAu?$AAm?$AAb?$AAe?$AAr?$AA?$AA@
	mov	DWORD PTR _base_longopts$[ebp+164], 1
	mov	DWORD PTR _base_longopts$[ebp+168], 0
	mov	DWORD PTR _base_longopts$[ebp+172], 0
	mov	DWORD PTR _base_longopts$[ebp+176], OFFSET ??_C@_1BI@FNIPDBJB@?$AAc?$AAo?$AAl?$AAo?$AAr?$AA?9?$AAm?$AAa?$AAt?$AAc?$AAh?$AA?$AA@
	mov	DWORD PTR _base_longopts$[ebp+180], 1
	mov	DWORD PTR _base_longopts$[ebp+184], 0
	mov	DWORD PTR _base_longopts$[ebp+188], 0
	mov	DWORD PTR _base_longopts$[ebp+192], OFFSET ??_C@_1BG@DKMLJBPI@?$AAc?$AAo?$AAl?$AAo?$AAr?$AA?9?$AAp?$AAa?$AAt?$AAh?$AA?$AA@
	mov	DWORD PTR _base_longopts$[ebp+196], 1
	mov	DWORD PTR _base_longopts$[ebp+200], 0
	mov	DWORD PTR _base_longopts$[ebp+204], 0
	mov	DWORD PTR _base_longopts$[ebp+208], OFFSET ??_C@_1BO@ELCLJFDK@?$AAc?$AAo?$AAl?$AAo?$AAr?$AA?9?$AAw?$AAi?$AAn?$AA?9?$AAa?$AAn?$AAs?$AAi?$AA?$AA@
	mov	DWORD PTR _base_longopts$[ebp+212], 0
	mov	DWORD PTR _base_longopts$[ebp+216], OFFSET ?opts@@3Ucli_options@@A+56
	lea	eax, DWORD PTR _group$[ebp]
	mov	DWORD PTR _base_longopts$[ebp+220], 1
	mov	DWORD PTR _base_longopts$[ebp+224], OFFSET ??_C@_1O@MEMGDIAN@?$AAc?$AAo?$AAl?$AAu?$AAm?$AAn?$AA?$AA@
	mov	DWORD PTR _base_longopts$[ebp+228], 0
	mov	DWORD PTR _base_longopts$[ebp+232], OFFSET ?opts@@3Ucli_options@@A+60
	mov	DWORD PTR _base_longopts$[ebp+236], 1
	mov	DWORD PTR _base_longopts$[ebp+240], OFFSET ??_C@_1BA@HMGCDKEM@?$AAc?$AAo?$AAn?$AAt?$AAe?$AAx?$AAt?$AA?$AA@
	mov	DWORD PTR _base_longopts$[ebp+244], 2
	mov	DWORD PTR _base_longopts$[ebp+248], 0
	mov	DWORD PTR _base_longopts$[ebp+252], 67	; 00000043H
	mov	DWORD PTR _base_longopts$[ebp+256], OFFSET ??_C@_1M@MJBJBOIA@?$AAc?$AAo?$AAu?$AAn?$AAt?$AA?$AA@
	mov	DWORD PTR _base_longopts$[ebp+260], 0
	mov	DWORD PTR _base_longopts$[ebp+264], 0
	mov	DWORD PTR _base_longopts$[ebp+268], 99	; 00000063H
	mov	DWORD PTR _base_longopts$[ebp+272], OFFSET ??_C@_1M@PHGAFFNN@?$AAd?$AAe?$AAb?$AAu?$AAg?$AA?$AA@
	mov	DWORD PTR _base_longopts$[ebp+276], 0
	mov	DWORD PTR _base_longopts$[ebp+280], 0
	mov	DWORD PTR _base_longopts$[ebp+284], 68	; 00000044H
	mov	DWORD PTR _base_longopts$[ebp+288], OFFSET ??_C@_1M@FKMBKAHI@?$AAd?$AAe?$AAp?$AAt?$AAh?$AA?$AA@
	mov	DWORD PTR _base_longopts$[ebp+292], 1
	mov	DWORD PTR _base_longopts$[ebp+296], 0
	mov	DWORD PTR _base_longopts$[ebp+300], 0
	mov	DWORD PTR _base_longopts$[ebp+304], OFFSET ??_C@_1BC@OIENENHB@?$AAf?$AAi?$AAl?$AAe?$AAn?$AAa?$AAm?$AAe?$AA?$AA@
	mov	DWORD PTR _base_longopts$[ebp+308], 0
	mov	DWORD PTR _base_longopts$[ebp+312], 0
	mov	DWORD PTR _base_longopts$[ebp+316], 0
	mov	DWORD PTR _base_longopts$[ebp+320], OFFSET ??_C@_1CE@DIHNJLFH@?$AAf?$AAi?$AAl?$AAe?$AA?9?$AAs?$AAe?$AAa?$AAr?$AAc?$AAh?$AA?9?$AAr?$AAe?$AAg?$AAe?$AAx?$AA?$AA@
	mov	DWORD PTR _base_longopts$[ebp+324], 1
	mov	DWORD PTR _base_longopts$[ebp+328], 0
	mov	DWORD PTR _base_longopts$[ebp+332], 71	; 00000047H
	mov	DWORD PTR _base_longopts$[ebp+336], OFFSET ??_C@_1CG@LBNAEOPK@?$AAf?$AAi?$AAl?$AAe?$AAs?$AA?9?$AAw?$AAi?$AAt?$AAh?$AA?9?$AAm?$AAa?$AAt?$AAc?$AAh?$AAe?$AAs?$AA?$AA@
	mov	DWORD PTR _base_longopts$[ebp+340], 0
	mov	DWORD PTR _base_longopts$[ebp+344], 0
	mov	DWORD PTR _base_longopts$[ebp+348], 108	; 0000006cH
	mov	DWORD PTR _base_longopts$[ebp+352], OFFSET ??_C@_1CM@OFEKOHLI@?$AAf?$AAi?$AAl?$AAe?$AAs?$AA?9?$AAw?$AAi?$AAt?$AAh?$AAo?$AAu?$AAt?$AA?9?$AAm?$AAa?$AAt?$AAc?$AAh?$AAe?$AAs?$AA?$AA@
	mov	DWORD PTR _base_longopts$[ebp+356], 0
	mov	DWORD PTR _base_longopts$[ebp+360], 0
	mov	DWORD PTR _base_longopts$[ebp+364], 76	; 0000004cH
	mov	DWORD PTR _base_longopts$[ebp+368], OFFSET ??_C@_1BM@CCAMNKGL@?$AAf?$AAi?$AAx?$AAe?$AAd?$AA?9?$AAs?$AAt?$AAr?$AAi?$AAn?$AAg?$AAs?$AA?$AA@
	mov	DWORD PTR _base_longopts$[ebp+372], 0
	mov	DWORD PTR _base_longopts$[ebp+376], 0
	mov	DWORD PTR _base_longopts$[ebp+380], 70	; 00000046H
	mov	DWORD PTR _base_longopts$[ebp+384], OFFSET ??_C@_1O@EDEIMFHO@?$AAf?$AAo?$AAl?$AAl?$AAo?$AAw?$AA?$AA@
	mov	DWORD PTR _base_longopts$[ebp+388], 0
	mov	DWORD PTR _base_longopts$[ebp+392], OFFSET ?opts@@3Ucli_options@@A+68
	mov	DWORD PTR _base_longopts$[ebp+396], 1
	mov	DWORD PTR _base_longopts$[ebp+400], OFFSET ??_C@_1M@BDEHGHEL@?$AAg?$AAr?$AAo?$AAu?$AAp?$AA?$AA@
	mov	DWORD PTR _base_longopts$[ebp+404], 0
	mov	DWORD PTR _base_longopts$[ebp+408], eax
	mov	DWORD PTR _base_longopts$[ebp+412], 1
	mov	DWORD PTR _base_longopts$[ebp+416], OFFSET ??_C@_1BA@GBDINJEL@?$AAh?$AAe?$AAa?$AAd?$AAi?$AAn?$AAg?$AA?$AA@
	mov	DWORD PTR _base_longopts$[ebp+420], 0
	mov	DWORD PTR _base_longopts$[ebp+424], OFFSET ?opts@@3Ucli_options@@A+124
	mov	DWORD PTR _base_longopts$[ebp+428], 2
	mov	DWORD PTR _base_longopts$[ebp+432], OFFSET ??_C@_19FCEHBCGP@?$AAh?$AAe?$AAl?$AAp?$AA?$AA@
	mov	DWORD PTR _base_longopts$[ebp+436], 0
	mov	DWORD PTR _base_longopts$[ebp+440], 0
	mov	DWORD PTR _base_longopts$[ebp+444], 104	; 00000068H
	mov	DWORD PTR _base_longopts$[ebp+448], OFFSET ??_C@_1O@CLFGFFCM@?$AAh?$AAi?$AAd?$AAd?$AAe?$AAn?$AA?$AA@
	mov	DWORD PTR _base_longopts$[ebp+452], 0
	mov	DWORD PTR _base_longopts$[ebp+456], OFFSET ?opts@@3Ucli_options@@A+168
	mov	DWORD PTR _base_longopts$[ebp+460], 1
	mov	DWORD PTR _base_longopts$[ebp+464], OFFSET ??_C@_1O@NMPCFOPJ@?$AAi?$AAg?$AAn?$AAo?$AAr?$AAe?$AA?$AA@
	mov	DWORD PTR _base_longopts$[ebp+468], 1
	mov	DWORD PTR _base_longopts$[ebp+472], 0
	mov	DWORD PTR _base_longopts$[ebp+476], 0
	mov	DWORD PTR _base_longopts$[ebp+480], OFFSET ??_C@_1BI@KGKFPKKP@?$AAi?$AAg?$AAn?$AAo?$AAr?$AAe?$AA?9?$AAc?$AAa?$AAs?$AAe?$AA?$AA@
	mov	DWORD PTR _base_longopts$[ebp+484], 0
	mov	DWORD PTR _base_longopts$[ebp+488], 0
	mov	DWORD PTR _base_longopts$[ebp+492], 105	; 00000069H
	mov	DWORD PTR _base_longopts$[ebp+496], OFFSET ??_C@_1BG@IHFOKHGF@?$AAi?$AAg?$AAn?$AAo?$AAr?$AAe?$AA?9?$AAd?$AAi?$AAr?$AA?$AA@
	mov	DWORD PTR _base_longopts$[ebp+500], 1
	mov	DWORD PTR _base_longopts$[ebp+504], 0
	mov	DWORD PTR _base_longopts$[ebp+508], 0
	mov	DWORD PTR _base_longopts$[ebp+512], OFFSET ??_C@_1BK@ODAOMBJO@?$AAi?$AAn?$AAv?$AAe?$AAr?$AAt?$AA?9?$AAm?$AAa?$AAt?$AAc?$AAh?$AA?$AA@
	mov	DWORD PTR _base_longopts$[ebp+516], 0
	mov	DWORD PTR _base_longopts$[ebp+520], 0
	mov	DWORD PTR _base_longopts$[ebp+524], 118	; 00000076H
	mov	DWORD PTR _base_longopts$[ebp+528], OFFSET ??_C@_1BK@HPAIPIPO@?$AAl?$AAi?$AAn?$AAe?$AA?9?$AAn?$AAu?$AAm?$AAb?$AAe?$AAr?$AAs?$AA?$AA@
	mov	DWORD PTR _base_longopts$[ebp+532], 0
	mov	DWORD PTR _base_longopts$[ebp+536], OFFSET ?opts@@3Ucli_options@@A+128
	lea	eax, DWORD PTR _list_file_types$[ebp]
	mov	DWORD PTR _base_longopts$[ebp+540], 2
	mov	DWORD PTR _base_longopts$[ebp+552], eax
	lea	eax, DWORD PTR _useless$[ebp]
	mov	DWORD PTR _base_longopts$[ebp+584], eax
	lea	eax, DWORD PTR _group$[ebp]
	mov	DWORD PTR _base_longopts$[ebp+544], OFFSET ??_C@_1CA@OBMILHG@?$AAl?$AAi?$AAs?$AAt?$AA?9?$AAf?$AAi?$AAl?$AAe?$AA?9?$AAt?$AAy?$AAp?$AAe?$AAs?$AA?$AA@
	mov	DWORD PTR _base_longopts$[ebp+548], 0
	mov	DWORD PTR _base_longopts$[ebp+556], 1
	mov	DWORD PTR _base_longopts$[ebp+560], OFFSET ??_C@_1BA@ODADONJK@?$AAl?$AAi?$AAt?$AAe?$AAr?$AAa?$AAl?$AA?$AA@
	mov	DWORD PTR _base_longopts$[ebp+564], 0
	mov	DWORD PTR _base_longopts$[ebp+568], 0
	mov	DWORD PTR _base_longopts$[ebp+572], 81	; 00000051H
	mov	DWORD PTR _base_longopts$[ebp+576], OFFSET ??_C@_1M@FEBKAGEK@?$AAm?$AAa?$AAt?$AAc?$AAh?$AA?$AA@
	mov	DWORD PTR _base_longopts$[ebp+580], 0
	mov	DWORD PTR _base_longopts$[ebp+588], 0
	mov	DWORD PTR _base_longopts$[ebp+592], OFFSET ??_C@_1BE@PKDOOPLG@?$AAm?$AAa?$AAx?$AA?9?$AAc?$AAo?$AAu?$AAn?$AAt?$AA?$AA@
	mov	DWORD PTR _base_longopts$[ebp+596], 1
	mov	DWORD PTR _base_longopts$[ebp+600], 0
	mov	DWORD PTR _base_longopts$[ebp+604], 109	; 0000006dH
	mov	DWORD PTR _base_longopts$[ebp+608], OFFSET ??_C@_1BG@JAEIGGLE@?$AAn?$AAo?$AA?9?$AAn?$AAu?$AAm?$AAb?$AAe?$AAr?$AAs?$AA?$AA@
	mov	DWORD PTR _base_longopts$[ebp+612], 0
	mov	DWORD PTR _base_longopts$[ebp+616], OFFSET ?opts@@3Ucli_options@@A+128
	mov	DWORD PTR _base_longopts$[ebp+620], 0
	mov	DWORD PTR _base_longopts$[ebp+624], OFFSET ??_C@_1BG@FDOMBNNF@?$AAn?$AAo?$AA?9?$AAr?$AAe?$AAc?$AAu?$AAr?$AAs?$AAe?$AA?$AA@
	mov	DWORD PTR _base_longopts$[ebp+628], 0
	mov	DWORD PTR _base_longopts$[ebp+632], 0
	mov	DWORD PTR _base_longopts$[ebp+636], 110	; 0000006eH
	mov	DWORD PTR _base_longopts$[ebp+640], OFFSET ??_C@_1BG@KIINCEOB@?$AAn?$AAo?$AAa?$AAf?$AAf?$AAi?$AAn?$AAi?$AAt?$AAy?$AA?$AA@
	mov	DWORD PTR _base_longopts$[ebp+644], 0
	mov	DWORD PTR _base_longopts$[ebp+648], OFFSET ?opts@@3Ucli_options@@A+212
	mov	DWORD PTR _base_longopts$[ebp+652], 0
	mov	DWORD PTR _base_longopts$[ebp+656], OFFSET ??_C@_1BA@FBJPFBEJ@?$AAn?$AAo?$AAb?$AAr?$AAe?$AAa?$AAk?$AA?$AA@
	mov	DWORD PTR _base_longopts$[ebp+660], 0
	mov	DWORD PTR _base_longopts$[ebp+664], OFFSET ?opts@@3Ucli_options@@A+112
	mov	DWORD PTR _base_longopts$[ebp+668], 0
	mov	DWORD PTR _base_longopts$[ebp+672], OFFSET ??_C@_1BA@BADOHFDA@?$AAn?$AAo?$AAc?$AAo?$AAl?$AAo?$AAr?$AA?$AA@
	mov	DWORD PTR _base_longopts$[ebp+676], 0
	mov	DWORD PTR _base_longopts$[ebp+680], OFFSET ?opts@@3Ucli_options@@A+40
	mov	DWORD PTR _base_longopts$[ebp+684], 0
	mov	DWORD PTR _base_longopts$[ebp+688], OFFSET ??_C@_1BG@PNIHHOGE@?$AAn?$AAo?$AAf?$AAi?$AAl?$AAe?$AAn?$AAa?$AAm?$AAe?$AA?$AA@
	mov	DWORD PTR _base_longopts$[ebp+692], 0
	mov	DWORD PTR _base_longopts$[ebp+696], 0
	mov	DWORD PTR _base_longopts$[ebp+700], 0
	mov	DWORD PTR _base_longopts$[ebp+704], OFFSET ??_C@_1BC@LMKFEDJA@?$AAn?$AAo?$AAf?$AAo?$AAl?$AAl?$AAo?$AAw?$AA?$AA@
	mov	DWORD PTR _base_longopts$[ebp+708], 0
	mov	DWORD PTR _base_longopts$[ebp+712], OFFSET ?opts@@3Ucli_options@@A+68
	mov	DWORD PTR _base_longopts$[ebp+716], 0
	mov	DWORD PTR _base_longopts$[ebp+720], OFFSET ??_C@_1BA@EHKDKKIC@?$AAn?$AAo?$AAg?$AAr?$AAo?$AAu?$AAp?$AA?$AA@
	mov	DWORD PTR _base_longopts$[ebp+724], 0
	mov	DWORD PTR _base_longopts$[ebp+728], eax
	mov	DWORD PTR _base_longopts$[ebp+732], 0
	mov	DWORD PTR _base_longopts$[ebp+736], OFFSET ??_C@_1BE@KFBONONB@?$AAn?$AAo?$AAh?$AAe?$AAa?$AAd?$AAi?$AAn?$AAg?$AA?$AA@
	mov	DWORD PTR _base_longopts$[ebp+740], 0
	mov	DWORD PTR _base_longopts$[ebp+744], OFFSET ?opts@@3Ucli_options@@A+124
	mov	DWORD PTR _base_longopts$[ebp+748], 3
	mov	DWORD PTR _base_longopts$[ebp+752], OFFSET ??_C@_1BE@GEOJKBPI@?$AAn?$AAo?$AAn?$AAu?$AAm?$AAb?$AAe?$AAr?$AAs?$AA?$AA@
	mov	DWORD PTR _base_longopts$[ebp+756], 0
	mov	DWORD PTR _base_longopts$[ebp+760], OFFSET ?opts@@3Ucli_options@@A+128
	mov	DWORD PTR _base_longopts$[ebp+764], 0
	mov	DWORD PTR _base_longopts$[ebp+768], OFFSET ??_C@_1BA@IJIAEFLP@?$AAn?$AAo?$AAp?$AAa?$AAg?$AAe?$AAr?$AA?$AA@
	mov	DWORD PTR _base_longopts$[ebp+772], 0
	mov	DWORD PTR _base_longopts$[ebp+776], 0
	mov	DWORD PTR _base_longopts$[ebp+780], 0
	mov	DWORD PTR _base_longopts$[ebp+784], OFFSET ??_C@_1BE@KHENNKJJ@?$AAn?$AAo?$AAr?$AAe?$AAc?$AAu?$AAr?$AAs?$AAe?$AA?$AA@
	mov	DWORD PTR _base_longopts$[ebp+788], 0
	mov	DWORD PTR _base_longopts$[ebp+792], 0
	mov	DWORD PTR _base_longopts$[ebp+796], 110	; 0000006eH
	mov	DWORD PTR _base_longopts$[ebp+800], OFFSET ??_C@_19DJCNLLCE@?$AAn?$AAu?$AAl?$AAl?$AA?$AA@
	mov	DWORD PTR _base_longopts$[ebp+804], 0
	mov	DWORD PTR _base_longopts$[ebp+808], 0
	mov	DWORD PTR _base_longopts$[ebp+812], 48	; 00000030H
	mov	DWORD PTR _base_longopts$[ebp+816], OFFSET ??_C@_1BA@KAMPKGGC@?$AAn?$AAu?$AAm?$AAb?$AAe?$AAr?$AAs?$AA?$AA@
	mov	DWORD PTR _base_longopts$[ebp+820], 0
	mov	DWORD PTR _base_longopts$[ebp+824], OFFSET ?opts@@3Ucli_options@@A+128
	mov	DWORD PTR _base_longopts$[ebp+828], 2
	mov	DWORD PTR _base_longopts$[ebp+832], OFFSET ??_C@_1BM@DACNNOFA@?$AAo?$AAn?$AAl?$AAy?$AA?9?$AAm?$AAa?$AAt?$AAc?$AAh?$AAi?$AAn?$AAg?$AA?$AA@
	mov	DWORD PTR _base_longopts$[ebp+836], 0
	mov	DWORD PTR _base_longopts$[ebp+840], 0
	mov	DWORD PTR _base_longopts$[ebp+844], 111	; 0000006fH
	mov	DWORD PTR _base_longopts$[ebp+848], OFFSET ??_C@_1BG@HBMOODBC@?$AAo?$AAn?$AAe?$AA?9?$AAd?$AAe?$AAv?$AAi?$AAc?$AAe?$AA?$AA@
	lea	eax, DWORD PTR _version$[ebp]
	mov	DWORD PTR _base_longopts$[ebp+852], 0
	mov	DWORD PTR _base_longopts$[ebp+856], OFFSET ?opts@@3Ucli_options@@A+96
	mov	DWORD PTR _base_longopts$[ebp+860], 1
	mov	DWORD PTR _base_longopts$[ebp+864], OFFSET ??_C@_1M@NNGEIIHG@?$AAp?$AAa?$AAg?$AAe?$AAr?$AA?$AA@
	mov	DWORD PTR _base_longopts$[ebp+868], 1
	mov	DWORD PTR _base_longopts$[ebp+872], 0
	mov	DWORD PTR _base_longopts$[ebp+876], 0
	mov	DWORD PTR _base_longopts$[ebp+880], OFFSET ??_C@_1BC@BLAFGIDL@?$AAp?$AAa?$AAr?$AAa?$AAl?$AAl?$AAe?$AAl?$AA?$AA@
	mov	DWORD PTR _base_longopts$[ebp+884], 0
	mov	DWORD PTR _base_longopts$[ebp+888], OFFSET ?opts@@3Ucli_options@@A+208
	mov	DWORD PTR _base_longopts$[ebp+892], 1
	mov	DWORD PTR _base_longopts$[ebp+896], OFFSET ??_C@_1BI@LOLOJFNM@?$AAp?$AAa?$AAs?$AAs?$AAt?$AAh?$AAr?$AAo?$AAu?$AAg?$AAh?$AA?$AA@
	mov	DWORD PTR _base_longopts$[ebp+900], 0
	mov	DWORD PTR _base_longopts$[ebp+904], OFFSET ?opts@@3Ucli_options@@A+136
	mov	DWORD PTR _base_longopts$[ebp+908], 1
	mov	DWORD PTR _base_longopts$[ebp+912], OFFSET ??_C@_1BC@OFNIBPPO@?$AAp?$AAa?$AAs?$AAs?$AAt?$AAh?$AAr?$AAu?$AA?$AA@
	mov	DWORD PTR _base_longopts$[ebp+916], 0
	mov	DWORD PTR _base_longopts$[ebp+920], OFFSET ?opts@@3Ucli_options@@A+136
	mov	DWORD PTR _base_longopts$[ebp+924], 1
	mov	DWORD PTR _base_longopts$[ebp+928], OFFSET ??_C@_1CC@DPLOKIO@?$AAp?$AAa?$AAt?$AAh?$AA?9?$AAt?$AAo?$AA?9?$AAa?$AAg?$AAi?$AAg?$AAn?$AAo?$AAr?$AAe?$AA?$AA@
	mov	DWORD PTR _base_longopts$[ebp+932], 1
	mov	DWORD PTR _base_longopts$[ebp+936], 0
	mov	DWORD PTR _base_longopts$[ebp+940], 112	; 00000070H
	mov	DWORD PTR _base_longopts$[ebp+944], OFFSET ??_C@_1O@IEFBAAFD@?$AAp?$AAr?$AAi?$AAn?$AAt?$AA0?$AA?$AA@
	mov	DWORD PTR _base_longopts$[ebp+948], 0
	mov	DWORD PTR _base_longopts$[ebp+952], 0
	mov	DWORD PTR _base_longopts$[ebp+956], 48	; 00000030H
	mov	DWORD PTR _base_longopts$[ebp+960], OFFSET ??_C@_1CC@NNDKIGAN@?$AAp?$AAr?$AAi?$AAn?$AAt?$AA?9?$AAl?$AAo?$AAn?$AAg?$AA?9?$AAl?$AAi?$AAn?$AAe?$AAs?$AA?$AA@
	mov	DWORD PTR _base_longopts$[ebp+964], 0
	mov	DWORD PTR _base_longopts$[ebp+968], OFFSET ?opts@@3Ucli_options@@A+132
	mov	DWORD PTR _base_longopts$[ebp+972], 1
	mov	DWORD PTR _base_longopts$[ebp+976], OFFSET ??_C@_1BA@GDGLNNAD@?$AAr?$AAe?$AAc?$AAu?$AAr?$AAs?$AAe?$AA?$AA@
	mov	DWORD PTR _base_longopts$[ebp+980], 0
	mov	DWORD PTR _base_longopts$[ebp+984], 0
	mov	DWORD PTR _base_longopts$[ebp+988], 114	; 00000072H
	mov	DWORD PTR _base_longopts$[ebp+992], OFFSET ??_C@_1BM@BCKJCGHP@?$AAs?$AAe?$AAa?$AAr?$AAc?$AAh?$AA?9?$AAb?$AAi?$AAn?$AAa?$AAr?$AAy?$AA?$AA@
	mov	DWORD PTR _base_longopts$[ebp+996], 0
	mov	DWORD PTR _base_longopts$[ebp+1000], OFFSET ?opts@@3Ucli_options@@A+160
	mov	DWORD PTR _base_longopts$[ebp+1004], 1
	mov	DWORD PTR _base_longopts$[ebp+1008], OFFSET ??_C@_1BK@FCCOOKFM@?$AAs?$AAe?$AAa?$AAr?$AAc?$AAh?$AA?9?$AAf?$AAi?$AAl?$AAe?$AAs?$AA?$AA@
	mov	DWORD PTR _base_longopts$[ebp+1012], 0
	mov	DWORD PTR _base_longopts$[ebp+1016], OFFSET ?opts@@3Ucli_options@@A+172
	mov	DWORD PTR _base_longopts$[ebp+1020], 0
	mov	DWORD PTR _base_longopts$[ebp+1024], OFFSET ??_C@_1BG@MMEMJLOB@?$AAs?$AAe?$AAa?$AAr?$AAc?$AAh?$AA?9?$AAz?$AAi?$AAp?$AA?$AA@
	mov	DWORD PTR _base_longopts$[ebp+1028], 0
	mov	DWORD PTR _base_longopts$[ebp+1032], OFFSET ?opts@@3Ucli_options@@A+164
	mov	DWORD PTR _base_longopts$[ebp+1036], 1
	mov	DWORD PTR _base_longopts$[ebp+1040], OFFSET ??_C@_1O@IIMCFFPP@?$AAs?$AAi?$AAl?$AAe?$AAn?$AAt?$AA?$AA@
	mov	DWORD PTR _base_longopts$[ebp+1044], 0
	mov	DWORD PTR _base_longopts$[ebp+1048], 0
	mov	DWORD PTR _base_longopts$[ebp+1052], 0
	mov	DWORD PTR _base_longopts$[ebp+1056], OFFSET ??_C@_1CC@GFCDIIKJ@?$AAs?$AAk?$AAi?$AAp?$AA?9?$AAv?$AAc?$AAs?$AA?9?$AAi?$AAg?$AAn?$AAo?$AAr?$AAe?$AAs?$AA?$AA@
	mov	DWORD PTR _base_longopts$[ebp+1060], 0
	mov	DWORD PTR _base_longopts$[ebp+1064], 0
	mov	DWORD PTR _base_longopts$[ebp+1068], 85	; 00000055H
	mov	DWORD PTR _base_longopts$[ebp+1072], OFFSET ??_C@_1BG@JOAAIHCB@?$AAs?$AAm?$AAa?$AAr?$AAt?$AA?9?$AAc?$AAa?$AAs?$AAe?$AA?$AA@
	mov	DWORD PTR _base_longopts$[ebp+1076], 0
	mov	DWORD PTR _base_longopts$[ebp+1080], 0
	mov	DWORD PTR _base_longopts$[ebp+1084], 83	; 00000053H
	mov	DWORD PTR _base_longopts$[ebp+1088], OFFSET ??_C@_1M@NNCEKPPG@?$AAs?$AAt?$AAa?$AAt?$AAs?$AA?$AA@
	mov	DWORD PTR _base_longopts$[ebp+1092], 0
	mov	DWORD PTR _base_longopts$[ebp+1096], OFFSET ?opts@@3Ucli_options@@A+176
	mov	DWORD PTR _base_longopts$[ebp+1100], 1
	mov	DWORD PTR _base_longopts$[ebp+1104], OFFSET ??_C@_1BK@GPPBMMOJ@?$AAu?$AAn?$AAr?$AAe?$AAs?$AAt?$AAr?$AAi?$AAc?$AAt?$AAe?$AAd?$AA?$AA@
	mov	DWORD PTR _base_longopts$[ebp+1108], 0
	mov	DWORD PTR _base_longopts$[ebp+1112], 0
	mov	DWORD PTR _base_longopts$[ebp+1116], 117 ; 00000075H
	mov	DWORD PTR _base_longopts$[ebp+1120], OFFSET ??_C@_1BA@KPDNCIMM@?$AAv?$AAe?$AAr?$AAs?$AAi?$AAo?$AAn?$AA?$AA@
	mov	DWORD PTR _base_longopts$[ebp+1124], 0
	mov	DWORD PTR _base_longopts$[ebp+1128], eax
	mov	DWORD PTR _base_longopts$[ebp+1132], 1
	mov	DWORD PTR _base_longopts$[ebp+1136], OFFSET ??_C@_1BA@OFINMEEJ@?$AAv?$AAi?$AAm?$AAg?$AAr?$AAe?$AAp?$AA?$AA@
	mov	DWORD PTR _base_longopts$[ebp+1140], 0
	mov	DWORD PTR _base_longopts$[ebp+1144], OFFSET ?opts@@3Ucli_options@@A+216
	mov	DWORD PTR _base_longopts$[ebp+1148], 1
	mov	DWORD PTR _base_longopts$[ebp+1152], OFFSET ??_C@_1BI@DPJICJMO@?$AAw?$AAo?$AAr?$AAd?$AA?9?$AAr?$AAe?$AAg?$AAe?$AAx?$AAp?$AA?$AA@
	mov	DWORD PTR _base_longopts$[ebp+1156], 0
	mov	DWORD PTR _base_longopts$[ebp+1160], 0
	mov	DWORD PTR _base_longopts$[ebp+1164], 119 ; 00000077H
	mov	DWORD PTR _base_longopts$[ebp+1168], OFFSET ??_C@_1BA@KNIPCJJC@?$AAw?$AAo?$AAr?$AAk?$AAe?$AAr?$AAs?$AA?$AA@
; File i:\study\filescan\filescan\util.c
; Line 27
	push	2480					; 000009b0H
; File i:\study\filescan\filescan\options.c
; Line 379
	mov	DWORD PTR _base_longopts$[ebp+1172], 1
	mov	DWORD PTR _base_longopts$[ebp+1176], 0
	mov	DWORD PTR _base_longopts$[ebp+1180], 0
; File i:\study\filescan\filescan\util.c
; Line 27
	call	DWORD PTR __imp__malloc
	mov	ebx, eax
	add	esp, 4
	mov	DWORD PTR _ptr$1$[ebp], ebx
; Line 28
	test	ebx, ebx
	je	$LN303@parse_opti
; File i:\study\filescan\filescan\options.c
; Line 385
	mov	ecx, 296				; 00000128H
	lea	esi, DWORD PTR _base_longopts$[ebp]
	mov	edi, ebx
	rep movsd
; File i:\study\filescan\filescan\util.c
; Line 27
	push	320					; 00000140H
	call	DWORD PTR __imp__malloc
	add	esp, 4
	mov	DWORD PTR _ptr$1$[ebp], eax
; Line 28
	test	eax, eax
	je	$LN305@parse_opti
; File i:\study\filescan\filescan\options.c
; Line 387
	push	320					; 00000140H
	push	0
	push	eax
	call	_memset
	add	esp, 12					; 0000000cH
; Line 390
	mov	DWORD PTR _opt$6[ebp+4], 0
	mov	DWORD PTR _opt$6[ebp+8], 0
	lea	edx, DWORD PTR [ebx+1184]
	mov	DWORD PTR _opt$6[ebp+12], 0
	xor	ecx, ecx
$LL128@parse_opti:
	mov	eax, DWORD PTR ?langs@@3PAUlang_spec_t@@A[ecx]
	lea	edx, DWORD PTR [edx+16]
	mov	DWORD PTR _opt$6[ebp], eax
	add	ecx, 52					; 00000034H
; Line 391
	movdqu	xmm0, XMMWORD PTR _opt$6[ebp]
	movdqu	XMMWORD PTR [edx-16], xmm0
	cmp	ecx, 4160				; 00001040H
	jb	SHORT $LL128@parse_opti
; Line 394
	xorps	xmm0, xmm0
	movdqu	XMMWORD PTR [ebx+2464], xmm0
; Line 396
	mov	ebx, DWORD PTR _argc$GSCopy$1$[ebp]
	cmp	ebx, 2
	jge	SHORT $LN125@parse_opti
; Line 97
	mov	esi, DWORD PTR __imp__printf
	push	OFFSET ??_C@_01EEMJAFIK@?6?$AA@
	call	esi
	add	esp, 4
; Line 98
	push	OFFSET ??_C@_0DB@GNJOEFFB@Usage?3?5ag?5?$FLFILE?9TYPE?$FN?5?$FLOPTIONS?$FN?5@
	call	esi
	add	esp, 4
; Line 100
	push	OFFSET ??_C@_0CL@FHIHDFEA@?5?5Recursively?5search?5for?5PATTERN@
	call	esi
	add	esp, 4
; Line 101
	push	OFFSET ??_C@_0CC@EJPHMHFA@?5?5Like?5grep?5or?5ack?0?5but?5faster?4?6@
	call	esi
	add	esp, 4
; Line 103
	push	OFFSET ??_C@_0BN@MDFHOCLL@Example?3?6?5?5ag?5?9i?5foo?5?1bar?1?6?6?$AA@
	call	esi
	add	esp, 4
; Line 118
	push	OFFSET ??_C@_0DBB@OCLLMNJD@Output?5Options?3?6?5?5?5?5?5?9?9ackmate?5?5@
	call	esi
	add	esp, 4
; Line 123
	push	OFFSET ??_C@_0KE@CKANMNHJ@?5?5?5?5?5?9?9color?9win?9ansi?5?5?5?5?5Use?5an@
	call	esi
	add	esp, 4
; Line 179
	push	OFFSET ??_C@_0MPB@JANJFJDE@?5?5?5?5?5?9?9column?5?5?5?5?5?5?5?5?5?5?5?5?5Print?5@
	call	esi
	add	esp, 4
; Line 186
	push	OFFSET ??_C@_0PA@FBGEGBEP@File?5Types?3?6The?5search?5can?5be?5re@
	call	esi
; Line 398
	mov	ecx, DWORD PTR ?root_ignores@@3PAUignores@@A ; root_ignores
; Line 186
	add	esp, 4
; Line 398
	call	?cleanup_ignore@@YAXPAUignores@@@Z	; cleanup_ignore
; Line 399
	call	?cleanup_options@@YAXXZ			; cleanup_options
; Line 400
	push	1
	call	DWORD PTR __imp__exit
$LN317@parse_opti:
$LN125@parse_opti:
; Line 403
	call	DWORD PTR __imp____iob_func
	mov	esi, DWORD PTR __imp___fileno
	push	eax
	call	esi
; File c:\program files (x86)\microsoft visual studio 12.0\vc\include\sys\stat.inl
; Line 54
	mov	edi, DWORD PTR __imp___fstat64i32
	lea	ecx, DWORD PTR _statbuf$[ebp]
; File i:\study\filescan\filescan\options.c
; Line 403
	add	esp, 4
; File c:\program files (x86)\microsoft visual studio 12.0\vc\include\sys\stat.inl
; Line 54
	push	ecx
	push	eax
	call	edi
	add	esp, 8
; File i:\study\filescan\filescan\options.c
; Line 404
	test	eax, eax
	jne	SHORT $LN123@parse_opti
; Line 405
	mov	eax, DWORD PTR _statbuf$[ebp+6]
	mov	ecx, 4096				; 00001000H
	and	eax, 61440				; 0000f000H
	cmp	ax, cx
	je	SHORT $LN122@parse_opti
	mov	ecx, 32768				; 00008000H
	cmp	ax, cx
	jne	SHORT $LN123@parse_opti
$LN122@parse_opti:
; Line 406
	mov	DWORD PTR ?opts@@3Ucli_options@@A+172, 1
$LN123@parse_opti:
; Line 414
	call	DWORD PTR __imp____iob_func
	add	eax, 32					; 00000020H
	push	eax
	call	esi
	add	esp, 4
	push	eax
	call	DWORD PTR __imp___isatty
	add	esp, 4
	test	eax, eax
	jne	SHORT $LN121@parse_opti
; Line 415
	mov	DWORD PTR ?opts@@3Ucli_options@@A+40, eax
; Line 416
	mov	DWORD PTR _group$[ebp], eax
; Line 419
	call	DWORD PTR __imp____iob_func
	add	eax, 32					; 00000020H
	push	eax
	call	esi
	add	esp, 4
; File c:\program files (x86)\microsoft visual studio 12.0\vc\include\sys\stat.inl
; Line 54
	lea	ecx, DWORD PTR _statbuf$[ebp]
	push	ecx
	push	eax
	call	edi
	add	esp, 8
; File i:\study\filescan\filescan\options.c
; Line 420
	test	eax, eax
	jne	$LN306@parse_opti
; Line 423
	mov	ax, WORD PTR _statbuf$[ebp+4]
	mov	WORD PTR ?opts@@3Ucli_options@@A+188, ax
$LN121@parse_opti:
; Line 427
	mov	ecx, DWORD PTR _ptr$1$[ebp]
	lea	eax, DWORD PTR _opt_index$[ebp]
	mov	edx, DWORD PTR _argv$GSCopy$1$[ebp]
	push	eax
	push	ecx
	push	ecx
	mov	ecx, ebx
	mov	DWORD PTR _pcre_opts$1$[ebp], 0
	call	_getopt_long
	mov	edi, DWORD PTR __imp__free
	add	esp, 12					; 0000000cH
	mov	ebx, DWORD PTR _ptr$1$[ebp]
	cmp	eax, -1
	je	$LN118@parse_opti
	mov	esi, DWORD PTR __imp___wtoi
$LN301@parse_opti:
	mov	ecx, DWORD PTR __imp__wcstol
; Line 428
	cmp	eax, 122				; 0000007aH
	ja	$LN39@parse_opti
	movzx	eax, BYTE PTR $LN230@parse_opti[eax]
	jmp	DWORD PTR $LN316@parse_opti[eax*4]
$LN115@parse_opti:
; Line 430
	mov	eax, DWORD PTR _optarg
	test	eax, eax
	je	SHORT $LN114@parse_opti
; Line 431
	push	10					; 0000000aH
	lea	edx, DWORD PTR _num_end$[ebp]
	push	edx
	push	eax
	call	ecx
	mov	DWORD PTR ?opts@@3Ucli_options@@A+12, eax
	add	esp, 12					; 0000000cH
; Line 432
	mov	eax, DWORD PTR _num_end$[ebp]
	cmp	eax, DWORD PTR _optarg
	je	SHORT $LN112@parse_opti
	cmp	WORD PTR [eax], 0
	jne	SHORT $LN112@parse_opti
	call	DWORD PTR __imp___errno
	cmp	DWORD PTR [eax], 34			; 00000022H
	jne	$LN116@parse_opti
$LN112@parse_opti:
; Line 434
	dec	DWORD PTR _optind
$LN114@parse_opti:
; Line 435
	mov	DWORD PTR ?opts@@3Ucli_options@@A+12, 2
; Line 437
	jmp	$LN116@parse_opti
$LN110@parse_opti:
; Line 442
	mov	DWORD PTR ?opts@@3Ucli_options@@A+152, 1
; Line 443
	mov	DWORD PTR ?opts@@3Ucli_options@@A+160, 1
; Line 444
	jmp	$LN116@parse_opti
$LN109@parse_opti:
; Line 446
	mov	eax, DWORD PTR _optarg
	test	eax, eax
	je	SHORT $LN108@parse_opti
; Line 447
	push	10					; 0000000aH
	lea	edx, DWORD PTR _num_end$[ebp]
	push	edx
	push	eax
	call	ecx
	mov	DWORD PTR ?opts@@3Ucli_options@@A+16, eax
	add	esp, 12					; 0000000cH
; Line 448
	mov	eax, DWORD PTR _num_end$[ebp]
	cmp	eax, DWORD PTR _optarg
	je	SHORT $LN106@parse_opti
	cmp	WORD PTR [eax], 0
	jne	SHORT $LN106@parse_opti
	call	DWORD PTR __imp___errno
	cmp	DWORD PTR [eax], 34			; 00000022H
	jne	$LN116@parse_opti
$LN106@parse_opti:
; Line 450
	dec	DWORD PTR _optind
$LN108@parse_opti:
; Line 451
	mov	DWORD PTR ?opts@@3Ucli_options@@A+16, 2
; Line 453
	jmp	$LN116@parse_opti
$LN104@parse_opti:
; Line 458
	mov	eax, DWORD PTR _optarg
	test	eax, eax
	je	SHORT $LN103@parse_opti
; Line 459
	push	10					; 0000000aH
	lea	edx, DWORD PTR _num_end$[ebp]
	push	edx
	push	eax
	call	ecx
	add	esp, 12					; 0000000cH
	mov	DWORD PTR ?opts@@3Ucli_options@@A+64, eax
; Line 460
	call	?is_valid_num@@YAHPA_W@Z		; is_valid_num
	test	eax, eax
	jne	SHORT $LN102@parse_opti
; Line 462
	dec	DWORD PTR _optind
$LN103@parse_opti:
; Line 463
	mov	DWORD PTR ?opts@@3Ucli_options@@A+64, 2
; Line 464
	jmp	$LN116@parse_opti
$LN102@parse_opti:
; Line 465
	push	DWORD PTR _optarg
	call	esi
	add	esp, 4
	mov	DWORD PTR ?opts@@3Ucli_options@@A+64, eax
; Line 467
	jmp	$LN116@parse_opti
$LN99@parse_opti:
; Line 472
	mov	DWORD PTR ?opts@@3Ucli_options@@A+116, 1
; Line 473
	mov	DWORD PTR ?opts@@3Ucli_options@@A+120, 1
; Line 474
	jmp	$LN116@parse_opti
$LN98@parse_opti:
; File i:\study\filescan\filescan\log.c
; Line 10
	mov	DWORD PTR _log_threshold, 10		; 0000000aH
; File i:\study\filescan\filescan\options.c
; Line 477
	jmp	$LN116@parse_opti
$LN97@parse_opti:
; Line 479
	mov	DWORD PTR ?opts@@3Ucli_options@@A+68, 1
; Line 480
	jmp	$LN116@parse_opti
$LN96@parse_opti:
; Line 482
	mov	DWORD PTR _accepts_query$1$[ebp], 0
	mov	DWORD PTR _needs_query$1$[ebp], 0
; Line 483
	mov	DWORD PTR ?opts@@3Ucli_options@@A+28, 1
$LN95@parse_opti:
; Line 486
	mov	eax, DWORD PTR ?opts@@3Ucli_options@@A+20
	test	eax, eax
	jne	SHORT $LN94@parse_opti
; Line 487
	mov	DWORD PTR ?opts@@3Ucli_options@@A+20, 1
$LN297@parse_opti:
	mov	eax, DWORD PTR _pcre_opts$1$[ebp]
$LN93@parse_opti:
; File i:\study\filescan\pcre\pcre_compile.c
; Line 7755
	push	ecx
	lea	ecx, DWORD PTR _pcre_err_offset$1[ebp]
; File i:\study\filescan\filescan\util.c
; Line 264
	mov	DWORD PTR _pcre_err$2[ebp], 0
; File i:\study\filescan\pcre\pcre_compile.c
; Line 7755
	push	ecx
	lea	ecx, DWORD PTR _pcre_err$2[ebp]
; File i:\study\filescan\filescan\util.c
; Line 265
	mov	DWORD PTR _pcre_err_offset$1[ebp], 0
; File i:\study\filescan\pcre\pcre_compile.c
; Line 7755
	push	ecx
	push	ecx
	mov	ecx, DWORD PTR _optarg
	mov	edx, eax
	call	_pcre16_compile2
	add	esp, 16					; 00000010H
; File i:\study\filescan\filescan\util.c
; Line 267
	mov	DWORD PTR ?opts@@3Ucli_options@@A+32, eax
; Line 268
	test	eax, eax
	je	$LN209@parse_opti
; Line 273
	lea	ecx, DWORD PTR _pcre_err$2[ebp]
	push	ecx
	mov	ecx, eax
	call	_pcre16_study
	add	esp, 4
	mov	DWORD PTR ?opts@@3Ucli_options@@A+36, eax
; Line 274
	test	eax, eax
	jne	$LN116@parse_opti
; Line 275
	push	DWORD PTR _pcre_err$2[ebp]
	push	OFFSET ??_C@_1FM@HOKKFDCC@?$AAp?$AAc?$AAr?$AAe?$AA_?$AAs?$AAt?$AAu?$AAd?$AAy?$AA?5?$AAr?$AAe?$AAt?$AAu?$AAr?$AAn?$AAe?$AAd?$AA?5?$AAn?$AAo?$AAt?$AAh?$AAi?$AAn?$AAg?$AA?5?$AAu?$AAs?$AAe?$AAf@
	call	?log_debug@@YAXPB_WZZ			; log_debug
	add	esp, 8
; File i:\study\filescan\filescan\options.c
; Line 493
	jmp	$LN116@parse_opti
$LN94@parse_opti:
; Line 489
	cmp	eax, 1
	je	SHORT $LN297@parse_opti
; Line 490
	mov	eax, DWORD PTR _pcre_opts$1$[ebp]
	or	eax, 1
	mov	DWORD PTR _pcre_opts$1$[ebp], eax
	jmp	SHORT $LN93@parse_opti
$LN92@parse_opti:
; Line 495
	mov	DWORD PTR ?opts@@3Ucli_options@@A+124, 2
; Line 496
	jmp	$LN116@parse_opti
$LN91@parse_opti:
; Line 498
	mov	DWORD PTR _help$1$[ebp], 1
; Line 499
	jmp	$LN116@parse_opti
$LN90@parse_opti:
; Line 501
	mov	DWORD PTR ?opts@@3Ucli_options@@A+20, 2
; Line 502
	jmp	$LN116@parse_opti
$LN89@parse_opti:
; Line 504
	mov	DWORD PTR ?opts@@3Ucli_options@@A+72, 1
$LN88@parse_opti:
; Line 507
	mov	DWORD PTR _needs_query$1$[ebp], 0
; Line 508
	mov	DWORD PTR ?opts@@3Ucli_options@@A+120, 1
; Line 509
	jmp	$LN116@parse_opti
$LN87@parse_opti:
; Line 511
	push	DWORD PTR _optarg
	call	esi
	add	esp, 4
	mov	DWORD PTR ?opts@@3Ucli_options@@A+88, eax
; Line 512
	jmp	$LN116@parse_opti
$LN86@parse_opti:
; Line 514
	mov	DWORD PTR ?opts@@3Ucli_options@@A+148, 0
; Line 515
	jmp	$LN116@parse_opti
$LN85@parse_opti:
; Line 517
	mov	eax, DWORD PTR _optarg
	mov	DWORD PTR ?opts@@3Ucli_options@@A+108, eax
; Line 518
	jmp	$LN116@parse_opti
$LN84@parse_opti:
; Line 520
	mov	DWORD PTR ?opts@@3Ucli_options@@A+100, 1
; Line 521
	jmp	$LN116@parse_opti
$LN83@parse_opti:
; Line 524
	mov	DWORD PTR ?opts@@3Ucli_options@@A+76, 1
; Line 525
	jmp	$LN116@parse_opti
$LN82@parse_opti:
; Line 528
	mov	DWORD PTR ?opts@@3Ucli_options@@A+148, 1
; Line 529
	jmp	$LN116@parse_opti
$LN81@parse_opti:
; Line 531
	mov	DWORD PTR ?opts@@3Ucli_options@@A+20, 3
; Line 532
	jmp	$LN116@parse_opti
$LN80@parse_opti:
; Line 534
	mov	DWORD PTR ?opts@@3Ucli_options@@A+20, 1
; Line 535
	jmp	$LN116@parse_opti
$LN79@parse_opti:
; Line 537
	mov	DWORD PTR ?opts@@3Ucli_options@@A+152, 1
; Line 538
	jmp	$LN116@parse_opti
$LN78@parse_opti:
; Line 540
	mov	DWORD PTR ?opts@@3Ucli_options@@A+160, 1
; Line 541
	mov	DWORD PTR ?opts@@3Ucli_options@@A+152, 1
; Line 542
	mov	DWORD PTR ?opts@@3Ucli_options@@A+168, 1
; Line 543
	jmp	$LN116@parse_opti
$LN77@parse_opti:
; Line 545
	mov	DWORD PTR ?opts@@3Ucli_options@@A+156, 1
; Line 546
	jmp	$LN116@parse_opti
$LN76@parse_opti:
; Line 548
	mov	DWORD PTR ?opts@@3Ucli_options@@A+72, 1
; Line 550
	mov	DWORD PTR ?opts@@3Ucli_options@@A+40, 0
; Line 551
	jmp	$LN116@parse_opti
$LN75@parse_opti:
; Line 553
	mov	DWORD PTR _version$[ebp], 1
; Line 554
	jmp	$LN116@parse_opti
$LN74@parse_opti:
; Line 556
	mov	DWORD PTR ?opts@@3Ucli_options@@A+220, 1
; Line 557
	jmp	$LN116@parse_opti
$LN73@parse_opti:
; Line 559
	mov	DWORD PTR ?opts@@3Ucli_options@@A+164, 1
; Line 560
	jmp	$LN116@parse_opti
$LN72@parse_opti:
; Line 562
	xor	eax, eax
	mov	WORD PTR ?opts@@3Ucli_options@@A+104, ax
; Line 563
	jmp	$LN116@parse_opti
$LN71@parse_opti:
; Line 565
	mov	esi, DWORD PTR _opt_index$[ebp]
	mov	ecx, OFFSET ??_C@_1CG@KNJAHCHM@?$AAa?$AAc?$AAk?$AAm?$AAa?$AAt?$AAe?$AA?9?$AAd?$AAi?$AAr?$AA?9?$AAf?$AAi?$AAl?$AAt?$AAe?$AAr?$AA?$AA@
	shl	esi, 4
	add	esi, ebx
	mov	ebx, DWORD PTR [esi]
	mov	eax, ebx
$LL231@parse_opti:
	mov	dx, WORD PTR [eax]
	cmp	dx, WORD PTR [ecx]
	jne	SHORT $LN232@parse_opti
	test	dx, dx
	je	SHORT $LN233@parse_opti
	mov	dx, WORD PTR [eax+2]
	cmp	dx, WORD PTR [ecx+2]
	jne	SHORT $LN232@parse_opti
	add	eax, 4
	add	ecx, 4
	test	dx, dx
	jne	SHORT $LL231@parse_opti
$LN233@parse_opti:
	xor	eax, eax
	jmp	SHORT $LN234@parse_opti
$LN232@parse_opti:
	sbb	eax, eax
	or	eax, 1
$LN234@parse_opti:
	test	eax, eax
	jne	SHORT $LN70@parse_opti
; Line 566
	push	ecx
	push	eax
	push	DWORD PTR _optarg
	mov	edx, OFFSET ?opts@@3Ucli_options@@A+8
	mov	ecx, OFFSET ?opts@@3Ucli_options@@A+4
	call	?compile_study@@YAXPAPAUreal_pcre16@@PAPAUpcre16_extra@@PA_WHH@Z ; compile_study
	add	esp, 12					; 0000000cH
; Line 567
	jmp	$LN295@parse_opti
$LN70@parse_opti:
; Line 568
	mov	ecx, OFFSET ??_C@_1M@FKMBKAHI@?$AAd?$AAe?$AAp?$AAt?$AAh?$AA?$AA@
	mov	eax, ebx
	npad	6
$LL235@parse_opti:
	mov	dx, WORD PTR [eax]
	cmp	dx, WORD PTR [ecx]
	jne	SHORT $LN236@parse_opti
	test	dx, dx
	je	SHORT $LN237@parse_opti
	mov	dx, WORD PTR [eax+2]
	cmp	dx, WORD PTR [ecx+2]
	jne	SHORT $LN236@parse_opti
	add	eax, 4
	add	ecx, 4
	test	dx, dx
	jne	SHORT $LL235@parse_opti
$LN237@parse_opti:
	xor	eax, eax
	jmp	SHORT $LN238@parse_opti
$LN236@parse_opti:
	sbb	eax, eax
	or	eax, 1
$LN238@parse_opti:
	test	eax, eax
	jne	SHORT $LN68@parse_opti
; Line 569
	push	DWORD PTR _optarg
	mov	esi, DWORD PTR __imp___wtoi
	call	esi
	add	esp, 4
	mov	DWORD PTR ?opts@@3Ucli_options@@A+92, eax
; Line 570
	jmp	$LN299@parse_opti
$LN68@parse_opti:
; Line 571
	mov	ecx, OFFSET ??_C@_1BC@OIENENHB@?$AAf?$AAi?$AAl?$AAe?$AAn?$AAa?$AAm?$AAe?$AA?$AA@
	mov	eax, ebx
$LL239@parse_opti:
	mov	dx, WORD PTR [eax]
	cmp	dx, WORD PTR [ecx]
	jne	SHORT $LN240@parse_opti
	test	dx, dx
	je	SHORT $LN241@parse_opti
	mov	dx, WORD PTR [eax+2]
	cmp	dx, WORD PTR [ecx+2]
	jne	SHORT $LN240@parse_opti
	add	eax, 4
	add	ecx, 4
	test	dx, dx
	jne	SHORT $LL239@parse_opti
$LN241@parse_opti:
	xor	eax, eax
	jmp	SHORT $LN242@parse_opti
$LN240@parse_opti:
	sbb	eax, eax
	or	eax, 1
$LN242@parse_opti:
	test	eax, eax
	jne	SHORT $LN66@parse_opti
; Line 572
	mov	DWORD PTR ?opts@@3Ucli_options@@A+124, eax
; Line 573
	mov	DWORD PTR ?opts@@3Ucli_options@@A+128, 1
; Line 574
	jmp	$LN295@parse_opti
$LN66@parse_opti:
; Line 576
	mov	ecx, OFFSET ??_C@_1BG@IHFOKHGF@?$AAi?$AAg?$AAn?$AAo?$AAr?$AAe?$AA?9?$AAd?$AAi?$AAr?$AA?$AA@
	mov	eax, ebx
	npad	5
$LL243@parse_opti:
	mov	dx, WORD PTR [eax]
	cmp	dx, WORD PTR [ecx]
	jne	SHORT $LN244@parse_opti
	test	dx, dx
	je	SHORT $LN245@parse_opti
	mov	dx, WORD PTR [eax+2]
	cmp	dx, WORD PTR [ecx+2]
	jne	SHORT $LN244@parse_opti
	add	eax, 4
	add	ecx, 4
	test	dx, dx
	jne	SHORT $LL243@parse_opti
$LN245@parse_opti:
	xor	eax, eax
	jmp	SHORT $LN246@parse_opti
$LN244@parse_opti:
	sbb	eax, eax
	or	eax, 1
$LN246@parse_opti:
	test	eax, eax
	jne	SHORT $LN64@parse_opti
$LN300@parse_opti:
; Line 577
	mov	edx, DWORD PTR _optarg
	mov	ecx, DWORD PTR ?root_ignores@@3PAUignores@@A ; root_ignores
	call	?add_ignore_pattern@@YAXPAUignores@@PB_W@Z ; add_ignore_pattern
; Line 578
	jmp	$LN295@parse_opti
$LN64@parse_opti:
; Line 580
	mov	ecx, OFFSET ??_C@_1O@NMPCFOPJ@?$AAi?$AAg?$AAn?$AAo?$AAr?$AAe?$AA?$AA@
	mov	eax, ebx
	npad	4
$LL247@parse_opti:
	mov	dx, WORD PTR [eax]
	cmp	dx, WORD PTR [ecx]
	jne	SHORT $LN248@parse_opti
	test	dx, dx
	je	SHORT $LN249@parse_opti
	mov	dx, WORD PTR [eax+2]
	cmp	dx, WORD PTR [ecx+2]
	jne	SHORT $LN248@parse_opti
	add	eax, 4
	add	ecx, 4
	test	dx, dx
	jne	SHORT $LL247@parse_opti
$LN249@parse_opti:
	xor	eax, eax
	jmp	SHORT $LN250@parse_opti
$LN248@parse_opti:
	sbb	eax, eax
	or	eax, 1
$LN250@parse_opti:
	test	eax, eax
	je	SHORT $LN300@parse_opti
; Line 584
	mov	ecx, OFFSET ??_C@_1BG@PNIHHOGE@?$AAn?$AAo?$AAf?$AAi?$AAl?$AAe?$AAn?$AAa?$AAm?$AAe?$AA?$AA@
	mov	eax, ebx
$LL251@parse_opti:
	mov	dx, WORD PTR [eax]
	cmp	dx, WORD PTR [ecx]
	jne	SHORT $LN252@parse_opti
	test	dx, dx
	je	SHORT $LN253@parse_opti
	mov	dx, WORD PTR [eax+2]
	cmp	dx, WORD PTR [ecx+2]
	jne	SHORT $LN252@parse_opti
	add	eax, 4
	add	ecx, 4
	test	dx, dx
	jne	SHORT $LL251@parse_opti
$LN253@parse_opti:
	xor	eax, eax
	jmp	SHORT $LN254@parse_opti
$LN252@parse_opti:
	sbb	eax, eax
	or	eax, 1
$LN254@parse_opti:
	test	eax, eax
	jne	SHORT $LN60@parse_opti
; Line 585
	mov	DWORD PTR ?opts@@3Ucli_options@@A+124, 4
; Line 586
	mov	DWORD PTR ?opts@@3Ucli_options@@A+128, eax
; Line 587
	jmp	$LN295@parse_opti
$LN60@parse_opti:
; Line 589
	mov	ecx, OFFSET ??_C@_1BA@IJIAEFLP@?$AAn?$AAo?$AAp?$AAa?$AAg?$AAe?$AAr?$AA?$AA@
	mov	eax, ebx
$LL255@parse_opti:
	mov	dx, WORD PTR [eax]
	cmp	dx, WORD PTR [ecx]
	jne	SHORT $LN256@parse_opti
	test	dx, dx
	je	SHORT $LN257@parse_opti
	mov	dx, WORD PTR [eax+2]
	cmp	dx, WORD PTR [ecx+2]
	jne	SHORT $LN256@parse_opti
	add	eax, 4
	add	ecx, 4
	test	dx, dx
	jne	SHORT $LL255@parse_opti
$LN257@parse_opti:
	xor	eax, eax
	jmp	SHORT $LN258@parse_opti
$LN256@parse_opti:
	sbb	eax, eax
	or	eax, 1
$LN258@parse_opti:
	test	eax, eax
	jne	SHORT $LN58@parse_opti
; Line 590
	call	DWORD PTR __imp____iob_func
	add	eax, 32					; 00000020H
; Line 591
	mov	DWORD PTR ?opts@@3Ucli_options@@A+200, 0
	mov	DWORD PTR ?out_fd@@3PAU_iobuf@@A, eax	; out_fd
; Line 592
	jmp	$LN295@parse_opti
$LN58@parse_opti:
; Line 594
	mov	ecx, OFFSET ??_C@_1M@NNGEIIHG@?$AAp?$AAa?$AAg?$AAe?$AAr?$AA?$AA@
	mov	eax, ebx
$LL259@parse_opti:
	mov	dx, WORD PTR [eax]
	cmp	dx, WORD PTR [ecx]
	jne	SHORT $LN260@parse_opti
	test	dx, dx
	je	SHORT $LN261@parse_opti
	mov	dx, WORD PTR [eax+2]
	cmp	dx, WORD PTR [ecx+2]
	jne	SHORT $LN260@parse_opti
	add	eax, 4
	add	ecx, 4
	test	dx, dx
	jne	SHORT $LL259@parse_opti
$LN261@parse_opti:
	xor	eax, eax
	jmp	SHORT $LN262@parse_opti
$LN260@parse_opti:
	sbb	eax, eax
	or	eax, 1
$LN262@parse_opti:
	test	eax, eax
	jne	SHORT $LN56@parse_opti
; Line 595
	mov	eax, DWORD PTR _optarg
	mov	DWORD PTR ?opts@@3Ucli_options@@A+200, eax
; Line 596
	jmp	$LN295@parse_opti
$LN56@parse_opti:
; Line 598
	mov	ecx, OFFSET ??_C@_1BA@KNIPCJJC@?$AAw?$AAo?$AAr?$AAk?$AAe?$AAr?$AAs?$AA?$AA@
	mov	eax, ebx
$LL263@parse_opti:
	mov	dx, WORD PTR [eax]
	cmp	dx, WORD PTR [ecx]
	jne	SHORT $LN264@parse_opti
	test	dx, dx
	je	SHORT $LN265@parse_opti
	mov	dx, WORD PTR [eax+2]
	cmp	dx, WORD PTR [ecx+2]
	jne	SHORT $LN264@parse_opti
	add	eax, 4
	add	ecx, 4
	test	dx, dx
	jne	SHORT $LL263@parse_opti
$LN265@parse_opti:
	xor	eax, eax
	jmp	SHORT $LN266@parse_opti
$LN264@parse_opti:
	sbb	eax, eax
	or	eax, 1
$LN266@parse_opti:
	test	eax, eax
	jne	SHORT $LN54@parse_opti
; Line 599
	push	DWORD PTR _optarg
	mov	esi, DWORD PTR __imp___wtoi
	call	esi
	add	esp, 4
	mov	DWORD PTR ?opts@@3Ucli_options@@A+224, eax
; Line 600
	jmp	$LN299@parse_opti
$LN54@parse_opti:
; Line 602
	mov	ecx, OFFSET ??_C@_1CE@ILBEIDOC@?$AAc?$AAo?$AAl?$AAo?$AAr?$AA?9?$AAl?$AAi?$AAn?$AAe?$AA?9?$AAn?$AAu?$AAm?$AAb?$AAe?$AAr?$AA?$AA@
	mov	eax, ebx
	npad	7
$LL267@parse_opti:
	mov	dx, WORD PTR [eax]
	cmp	dx, WORD PTR [ecx]
	jne	SHORT $LN268@parse_opti
	test	dx, dx
	je	SHORT $LN269@parse_opti
	mov	dx, WORD PTR [eax+2]
	cmp	dx, WORD PTR [ecx+2]
	jne	SHORT $LN268@parse_opti
	add	eax, 4
	add	ecx, 4
	test	dx, dx
	jne	SHORT $LL267@parse_opti
$LN269@parse_opti:
	xor	eax, eax
	jmp	SHORT $LN270@parse_opti
$LN268@parse_opti:
	sbb	eax, eax
	or	eax, 1
$LN270@parse_opti:
	test	eax, eax
	jne	SHORT $LN52@parse_opti
; Line 603
	push	DWORD PTR ?opts@@3Ucli_options@@A+44
	call	edi
	add	esp, 4
; Line 604
	push	DWORD PTR _optarg
	push	OFFSET ??_C@_1M@ENDIDBFO@?$AA?$BL?$AA?$FL?$AA?$CF?$AAs?$AAm?$AA?$AA@
	push	OFFSET ?opts@@3Ucli_options@@A+44
	call	?ag_asprintf@@YAXPAPA_WPB_WZZ		; ag_asprintf
	add	esp, 12					; 0000000cH
; Line 605
	jmp	$LN295@parse_opti
$LN52@parse_opti:
; Line 606
	mov	ecx, OFFSET ??_C@_1BI@FNIPDBJB@?$AAc?$AAo?$AAl?$AAo?$AAr?$AA?9?$AAm?$AAa?$AAt?$AAc?$AAh?$AA?$AA@
	mov	eax, ebx
	npad	2
$LL271@parse_opti:
	mov	dx, WORD PTR [eax]
	cmp	dx, WORD PTR [ecx]
	jne	SHORT $LN272@parse_opti
	test	dx, dx
	je	SHORT $LN273@parse_opti
	mov	dx, WORD PTR [eax+2]
	cmp	dx, WORD PTR [ecx+2]
	jne	SHORT $LN272@parse_opti
	add	eax, 4
	add	ecx, 4
	test	dx, dx
	jne	SHORT $LL271@parse_opti
$LN273@parse_opti:
	xor	eax, eax
	jmp	SHORT $LN274@parse_opti
$LN272@parse_opti:
	sbb	eax, eax
	or	eax, 1
$LN274@parse_opti:
	test	eax, eax
	jne	SHORT $LN50@parse_opti
; Line 607
	push	DWORD PTR ?opts@@3Ucli_options@@A+48
	call	edi
	add	esp, 4
; Line 608
	push	DWORD PTR _optarg
	push	OFFSET ??_C@_1M@ENDIDBFO@?$AA?$BL?$AA?$FL?$AA?$CF?$AAs?$AAm?$AA?$AA@
	push	OFFSET ?opts@@3Ucli_options@@A+48
	call	?ag_asprintf@@YAXPAPA_WPB_WZZ		; ag_asprintf
	add	esp, 12					; 0000000cH
; Line 609
	jmp	$LN295@parse_opti
$LN50@parse_opti:
; Line 611
	mov	ecx, OFFSET ??_C@_1BG@DKMLJBPI@?$AAc?$AAo?$AAl?$AAo?$AAr?$AA?9?$AAp?$AAa?$AAt?$AAh?$AA?$AA@
	mov	eax, ebx
	npad	2
$LL275@parse_opti:
	mov	dx, WORD PTR [eax]
	cmp	dx, WORD PTR [ecx]
	jne	SHORT $LN276@parse_opti
	test	dx, dx
	je	SHORT $LN277@parse_opti
	mov	dx, WORD PTR [eax+2]
	cmp	dx, WORD PTR [ecx+2]
	jne	SHORT $LN276@parse_opti
	add	eax, 4
	add	ecx, 4
	test	dx, dx
	jne	SHORT $LL275@parse_opti
$LN277@parse_opti:
	xor	eax, eax
	jmp	SHORT $LN278@parse_opti
$LN276@parse_opti:
	sbb	eax, eax
	or	eax, 1
$LN278@parse_opti:
	test	eax, eax
	jne	SHORT $LN48@parse_opti
; Line 612
	push	DWORD PTR ?opts@@3Ucli_options@@A+52
	call	edi
	add	esp, 4
; Line 613
	push	DWORD PTR _optarg
	push	OFFSET ??_C@_1M@ENDIDBFO@?$AA?$BL?$AA?$FL?$AA?$CF?$AAs?$AAm?$AA?$AA@
	push	OFFSET ?opts@@3Ucli_options@@A+52
	call	?ag_asprintf@@YAXPAPA_WPB_WZZ		; ag_asprintf
	add	esp, 12					; 0000000cH
; Line 614
	jmp	$LN295@parse_opti
$LN48@parse_opti:
; Line 616
	mov	ecx, OFFSET ??_C@_1O@IIMCFFPP@?$AAs?$AAi?$AAl?$AAe?$AAn?$AAt?$AA?$AA@
	mov	eax, ebx
	npad	2
$LL279@parse_opti:
	mov	dx, WORD PTR [eax]
	cmp	dx, WORD PTR [ecx]
	jne	SHORT $LN280@parse_opti
	test	dx, dx
	je	SHORT $LN281@parse_opti
	mov	dx, WORD PTR [eax+2]
	cmp	dx, WORD PTR [ecx+2]
	jne	SHORT $LN280@parse_opti
	add	eax, 4
	add	ecx, 4
	test	dx, dx
	jne	SHORT $LL279@parse_opti
$LN281@parse_opti:
	xor	eax, eax
	jmp	SHORT $LN282@parse_opti
$LN280@parse_opti:
	sbb	eax, eax
	or	eax, 1
$LN282@parse_opti:
	test	eax, eax
	jne	SHORT $LN46@parse_opti
; File i:\study\filescan\filescan\log.c
; Line 10
	mov	DWORD PTR _log_threshold, 100		; 00000064H
; File i:\study\filescan\filescan\options.c
; Line 618
	jmp	SHORT $LN295@parse_opti
$LN46@parse_opti:
; Line 622
	cmp	DWORD PTR [esi+8], 0
	jne	SHORT $LN295@parse_opti
; Line 626
	xor	edi, edi
	xor	esi, esi
$LL44@parse_opti:
; Line 627
	mov	ecx, DWORD PTR ?langs@@3PAUlang_spec_t@@A[esi]
	mov	eax, ebx
	npad	3
$LL283@parse_opti:
	mov	dx, WORD PTR [eax]
	cmp	dx, WORD PTR [ecx]
	jne	SHORT $LN284@parse_opti
	test	dx, dx
	je	SHORT $LN285@parse_opti
	mov	dx, WORD PTR [eax+2]
	cmp	dx, WORD PTR [ecx+2]
	jne	SHORT $LN284@parse_opti
	add	eax, 4
	add	ecx, 4
	test	dx, dx
	jne	SHORT $LL283@parse_opti
$LN285@parse_opti:
	xor	eax, eax
	jmp	SHORT $LN286@parse_opti
$LN284@parse_opti:
	sbb	eax, eax
	or	eax, 1
$LN286@parse_opti:
	test	eax, eax
	je	SHORT $LN208@parse_opti
; Line 626
	add	esi, 52					; 00000034H
	inc	edi
	cmp	esi, 4160				; 00001040H
	jb	SHORT $LL44@parse_opti
; File i:\study\filescan\filescan\util.c
; Line 28
	jmp	SHORT $LN42@parse_opti
$LN208@parse_opti:
; File i:\study\filescan\filescan\options.c
; Line 628
	mov	ecx, DWORD PTR _lang_num$1$[ebp]
	mov	eax, DWORD PTR _ptr$1$[ebp]
	mov	DWORD PTR [eax+ecx*4], edi
	inc	ecx
	mov	DWORD PTR _lang_num$1$[ebp], ecx
$LN42@parse_opti:
; Line 632
	cmp	edi, 80					; 00000050H
	je	$LN40@parse_opti
	mov	edi, DWORD PTR __imp__free
$LN295@parse_opti:
	mov	esi, DWORD PTR __imp___wtoi
$LN299@parse_opti:
	mov	ebx, DWORD PTR _ptr$1$[ebp]
$LN116@parse_opti:
; Line 427
	mov	edx, DWORD PTR _argv$GSCopy$1$[ebp]
	lea	eax, DWORD PTR _opt_index$[ebp]
	push	eax
	push	ebx
	push	ecx
	mov	ecx, DWORD PTR _argc$GSCopy$1$[ebp]
	call	_getopt_long
	add	esp, 12					; 0000000cH
	cmp	eax, -1
	jne	$LN301@parse_opti
$LN118@parse_opti:
; Line 644
	mov	eax, DWORD PTR _ptr$1$[ebp]
	cmp	DWORD PTR [eax], 0
	je	$LN37@parse_opti
; Line 645
	mov	edx, DWORD PTR _lang_num$1$[ebp]
	lea	ecx, DWORD PTR _extensions$[ebp]
	push	ecx
	mov	ecx, eax
	call	?combine_file_extensions@@YAIPAIIPAPA_W@Z ; combine_file_extensions
; Line 646
	mov	esi, DWORD PTR _extensions$[ebp]
	add	esp, 4
	mov	edx, eax
	mov	ecx, esi
	call	?make_lang_regex@@YAPA_WPA_WI@Z		; make_lang_regex
; File i:\study\filescan\pcre\pcre_compile.c
; Line 7755
	push	ecx
	lea	ecx, DWORD PTR _pcre_err_offset$3[ebp]
; File i:\study\filescan\filescan\options.c
; Line 646
	mov	DWORD PTR _lang_regex$1$[ebp], eax
; File i:\study\filescan\pcre\pcre_compile.c
; Line 7755
	push	ecx
	lea	ecx, DWORD PTR _pcre_err$4[ebp]
; File i:\study\filescan\filescan\util.c
; Line 264
	mov	DWORD PTR _pcre_err$4[ebp], 0
; File i:\study\filescan\pcre\pcre_compile.c
; Line 7755
	push	ecx
	push	ecx
	xor	edx, edx
; File i:\study\filescan\filescan\util.c
; Line 265
	mov	DWORD PTR _pcre_err_offset$3[ebp], 0
; File i:\study\filescan\pcre\pcre_compile.c
; Line 7755
	mov	ecx, eax
	call	_pcre16_compile2
	add	esp, 16					; 00000010H
; File i:\study\filescan\filescan\util.c
; Line 267
	mov	DWORD PTR ?opts@@3Ucli_options@@A+32, eax
; Line 268
	test	eax, eax
	jne	$LN159@parse_opti
	jmp	$LN307@parse_opti
$LN40@parse_opti:
; File i:\study\filescan\filescan\options.c
; Line 636
	mov	eax, DWORD PTR _opt_index$[ebp]
	mov	ecx, DWORD PTR _ptr$1$[ebp]
	add	eax, eax
	push	DWORD PTR [ecx+eax*8]
	push	OFFSET ??_C@_1EA@KHJKBPLA@?$AAo?$AAp?$AAt?$AAi?$AAo?$AAn?$AA?5?$AA?$CF?$AAs?$AA?5?$AAd?$AAo?$AAe?$AAs?$AA?5?$AAn?$AAo?$AAt?$AA?5?$AAt?$AAa?$AAk?$AAe?$AA?5?$AAa?$AA?5?$AAv?$AAa?$AAl?$AAu?$AAe?$AA?$AA@
	call	?log_err@@YAXPB_WZZ			; log_err
	add	esp, 8
$LN39@parse_opti:
; Line 97
	mov	esi, DWORD PTR __imp__printf
	push	OFFSET ??_C@_01EEMJAFIK@?6?$AA@
	call	esi
	add	esp, 4
; Line 98
	push	OFFSET ??_C@_0DB@GNJOEFFB@Usage?3?5ag?5?$FLFILE?9TYPE?$FN?5?$FLOPTIONS?$FN?5@
	call	esi
	add	esp, 4
; Line 100
	push	OFFSET ??_C@_0CL@FHIHDFEA@?5?5Recursively?5search?5for?5PATTERN@
	call	esi
	add	esp, 4
; Line 101
	push	OFFSET ??_C@_0CC@EJPHMHFA@?5?5Like?5grep?5or?5ack?0?5but?5faster?4?6@
	call	esi
	add	esp, 4
; Line 103
	push	OFFSET ??_C@_0BN@MDFHOCLL@Example?3?6?5?5ag?5?9i?5foo?5?1bar?1?6?6?$AA@
	call	esi
	add	esp, 4
; Line 118
	push	OFFSET ??_C@_0DBB@OCLLMNJD@Output?5Options?3?6?5?5?5?5?5?9?9ackmate?5?5@
	call	esi
	add	esp, 4
; Line 123
	push	OFFSET ??_C@_0KE@CKANMNHJ@?5?5?5?5?5?9?9color?9win?9ansi?5?5?5?5?5Use?5an@
	call	esi
	add	esp, 4
; Line 179
	push	OFFSET ??_C@_0MPB@JANJFJDE@?5?5?5?5?5?9?9column?5?5?5?5?5?5?5?5?5?5?5?5?5Print?5@
	call	esi
	add	esp, 4
; Line 186
	push	OFFSET ??_C@_0PA@FBGEGBEP@File?5Types?3?6The?5search?5can?5be?5re@
	call	esi
	add	esp, 4
; Line 639
	push	1
	call	DWORD PTR __imp__exit
$LN318@parse_opti:
$LN159@parse_opti:
; File i:\study\filescan\filescan\util.c
; Line 273
	lea	ecx, DWORD PTR _pcre_err$4[ebp]
	push	ecx
	mov	ecx, eax
	call	_pcre16_study
	add	esp, 4
	mov	DWORD PTR ?opts@@3Ucli_options@@A+36, eax
; Line 274
	test	eax, eax
	jne	SHORT $LN158@parse_opti
; Line 275
	push	DWORD PTR _pcre_err$4[ebp]
	push	OFFSET ??_C@_1FM@HOKKFDCC@?$AAp?$AAc?$AAr?$AAe?$AA_?$AAs?$AAt?$AAu?$AAd?$AAy?$AA?5?$AAr?$AAe?$AAt?$AAu?$AAr?$AAn?$AAe?$AAd?$AA?5?$AAn?$AAo?$AAt?$AAh?$AAi?$AAn?$AAg?$AA?5?$AAu?$AAs?$AAe?$AAf@
	call	?log_debug@@YAXPB_WZZ			; log_debug
	add	esp, 8
$LN158@parse_opti:
; File i:\study\filescan\filescan\options.c
; Line 650
	test	esi, esi
	je	SHORT $LN296@parse_opti
; Line 651
	push	esi
	call	edi
	add	esp, 4
$LN296@parse_opti:
	mov	eax, DWORD PTR _ptr$1$[ebp]
$LN37@parse_opti:
; Line 653
	push	eax
	call	edi
; Line 654
	mov	eax, DWORD PTR _lang_regex$1$[ebp]
	add	esp, 4
	test	eax, eax
	je	SHORT $LN36@parse_opti
; Line 655
	push	eax
	call	edi
	add	esp, 4
$LN36@parse_opti:
; Line 657
	push	ebx
	call	edi
; Line 659
	mov	eax, DWORD PTR _optind
	add	esp, 4
; Line 660
	mov	edx, DWORD PTR _argv$GSCopy$1$[ebp]
	mov	ecx, DWORD PTR _argc$GSCopy$1$[ebp]
	sub	ecx, eax
	mov	DWORD PTR _argc$GSCopy$1$[ebp], ecx
	lea	edi, DWORD PTR [edx+eax*4]
; Line 662
	mov	eax, DWORD PTR ?opts@@3Ucli_options@@A+20
	test	eax, eax
	mov	DWORD PTR _argv$GSCopy$2$[ebp], edi
	mov	edx, 3
	cmove	eax, edx
	mov	DWORD PTR ?opts@@3Ucli_options@@A+20, eax
; Line 666
	mov	eax, DWORD PTR ?opts@@3Ucli_options@@A+200
	test	eax, eax
	je	SHORT $LN33@parse_opti
; Line 667
	push	OFFSET ??_C@_13CIFDLIMG@?$AAw?$AA?$AA@
	push	eax
	call	DWORD PTR __imp___wpopen
	add	esp, 8
	mov	DWORD PTR ?out_fd@@3PAU_iobuf@@A, eax	; out_fd
; Line 668
	test	eax, eax
	jne	SHORT $LN291@parse_opti
; Line 669
	push	OFFSET ??_C@_0BE@PMEDBIFB@Failed?5to?5run?5pager?$AA@
	call	DWORD PTR __imp__perror
	add	esp, 4
; Line 670
	push	1
	call	DWORD PTR __imp__exit
$LN319@parse_opti:
$LN291@parse_opti:
	mov	ecx, DWORD PTR _argc$GSCopy$1$[ebp]
$LN33@parse_opti:
; Line 674
	cmp	DWORD PTR _help$1$[ebp], 0
	je	SHORT $LN32@parse_opti
; Line 97
	mov	esi, DWORD PTR __imp__printf
	push	OFFSET ??_C@_01EEMJAFIK@?6?$AA@
	call	esi
	add	esp, 4
; Line 98
	push	OFFSET ??_C@_0DB@GNJOEFFB@Usage?3?5ag?5?$FLFILE?9TYPE?$FN?5?$FLOPTIONS?$FN?5@
	call	esi
	add	esp, 4
; Line 100
	push	OFFSET ??_C@_0CL@FHIHDFEA@?5?5Recursively?5search?5for?5PATTERN@
	call	esi
	add	esp, 4
; Line 101
	push	OFFSET ??_C@_0CC@EJPHMHFA@?5?5Like?5grep?5or?5ack?0?5but?5faster?4?6@
	call	esi
	add	esp, 4
; Line 103
	push	OFFSET ??_C@_0BN@MDFHOCLL@Example?3?6?5?5ag?5?9i?5foo?5?1bar?1?6?6?$AA@
	call	esi
	add	esp, 4
; Line 118
	push	OFFSET ??_C@_0DBB@OCLLMNJD@Output?5Options?3?6?5?5?5?5?5?9?9ackmate?5?5@
	call	esi
	add	esp, 4
; Line 123
	push	OFFSET ??_C@_0KE@CKANMNHJ@?5?5?5?5?5?9?9color?9win?9ansi?5?5?5?5?5Use?5an@
	call	esi
	add	esp, 4
; Line 179
	push	OFFSET ??_C@_0MPB@JANJFJDE@?5?5?5?5?5?9?9column?5?5?5?5?5?5?5?5?5?5?5?5?5Print?5@
	call	esi
	add	esp, 4
; Line 186
	push	OFFSET ??_C@_0PA@FBGEGBEP@File?5Types?3?6The?5search?5can?5be?5re@
	call	esi
	add	esp, 4
; Line 676
	push	0
	call	DWORD PTR __imp__exit
$LN320@parse_opti:
$LN32@parse_opti:
; Line 679
	cmp	DWORD PTR _version$[ebp], 0
	je	SHORT $LN31@parse_opti
; Line 204
	mov	esi, DWORD PTR __imp__printf
	push	OFFSET ??_C@_06KKAGMMLF@0?418?41?$AA@
	push	OFFSET ??_C@_0BA@CDBLICEJ@ag?5version?5?$CFs?6?6?$AA@
	call	esi
; Line 205
	push	OFFSET ??_C@_0L@PNLIHEMD@Features?3?6?$AA@
	call	esi
	add	esp, 12					; 0000000cH
; Line 206
	push	45					; 0000002dH
	push	45					; 0000002dH
	push	45					; 0000002dH
	push	OFFSET ??_C@_0BH@KIMOEOBH@?5?5?$CFcjit?5?$CFclzma?5?$CFczlib?6?$AA@
	call	esi
	add	esp, 16					; 00000010H
; Line 681
	push	0
	call	DWORD PTR __imp__exit
$LN321@parse_opti:
$LN31@parse_opti:
; Line 684
	cmp	DWORD PTR _list_file_types$[ebp], 0
	je	SHORT $LN30@parse_opti
; Line 686
	mov	ebx, DWORD PTR __imp__wprintf
	push	OFFSET ??_C@_1FC@GBLPHMKM@?$AAT?$AAh?$AAe?$AA?5?$AAf?$AAo?$AAl?$AAl?$AAo?$AAw?$AAi?$AAn?$AAg?$AA?5?$AAf?$AAi?$AAl?$AAe?$AA?5?$AAt?$AAy?$AAp?$AAe?$AAs?$AA?5?$AAa?$AAr?$AAe?$AA?5?$AAs?$AAu?$AAp@
	call	ebx
	mov	esi, OFFSET ?langs@@3PAUlang_spec_t@@A+4
	mov	DWORD PTR tv2275[ebp], 80		; 00000050H
	add	esp, 4
	mov	DWORD PTR tv2186[ebp], esi
$LL29@parse_opti:
; Line 688
	push	DWORD PTR [esi-4]
	push	OFFSET ??_C@_1BI@CINNGLAB@?$AA?5?$AA?5?$AA?9?$AA?9?$AA?$CF?$AAs?$AA?6?$AA?5?$AA?5?$AA?5?$AA?5?$AA?$AA@
	call	ebx
	add	esp, 8
; Line 690
	xor	edi, edi
$LL26@parse_opti:
	mov	eax, DWORD PTR [esi]
	test	eax, eax
	je	SHORT $LN24@parse_opti
; Line 691
	push	eax
	push	OFFSET ??_C@_1M@BBFBAKCL@?$AA?5?$AA?5?$AA?4?$AA?$CF?$AAs?$AA?$AA@
	call	ebx
	inc	edi
	add	esp, 8
	add	esi, 4
	cmp	edi, 12					; 0000000cH
	jl	SHORT $LL26@parse_opti
$LN24@parse_opti:
; Line 693
	push	OFFSET ??_C@_15IABLJNFO@?$AA?6?$AA?6?$AA?$AA@
	call	ebx
	mov	esi, DWORD PTR tv2186[ebp]
	add	esp, 4
	add	esi, 52					; 00000034H
	dec	DWORD PTR tv2275[ebp]
	mov	DWORD PTR tv2186[ebp], esi
	jne	SHORT $LL29@parse_opti
; Line 695
	push	0
	call	DWORD PTR __imp__exit
$LN322@parse_opti:
$LN30@parse_opti:
; Line 698
	cmp	DWORD PTR _needs_query$1$[ebp], 0
	je	SHORT $LN23@parse_opti
	test	ecx, ecx
	jne	SHORT $LN23@parse_opti
; Line 699
	push	OFFSET ??_C@_1EA@LCMMDMOI@?$AAW?$AAh?$AAa?$AAt?$AA?5?$AAd?$AAo?$AA?5?$AAy?$AAo?$AAu?$AA?5?$AAw?$AAa?$AAn?$AAt?$AA?5?$AAt?$AAo?$AA?5?$AAs?$AAe?$AAa?$AAr?$AAc?$AAh?$AA?5?$AAf?$AAo?$AAr?$AA?$DP?$AA?$AA@
	call	?log_err@@YAXPB_WZZ			; log_err
	add	esp, 4
; Line 700
	push	1
	call	DWORD PTR __imp__exit
$LN323@parse_opti:
$LN23@parse_opti:
; Line 703
	mov	ebx, DWORD PTR _home_dir$1$[ebp]
	test	ebx, ebx
	je	SHORT $LN293@parse_opti
	cmp	DWORD PTR ?opts@@3Ucli_options@@A+152, 0
	jne	SHORT $LN293@parse_opti
; Line 704
	push	ebx
	push	OFFSET ??_C@_1DE@BAHLGLGD@?$AAF?$AAo?$AAu?$AAn?$AAd?$AA?5?$AAu?$AAs?$AAe?$AAr?$AA?8?$AAs?$AA?5?$AAh?$AAo?$AAm?$AAe?$AA?5?$AAd?$AAi?$AAr?$AA?3?$AA?5?$AA?$CF?$AAs?$AA?$AA@
	call	?log_debug@@YAXPB_WZZ			; log_debug
; Line 705
	push	DWORD PTR ?ignore_pattern_files@@3PAPB_WA
	lea	eax, DWORD PTR _ignore_file_path$[ebp]
	push	ebx
	push	OFFSET ??_C@_1M@BHHLEAOO@?$AA?$CF?$AAs?$AA?1?$AA?$CF?$AAs?$AA?$AA@
	push	eax
	call	?ag_asprintf@@YAXPAPA_WPB_WZZ		; ag_asprintf
; Line 706
	mov	esi, DWORD PTR _ignore_file_path$[ebp]
	mov	edx, esi
	mov	ecx, DWORD PTR ?root_ignores@@3PAUignores@@A ; root_ignores
	call	?load_ignore_patterns@@YAXPAUignores@@PB_W@Z ; load_ignore_patterns
; Line 707
	mov	ebx, DWORD PTR __imp__free
	push	esi
	call	ebx
	add	esp, 28					; 0000001cH
	jmp	SHORT $LN22@parse_opti
$LN293@parse_opti:
	mov	ebx, DWORD PTR __imp__free
$LN22@parse_opti:
; Line 710
	cmp	DWORD PTR ?opts@@3Ucli_options@@A+156, 0
	jne	SHORT $LN21@parse_opti
; Line 716
	call	?read_program_out@@YAPA_WPA_W@Z		; read_program_out
	mov	esi, eax
; Line 717
	test	esi, esi
	je	SHORT $LN20@parse_opti
; Line 718
	mov	ecx, DWORD PTR ?root_ignores@@3PAUignores@@A ; root_ignores
	mov	edx, esi
	call	?load_ignore_patterns@@YAXPAUignores@@PB_W@Z ; load_ignore_patterns
$LN20@parse_opti:
; Line 719
	push	esi
	call	ebx
	add	esp, 4
$LN21@parse_opti:
; Line 741
	mov	eax, DWORD PTR ?opts@@3Ucli_options@@A+64
	test	eax, eax
	jle	SHORT $LN19@parse_opti
; Line 742
	mov	DWORD PTR ?opts@@3Ucli_options@@A+16, eax
; Line 743
	mov	DWORD PTR ?opts@@3Ucli_options@@A+12, eax
$LN19@parse_opti:
; Line 746
	cmp	DWORD PTR ?opts@@3Ucli_options@@A, 0
	je	SHORT $LN289@parse_opti
; Line 748
	mov	eax, 1
	mov	DWORD PTR ?opts@@3Ucli_options@@A+40, 0
; Line 749
	mov	ecx, eax
	mov	DWORD PTR ?opts@@3Ucli_options@@A+112, eax
; Line 750
	xor	edx, edx
	mov	DWORD PTR _group$[ebp], ecx
	mov	DWORD PTR ?opts@@3Ucli_options@@A+172, edx
	jmp	SHORT $LN18@parse_opti
$LN289@parse_opti:
	mov	ecx, DWORD PTR _group$[ebp]
	mov	edx, DWORD PTR ?opts@@3Ucli_options@@A+172
	mov	eax, DWORD PTR ?opts@@3Ucli_options@@A+112
$LN18@parse_opti:
; Line 753
	cmp	DWORD PTR ?opts@@3Ucli_options@@A+216, 0
	je	SHORT $LN17@parse_opti
; Line 754
	mov	DWORD PTR ?opts@@3Ucli_options@@A+40, 0
; Line 756
	mov	DWORD PTR _group$[ebp], 1
; Line 757
	mov	DWORD PTR ?opts@@3Ucli_options@@A+172, 0
; Line 761
	jmp	SHORT $LN302@parse_opti
$LN17@parse_opti:
	cmp	DWORD PTR ?opts@@3Ucli_options@@A+124, 0
	jne	SHORT $LN14@parse_opti
	test	eax, eax
	je	SHORT $LN14@parse_opti
; Line 762
	test	ecx, ecx
	je	SHORT $LN15@parse_opti
; Line 763
	mov	DWORD PTR ?opts@@3Ucli_options@@A+112, 1
; Line 764
	jmp	SHORT $LN14@parse_opti
$LN15@parse_opti:
; Line 765
	mov	DWORD PTR ?opts@@3Ucli_options@@A+124, 1
; Line 766
	mov	DWORD PTR ?opts@@3Ucli_options@@A+112, 0
$LN14@parse_opti:
; Line 770
	test	edx, edx
	je	SHORT $LN12@parse_opti
; Line 773
	mov	eax, DWORD PTR ?opts@@3Ucli_options@@A+128
	xor	ecx, ecx
	cmp	eax, 2
	cmovne	eax, ecx
	mov	DWORD PTR ?opts@@3Ucli_options@@A+128, eax
$LN302@parse_opti:
; Line 771
	mov	DWORD PTR ?opts@@3Ucli_options@@A+124, 4
	mov	DWORD PTR ?opts@@3Ucli_options@@A+112, 0
$LN12@parse_opti:
; Line 778
	cmp	DWORD PTR _accepts_query$1$[ebp], 0
	mov	ebx, DWORD PTR __imp___wcsdup
	je	SHORT $LN11@parse_opti
	mov	esi, DWORD PTR _argc$GSCopy$1$[ebp]
	test	esi, esi
	jle	SHORT $LN11@parse_opti
; File i:\study\filescan\filescan\util.c
; Line 42
	push	DWORD PTR [edi]
	call	ebx
	mov	edx, eax
	add	esp, 4
; Line 43
	test	edx, edx
	je	$LN308@parse_opti
; File i:\study\filescan\filescan\options.c
; Line 780
	dec	esi
	mov	DWORD PTR ?opts@@3Ucli_options@@A+192, edx
; Line 782
	add	edi, 4
	mov	DWORD PTR _argc$GSCopy$1$[ebp], esi
	mov	DWORD PTR _argv$GSCopy$2$[ebp], edi
	jmp	SHORT $LN9@parse_opti
$LN11@parse_opti:
; Line 783
	cmp	DWORD PTR _needs_query$1$[ebp], 0
	jne	SHORT $LN290@parse_opti
; File i:\study\filescan\filescan\util.c
; Line 42
	push	OFFSET ??_C@_13JOFGPIOO@?$AA?4?$AA?$AA@
	call	ebx
	mov	edx, eax
	add	esp, 4
; Line 43
	test	edx, edx
	je	$LN309@parse_opti
; File i:\study\filescan\filescan\options.c
; Line 785
	mov	DWORD PTR ?opts@@3Ucli_options@@A+192, edx
	jmp	SHORT $LN9@parse_opti
$LN290@parse_opti:
	mov	edx, DWORD PTR ?opts@@3Ucli_options@@A+192
$LN9@parse_opti:
; Line 787
	mov	ecx, edx
	lea	esi, DWORD PTR [ecx+2]
$LL287@parse_opti:
	mov	ax, WORD PTR [ecx]
	add	ecx, 2
	test	ax, ax
	jne	SHORT $LL287@parse_opti
	sub	ecx, esi
; Line 789
	push	edx
	sar	ecx, 1
	push	OFFSET ??_C@_1BI@FMFAFCIA@?$AAQ?$AAu?$AAe?$AAr?$AAy?$AA?5?$AAi?$AAs?$AA?5?$AA?$CF?$AAs?$AA?$AA@
	mov	DWORD PTR ?opts@@3Ucli_options@@A+196, ecx
	call	?log_debug@@YAXPB_WZZ			; log_debug
	add	esp, 8
; Line 791
	cmp	DWORD PTR ?opts@@3Ucli_options@@A+196, 0
	jne	SHORT $LN8@parse_opti
; Line 792
	push	OFFSET ??_C@_1GC@DKKFLBP@?$AAE?$AAr?$AAr?$AAo?$AAr?$AA?3?$AA?5?$AAN?$AAo?$AA?5?$AAq?$AAu?$AAe?$AAr?$AAy?$AA?4?$AA?5?$AAW?$AAh?$AAa?$AAt?$AA?5?$AAd?$AAo?$AA?5?$AAy?$AAo?$AAu?$AA?5?$AAw?$AAa?$AAn@
	call	?log_err@@YAXPB_WZZ			; log_err
	add	esp, 4
; Line 793
	push	1
	call	DWORD PTR __imp__exit
$LN324@parse_opti:
$LN8@parse_opti:
; File i:\study\filescan\filescan\util.c
; Line 350
	xor	eax, eax
	mov	DWORD PTR _regex_chars$5[ebp], 2621476	; 00280024H
	mov	WORD PTR _regex_chars$5[ebp+24], ax
; Line 352
	lea	eax, DWORD PTR _regex_chars$5[ebp]
	push	eax
	push	DWORD PTR ?opts@@3Ucli_options@@A+192
	mov	DWORD PTR _regex_chars$5[ebp+4], 2752553 ; 002a0029H
	mov	DWORD PTR _regex_chars$5[ebp+8], 3014699 ; 002e002bH
	mov	DWORD PTR _regex_chars$5[ebp+12], 5963839 ; 005b003fH
	mov	DWORD PTR _regex_chars$5[ebp+16], 6160476 ; 005e005cH
	mov	DWORD PTR _regex_chars$5[ebp+20], 8126587 ; 007c007bH
	call	DWORD PTR __imp__wcspbrk
; File i:\study\filescan\filescan\options.c
; Line 796
	mov	ecx, DWORD PTR ?opts@@3Ucli_options@@A+76
; File i:\study\filescan\filescan\util.c
; Line 352
	add	esp, 8
	test	eax, eax
; File i:\study\filescan\filescan\options.c
; Line 796
	mov	edx, 1
; Line 802
	mov	eax, DWORD PTR _argc$GSCopy$1$[ebp]
	cmove	ecx, edx
	mov	DWORD PTR ?opts@@3Ucli_options@@A+204, eax
	mov	DWORD PTR ?opts@@3Ucli_options@@A+76, ecx
; Line 803
	test	eax, eax
	jle	$LN6@parse_opti
; File i:\study\filescan\filescan\util.c
; Line 37
	mov	edi, DWORD PTR __imp__calloc
; File i:\study\filescan\filescan\options.c
; Line 804
	lea	esi, DWORD PTR [eax+1]
; File i:\study\filescan\filescan\util.c
; Line 37
	push	esi
	push	4
	call	edi
	add	esp, 8
; Line 38
	test	eax, eax
	je	$LN310@parse_opti
; File i:\study\filescan\filescan\options.c
; Line 804
	mov	ecx, DWORD PTR _paths$GSCopy$1$[ebp]
; File i:\study\filescan\filescan\util.c
; Line 37
	push	esi
	push	4
; File i:\study\filescan\filescan\options.c
; Line 804
	mov	DWORD PTR [ecx], eax
; File i:\study\filescan\filescan\util.c
; Line 37
	call	edi
	add	esp, 8
; Line 38
	test	eax, eax
	je	$LN311@parse_opti
; File i:\study\filescan\filescan\options.c
; Line 806
	mov	edx, DWORD PTR _base_paths$GSCopy$1$[ebp]
	xor	edi, edi
	mov	DWORD PTR [edx], eax
	cmp	DWORD PTR _argc$GSCopy$1$[ebp], edi
	jbe	$LN3@parse_opti
$LL5@parse_opti:
; File i:\study\filescan\filescan\util.c
; Line 42
	mov	eax, DWORD PTR _argv$GSCopy$2$[ebp]
	push	DWORD PTR [eax+edi*4]
	call	ebx
	mov	esi, eax
	add	esp, 4
; Line 43
	test	esi, esi
	je	$LN303@parse_opti
; File i:\study\filescan\filescan\options.c
; Line 808
	mov	ecx, esi
	lea	edx, DWORD PTR [ecx+2]
	npad	4
$LL288@parse_opti:
	mov	ax, WORD PTR [ecx]
	add	ecx, 2
	test	ax, ax
	jne	SHORT $LL288@parse_opti
	sub	ecx, edx
	sar	ecx, 1
; Line 810
	cmp	ecx, 1
	jle	SHORT $LN2@parse_opti
	cmp	WORD PTR [esi+ecx*2-2], 47		; 0000002fH
	jne	SHORT $LN2@parse_opti
; Line 811
	xor	eax, eax
	mov	WORD PTR [esi+ecx*2-2], ax
$LN2@parse_opti:
; Line 813
	mov	eax, DWORD PTR _paths$GSCopy$1$[ebp]
; File i:\study\filescan\filescan\util.c
; Line 27
	push	1024					; 00000400H
; File i:\study\filescan\filescan\options.c
; Line 813
	mov	eax, DWORD PTR [eax]
	mov	DWORD PTR [eax+edi*4], esi
; File i:\study\filescan\filescan\util.c
; Line 27
	call	DWORD PTR __imp__malloc
	add	esp, 4
; Line 28
	test	eax, eax
	je	$LN303@parse_opti
; File i:\study\filescan\filescan\options.c
; Line 815
	mov	edx, eax
	mov	ecx, esi
	call	?realpath@@YAPA_WPB_WPA_W@Z		; realpath
	mov	edx, DWORD PTR _base_paths$GSCopy$1$[ebp]
	mov	ecx, DWORD PTR [edx]
	mov	DWORD PTR [ecx+edi*4], eax
	inc	edi
	cmp	edi, DWORD PTR _argc$GSCopy$1$[ebp]
	jb	SHORT $LL5@parse_opti
$LN3@parse_opti:
; Line 818
	mov	DWORD PTR ?opts@@3Ucli_options@@A+172, 0
	jmp	SHORT $LN1@parse_opti
$LN6@parse_opti:
; File i:\study\filescan\filescan\util.c
; Line 42
	push	OFFSET ??_C@_13JOFGPIOO@?$AA?4?$AA?$AA@
	call	ebx
	mov	esi, eax
	add	esp, 4
; Line 43
	test	esi, esi
	je	$LN312@parse_opti
; Line 27
	mov	ebx, DWORD PTR __imp__malloc
	push	8
	call	ebx
	add	esp, 4
; Line 28
	test	eax, eax
	je	$LN313@parse_opti
; File i:\study\filescan\filescan\options.c
; Line 821
	mov	edi, DWORD PTR _paths$GSCopy$1$[ebp]
; File i:\study\filescan\filescan\util.c
; Line 27
	push	8
; File i:\study\filescan\filescan\options.c
; Line 821
	mov	DWORD PTR [edi], eax
; File i:\study\filescan\filescan\util.c
; Line 27
	call	ebx
	add	esp, 4
; Line 28
	test	eax, eax
	je	$LN314@parse_opti
; File i:\study\filescan\filescan\options.c
; Line 822
	mov	ecx, DWORD PTR _base_paths$GSCopy$1$[ebp]
; File i:\study\filescan\filescan\util.c
; Line 27
	push	1024					; 00000400H
; File i:\study\filescan\filescan\options.c
; Line 822
	mov	DWORD PTR [ecx], eax
; Line 823
	mov	eax, DWORD PTR [edi]
	mov	DWORD PTR [eax], esi
; File i:\study\filescan\filescan\util.c
; Line 27
	call	ebx
	add	esp, 4
; Line 28
	test	eax, eax
	je	$LN315@parse_opti
; File i:\study\filescan\filescan\options.c
; Line 825
	mov	edx, eax
	mov	ecx, esi
	call	?realpath@@YAPA_WPB_WPA_W@Z		; realpath
	mov	edx, DWORD PTR _base_paths$GSCopy$1$[ebp]
; Line 826
	mov	edi, 1
	mov	ecx, DWORD PTR [edx]
	mov	DWORD PTR [ecx], eax
$LN1@parse_opti:
; Line 828
	mov	eax, DWORD PTR _paths$GSCopy$1$[ebp]
; Line 834
	mov	ecx, DWORD PTR __$ArrayPad$[ebp]
	xor	ecx, ebp
	mov	eax, DWORD PTR [eax]
	mov	DWORD PTR [eax+edi*4], 0
	mov	eax, DWORD PTR [edx]
	mov	DWORD PTR [eax+edi*4], 0
; File i:\study\filescan\filescan\print_w32.c
; Line 30
	mov	eax, DWORD PTR ?opts@@3Ucli_options@@A+56
; File i:\study\filescan\filescan\options.c
; Line 834
	pop	edi
	pop	esi
; File i:\study\filescan\filescan\print_w32.c
; Line 30
	mov	DWORD PTR _g_use_ansi, eax
; File i:\study\filescan\filescan\options.c
; Line 834
	pop	ebx
	call	@__security_check_cookie@4
	mov	esp, ebp
	pop	ebp
	ret	0
$LN303@parse_opti:
; File i:\study\filescan\filescan\util.c
; Line 28
	push	OFFSET ??_C@_1DE@PGDGFCEA@?$AAM?$AAe?$AAm?$AAo?$AAr?$AAy?$AA?5?$AAa?$AAl?$AAl?$AAo?$AAc?$AAa?$AAt?$AAi?$AAo?$AAn?$AA?5?$AAf?$AAa?$AAi?$AAl?$AAe?$AAd?$AA?4?$AA?$AA@
	call	?die@@YAXPB_WZZ				; die
$LN325@parse_opti:
$LN305@parse_opti:
	push	OFFSET ??_C@_1DE@PGDGFCEA@?$AAM?$AAe?$AAm?$AAo?$AAr?$AAy?$AA?5?$AAa?$AAl?$AAl?$AAo?$AAc?$AAa?$AAt?$AAi?$AAo?$AAn?$AA?5?$AAf?$AAa?$AAi?$AAl?$AAe?$AAd?$AA?4?$AA?$AA@
	call	?die@@YAXPB_WZZ				; die
$LN326@parse_opti:
$LN306@parse_opti:
; File i:\study\filescan\filescan\options.c
; Line 421
	push	OFFSET ??_C@_1DA@NALEGOGH@?$AAE?$AAr?$AAr?$AAo?$AAr?$AA?5?$AAf?$AAs?$AAt?$AAa?$AAt?$AA?$CI?$AA?$CJ?$AAi?$AAn?$AAg?$AA?5?$AAs?$AAt?$AAd?$AAo?$AAu?$AAt?$AA?$AA@
	call	?die@@YAXPB_WZZ				; die
$LN327@parse_opti:
$LN307@parse_opti:
; File i:\study\filescan\filescan\util.c
; Line 271
	push	DWORD PTR _pcre_err$4[ebp]
	push	DWORD PTR _pcre_err_offset$3[ebp]
	push	OFFSET ??_C@_1OA@EHILIGIC@?$AAB?$AAa?$AAd?$AA?5?$AAr?$AAe?$AAg?$AAe?$AAx?$AA?$CB?$AA?5?$AAp?$AAc?$AAr?$AAe?$AA_?$AAc?$AAo?$AAm?$AAp?$AAi?$AAl?$AAe?$AA?$CI?$AA?$CJ?$AA?5?$AAf?$AAa?$AAi?$AAl?$AAe?$AAd@
	call	?die@@YAXPB_WZZ				; die
$LN328@parse_opti:
$LN209@parse_opti:
	push	DWORD PTR _pcre_err$2[ebp]
	push	DWORD PTR _pcre_err_offset$1[ebp]
	push	OFFSET ??_C@_1OA@EHILIGIC@?$AAB?$AAa?$AAd?$AA?5?$AAr?$AAe?$AAg?$AAe?$AAx?$AA?$CB?$AA?5?$AAp?$AAc?$AAr?$AAe?$AA_?$AAc?$AAo?$AAm?$AAp?$AAi?$AAl?$AAe?$AA?$CI?$AA?$CJ?$AA?5?$AAf?$AAa?$AAi?$AAl?$AAe?$AAd@
	call	?die@@YAXPB_WZZ				; die
$LN329@parse_opti:
$LN308@parse_opti:
; Line 43
	push	OFFSET ??_C@_1DE@PGDGFCEA@?$AAM?$AAe?$AAm?$AAo?$AAr?$AAy?$AA?5?$AAa?$AAl?$AAl?$AAo?$AAc?$AAa?$AAt?$AAi?$AAo?$AAn?$AA?5?$AAf?$AAa?$AAi?$AAl?$AAe?$AAd?$AA?4?$AA?$AA@
	call	?die@@YAXPB_WZZ				; die
$LN330@parse_opti:
$LN309@parse_opti:
	push	OFFSET ??_C@_1DE@PGDGFCEA@?$AAM?$AAe?$AAm?$AAo?$AAr?$AAy?$AA?5?$AAa?$AAl?$AAl?$AAo?$AAc?$AAa?$AAt?$AAi?$AAo?$AAn?$AA?5?$AAf?$AAa?$AAi?$AAl?$AAe?$AAd?$AA?4?$AA?$AA@
	call	?die@@YAXPB_WZZ				; die
$LN331@parse_opti:
$LN310@parse_opti:
; Line 38
	push	OFFSET ??_C@_1DE@PGDGFCEA@?$AAM?$AAe?$AAm?$AAo?$AAr?$AAy?$AA?5?$AAa?$AAl?$AAl?$AAo?$AAc?$AAa?$AAt?$AAi?$AAo?$AAn?$AA?5?$AAf?$AAa?$AAi?$AAl?$AAe?$AAd?$AA?4?$AA?$AA@
	call	?die@@YAXPB_WZZ				; die
$LN332@parse_opti:
$LN311@parse_opti:
	push	OFFSET ??_C@_1DE@PGDGFCEA@?$AAM?$AAe?$AAm?$AAo?$AAr?$AAy?$AA?5?$AAa?$AAl?$AAl?$AAo?$AAc?$AAa?$AAt?$AAi?$AAo?$AAn?$AA?5?$AAf?$AAa?$AAi?$AAl?$AAe?$AAd?$AA?4?$AA?$AA@
	call	?die@@YAXPB_WZZ				; die
$LN333@parse_opti:
$LN312@parse_opti:
; Line 43
	push	OFFSET ??_C@_1DE@PGDGFCEA@?$AAM?$AAe?$AAm?$AAo?$AAr?$AAy?$AA?5?$AAa?$AAl?$AAl?$AAo?$AAc?$AAa?$AAt?$AAi?$AAo?$AAn?$AA?5?$AAf?$AAa?$AAi?$AAl?$AAe?$AAd?$AA?4?$AA?$AA@
	call	?die@@YAXPB_WZZ				; die
$LN334@parse_opti:
$LN313@parse_opti:
; Line 28
	push	OFFSET ??_C@_1DE@PGDGFCEA@?$AAM?$AAe?$AAm?$AAo?$AAr?$AAy?$AA?5?$AAa?$AAl?$AAl?$AAo?$AAc?$AAa?$AAt?$AAi?$AAo?$AAn?$AA?5?$AAf?$AAa?$AAi?$AAl?$AAe?$AAd?$AA?4?$AA?$AA@
	call	?die@@YAXPB_WZZ				; die
$LN335@parse_opti:
$LN314@parse_opti:
	push	OFFSET ??_C@_1DE@PGDGFCEA@?$AAM?$AAe?$AAm?$AAo?$AAr?$AAy?$AA?5?$AAa?$AAl?$AAl?$AAo?$AAc?$AAa?$AAt?$AAi?$AAo?$AAn?$AA?5?$AAf?$AAa?$AAi?$AAl?$AAe?$AAd?$AA?4?$AA?$AA@
	call	?die@@YAXPB_WZZ				; die
$LN336@parse_opti:
$LN315@parse_opti:
	push	OFFSET ??_C@_1DE@PGDGFCEA@?$AAM?$AAe?$AAm?$AAo?$AAr?$AAy?$AA?5?$AAa?$AAl?$AAl?$AAo?$AAc?$AAa?$AAt?$AAi?$AAo?$AAn?$AA?5?$AAf?$AAa?$AAi?$AAl?$AAe?$AAd?$AA?4?$AA?$AA@
	call	?die@@YAXPB_WZZ				; die
$LN337@parse_opti:
$LN298@parse_opti:
$LN316@parse_opti:
; File i:\study\filescan\filescan\options.c
; Line 834
	DD	$LN71@parse_opti
	DD	$LN72@parse_opti
	DD	$LN115@parse_opti
	DD	$LN109@parse_opti
	DD	$LN104@parse_opti
	DD	$LN98@parse_opti
	DD	$LN83@parse_opti
	DD	$LN95@parse_opti
	DD	$LN92@parse_opti
	DD	$LN89@parse_opti
	DD	$LN82@parse_opti
	DD	$LN81@parse_opti
	DD	$LN77@parse_opti
	DD	$LN75@parse_opti
	DD	$LN110@parse_opti
	DD	$LN99@parse_opti
	DD	$LN97@parse_opti
	DD	$LN96@parse_opti
	DD	$LN91@parse_opti
	DD	$LN90@parse_opti
	DD	$LN88@parse_opti
	DD	$LN87@parse_opti
	DD	$LN86@parse_opti
	DD	$LN84@parse_opti
	DD	$LN85@parse_opti
	DD	$LN80@parse_opti
	DD	$LN79@parse_opti
	DD	$LN78@parse_opti
	DD	$LN76@parse_opti
	DD	$LN74@parse_opti
	DD	$LN73@parse_opti
	DD	$LN39@parse_opti
$LN230@parse_opti:
	DB	0
	DB	31					; 0000001fH
	DB	31					; 0000001fH
	DB	31					; 0000001fH
	DB	31					; 0000001fH
	DB	31					; 0000001fH
	DB	31					; 0000001fH
	DB	31					; 0000001fH
	DB	31					; 0000001fH
	DB	31					; 0000001fH
	DB	31					; 0000001fH
	DB	31					; 0000001fH
	DB	31					; 0000001fH
	DB	31					; 0000001fH
	DB	31					; 0000001fH
	DB	31					; 0000001fH
	DB	31					; 0000001fH
	DB	31					; 0000001fH
	DB	31					; 0000001fH
	DB	31					; 0000001fH
	DB	31					; 0000001fH
	DB	31					; 0000001fH
	DB	31					; 0000001fH
	DB	31					; 0000001fH
	DB	31					; 0000001fH
	DB	31					; 0000001fH
	DB	31					; 0000001fH
	DB	31					; 0000001fH
	DB	31					; 0000001fH
	DB	31					; 0000001fH
	DB	31					; 0000001fH
	DB	31					; 0000001fH
	DB	31					; 0000001fH
	DB	31					; 0000001fH
	DB	31					; 0000001fH
	DB	31					; 0000001fH
	DB	31					; 0000001fH
	DB	31					; 0000001fH
	DB	31					; 0000001fH
	DB	31					; 0000001fH
	DB	31					; 0000001fH
	DB	31					; 0000001fH
	DB	31					; 0000001fH
	DB	31					; 0000001fH
	DB	31					; 0000001fH
	DB	31					; 0000001fH
	DB	31					; 0000001fH
	DB	31					; 0000001fH
	DB	1
	DB	31					; 0000001fH
	DB	31					; 0000001fH
	DB	31					; 0000001fH
	DB	31					; 0000001fH
	DB	31					; 0000001fH
	DB	31					; 0000001fH
	DB	31					; 0000001fH
	DB	31					; 0000001fH
	DB	31					; 0000001fH
	DB	31					; 0000001fH
	DB	31					; 0000001fH
	DB	31					; 0000001fH
	DB	31					; 0000001fH
	DB	31					; 0000001fH
	DB	31					; 0000001fH
	DB	31					; 0000001fH
	DB	2
	DB	3
	DB	4
	DB	5
	DB	31					; 0000001fH
	DB	6
	DB	7
	DB	8
	DB	31					; 0000001fH
	DB	31					; 0000001fH
	DB	31					; 0000001fH
	DB	9
	DB	31					; 0000001fH
	DB	31					; 0000001fH
	DB	31					; 0000001fH
	DB	31					; 0000001fH
	DB	6
	DB	10					; 0000000aH
	DB	11					; 0000000bH
	DB	31					; 0000001fH
	DB	12					; 0000000cH
	DB	13					; 0000000dH
	DB	31					; 0000001fH
	DB	31					; 0000001fH
	DB	31					; 0000001fH
	DB	31					; 0000001fH
	DB	31					; 0000001fH
	DB	31					; 0000001fH
	DB	31					; 0000001fH
	DB	31					; 0000001fH
	DB	31					; 0000001fH
	DB	31					; 0000001fH
	DB	14					; 0000000eH
	DB	31					; 0000001fH
	DB	15					; 0000000fH
	DB	31					; 0000001fH
	DB	31					; 0000001fH
	DB	16					; 00000010H
	DB	17					; 00000011H
	DB	18					; 00000012H
	DB	19					; 00000013H
	DB	31					; 0000001fH
	DB	31					; 0000001fH
	DB	20					; 00000014H
	DB	21					; 00000015H
	DB	22					; 00000016H
	DB	23					; 00000017H
	DB	24					; 00000018H
	DB	31					; 0000001fH
	DB	10					; 0000000aH
	DB	25					; 00000019H
	DB	26					; 0000001aH
	DB	27					; 0000001bH
	DB	28					; 0000001cH
	DB	29					; 0000001dH
	DB	31					; 0000001fH
	DB	31					; 0000001fH
	DB	30					; 0000001eH
?parse_options@@YAXHPAPA_WQAPAPA_W1@Z ENDP		; parse_options
_TEXT	ENDS
; Function compile flags: /Ogtp
;	COMDAT _fstat
_TEXT	SEGMENT
_fstat	PROC						; COMDAT
; __Desc$ = ecx
; __Stat$ = edx
; File c:\program files (x86)\microsoft visual studio 12.0\vc\include\sys\stat.inl
; Line 54
	push	edx
	push	ecx
	call	DWORD PTR __imp___fstat64i32
	add	esp, 8
; Line 55
	ret	0
_fstat	ENDP
_TEXT	ENDS
; Function compile flags: /Ogtp
;	COMDAT ?read_program_out@@YAPA_WPA_W@Z
_TEXT	SEGMENT
_si$ = -8832						; size = 68
_pi$ = -8760						; size = 16
_sa$ = -8744						; size = 12
_dwRead$ = -8732					; size = 4
_hRead$ = -8728						; size = 4
_hWrite$ = -8724					; size = 4
_buf$ = -8720						; size = 8192
_commandLine$ = -528					; size = 520
__$ArrayPad$ = -4					; size = 4
?read_program_out@@YAPA_WPA_W@Z PROC			; read_program_out, COMDAT
; _cmd$dead$ = ecx
; File i:\study\filescan\filescan\options.c
; Line 30
	push	ebp
	mov	ebp, esp
	mov	eax, 8836				; 00002284H
	call	__chkstk
	mov	eax, DWORD PTR ___security_cookie
	xor	eax, ebp
	mov	DWORD PTR __$ArrayPad$[ebp], eax
	push	ebx
	push	esi
	push	edi
; Line 32
	xor	ecx, ecx
	npad	4
$LL14@read_progr:
	movzx	eax, WORD PTR ??_C@_1EM@NOLIIAGI@?$AAg?$AAi?$AAt?$AA?5?$AAc?$AAo?$AAn?$AAf?$AAi?$AAg?$AA?5?$AA?9?$AAz?$AA?5?$AA?9?$AA?9?$AAg?$AAe?$AAt?$AA?5?$AAc?$AAo?$AAr?$AAe?$AA?4?$AAe?$AAx?$AAc?$AAl?$AAu?$AAd?$AAe@[ecx]
	lea	ecx, DWORD PTR [ecx+2]
	mov	WORD PTR _commandLine$[ebp+ecx-2], ax
	test	ax, ax
	jne	SHORT $LL14@read_progr
; Line 40
	push	64					; 00000040H
	xor	edi, edi
	mov	DWORD PTR _hRead$[ebp], 0
	lea	eax, DWORD PTR _si$[ebp+4]
	mov	DWORD PTR _hWrite$[ebp], 0
	push	edi
	xor	esi, esi
	push	eax
	mov	DWORD PTR _si$[ebp], esi
	call	_memset
	add	esp, 12					; 0000000cH
; Line 44
	mov	DWORD PTR _sa$[ebp], 12			; 0000000cH
; Line 48
	lea	eax, DWORD PTR _sa$[ebp]
	xorps	xmm0, xmm0
	movq	QWORD PTR _sa$[ebp+4], xmm0
	movdqu	XMMWORD PTR _pi$[ebp], xmm0
	push	edi
	push	eax
	lea	eax, DWORD PTR _hWrite$[ebp]
	mov	DWORD PTR _sa$[ebp+4], esi
	push	eax
	lea	eax, DWORD PTR _hRead$[ebp]
	mov	DWORD PTR _sa$[ebp+8], 1
	push	eax
	call	DWORD PTR __imp__CreatePipe@16
	mov	ebx, DWORD PTR __imp__CloseHandle@4
	test	eax, eax
	je	$Exit$32
; Line 51
	push	edi
	push	1
	push	DWORD PTR _hRead$[ebp]
	call	DWORD PTR __imp__SetHandleInformation@12
	test	eax, eax
	je	$Exit$32
; Line 56
	mov	eax, DWORD PTR _hWrite$[ebp]
	mov	DWORD PTR _si$[ebp+56], eax
; Line 57
	mov	DWORD PTR _si$[ebp+60], eax
; Line 58
	mov	DWORD PTR _si$[ebp+64], eax
; Line 61
	lea	eax, DWORD PTR _pi$[ebp]
	push	eax
	lea	eax, DWORD PTR _si$[ebp]
	mov	DWORD PTR _si$[ebp], 68			; 00000044H
	push	eax
	push	edi
	push	edi
	push	134217760				; 08000020H
	push	1
	push	edi
	push	edi
	lea	eax, DWORD PTR _commandLine$[ebp]
	mov	DWORD PTR _si$[ebp+44], 256		; 00000100H
	push	eax
	push	edi
	call	DWORD PTR __imp__CreateProcessW@40
	test	eax, eax
	je	$Exit$32
; Line 64
	push	DWORD PTR _hWrite$[ebp]
	call	ebx
; Line 68
	push	edi
	lea	eax, DWORD PTR _dwRead$[ebp]
	mov	DWORD PTR _hWrite$[ebp], esi
	push	eax
	push	4096					; 00001000H
	lea	eax, DWORD PTR _buf$[ebp]
	push	eax
	push	DWORD PTR _hRead$[ebp]
	call	DWORD PTR __imp__ReadFile@20
	mov	ecx, eax
; Line 69
	test	ecx, ecx
	je	SHORT $LN28@read_progr
$LL5@read_progr:
	mov	eax, DWORD PTR _dwRead$[ebp]
	test	eax, eax
	je	SHORT $LN2@read_progr
; Line 71
	inc	eax
	add	eax, edi
; File i:\study\filescan\filescan\util.c
; Line 32
	push	eax
	push	esi
	call	DWORD PTR __imp__realloc
	mov	esi, eax
	add	esp, 8
; Line 33
	test	esi, esi
	je	$LN30@read_progr
; File i:\study\filescan\filescan\options.c
; Line 72
	push	DWORD PTR _dwRead$[ebp]
	lea	eax, DWORD PTR _buf$[ebp]
	push	eax
	lea	eax, DWORD PTR [esi+edi*2]
	push	eax
	call	_memcpy
; Line 73
	add	edi, DWORD PTR _dwRead$[ebp]
	add	esp, 12					; 0000000cH
; Line 74
	xor	eax, eax
	push	eax
	mov	WORD PTR [esi+edi*2], ax
	lea	eax, DWORD PTR _dwRead$[ebp]
	push	eax
	push	4096					; 00001000H
	lea	eax, DWORD PTR _buf$[ebp]
	push	eax
	push	DWORD PTR _hRead$[ebp]
	call	DWORD PTR __imp__ReadFile@20
	mov	ecx, eax
	test	ecx, ecx
	jne	SHORT $LL5@read_progr
; File i:\study\filescan\filescan\util.c
; Line 33
	jmp	SHORT $LN28@read_progr
$LN2@read_progr:
; File i:\study\filescan\filescan\options.c
; Line 77
	test	ecx, ecx
	jne	SHORT $Exit$32
$LN28@read_progr:
	call	DWORD PTR __imp__GetLastError@0
	cmp	eax, 109				; 0000006dH
	je	SHORT $Exit$32
; Line 78
	push	esi
	call	DWORD PTR __imp__free
	add	esp, 4
; Line 79
	xor	esi, esi
$Exit$32:
; Line 83
	push	DWORD PTR _pi$[ebp]
	call	ebx
; Line 84
	push	DWORD PTR _pi$[ebp+4]
	call	ebx
; Line 85
	push	DWORD PTR _hRead$[ebp]
	call	ebx
; Line 86
	push	DWORD PTR _hWrite$[ebp]
	call	ebx
; Line 88
	mov	ecx, DWORD PTR __$ArrayPad$[ebp]
	mov	eax, esi
	pop	edi
	pop	esi
	xor	ecx, ebp
	pop	ebx
	call	@__security_check_cookie@4
	mov	esp, ebp
	pop	ebp
	ret	0
$LN30@read_progr:
; File i:\study\filescan\filescan\util.c
; Line 33
	push	OFFSET ??_C@_1DE@PGDGFCEA@?$AAM?$AAe?$AAm?$AAo?$AAr?$AAy?$AA?5?$AAa?$AAl?$AAl?$AAo?$AAc?$AAa?$AAt?$AAi?$AAo?$AAn?$AA?5?$AAf?$AAa?$AAi?$AAl?$AAe?$AAd?$AA?4?$AA?$AA@
	call	?die@@YAXPB_WZZ				; die
$LN31@read_progr:
$LN29@read_progr:
	int	3
?read_program_out@@YAPA_WPA_W@Z ENDP			; read_program_out
_TEXT	ENDS
; Function compile flags: /Ogtp
;	COMDAT ?usage@@YAXXZ
_TEXT	SEGMENT
?usage@@YAXXZ PROC					; usage, COMDAT
; File i:\study\filescan\filescan\options.c
; Line 96
	push	esi
; Line 97
	mov	esi, DWORD PTR __imp__printf
	push	OFFSET ??_C@_01EEMJAFIK@?6?$AA@
	call	esi
; Line 98
	push	OFFSET ??_C@_0DB@GNJOEFFB@Usage?3?5ag?5?$FLFILE?9TYPE?$FN?5?$FLOPTIONS?$FN?5@
	call	esi
; Line 100
	push	OFFSET ??_C@_0CL@FHIHDFEA@?5?5Recursively?5search?5for?5PATTERN@
	call	esi
; Line 101
	push	OFFSET ??_C@_0CC@EJPHMHFA@?5?5Like?5grep?5or?5ack?0?5but?5faster?4?6@
	call	esi
; Line 103
	push	OFFSET ??_C@_0BN@MDFHOCLL@Example?3?6?5?5ag?5?9i?5foo?5?1bar?1?6?6?$AA@
	call	esi
; Line 118
	push	OFFSET ??_C@_0DBB@OCLLMNJD@Output?5Options?3?6?5?5?5?5?5?9?9ackmate?5?5@
	call	esi
; Line 123
	push	OFFSET ??_C@_0KE@CKANMNHJ@?5?5?5?5?5?9?9color?9win?9ansi?5?5?5?5?5Use?5an@
	call	esi
; Line 179
	push	OFFSET ??_C@_0MPB@JANJFJDE@?5?5?5?5?5?9?9column?5?5?5?5?5?5?5?5?5?5?5?5?5Print?5@
	call	esi
; Line 186
	push	OFFSET ??_C@_0PA@FBGEGBEP@File?5Types?3?6The?5search?5can?5be?5re@
	call	esi
	add	esp, 36					; 00000024H
	pop	esi
; Line 187
	ret	0
?usage@@YAXXZ ENDP					; usage
_TEXT	ENDS
; Function compile flags: /Ogtp
;	COMDAT ?print_version@@YAXXZ
_TEXT	SEGMENT
?print_version@@YAXXZ PROC				; print_version, COMDAT
; File i:\study\filescan\filescan\options.c
; Line 189
	push	esi
; Line 204
	mov	esi, DWORD PTR __imp__printf
	push	OFFSET ??_C@_06KKAGMMLF@0?418?41?$AA@
	push	OFFSET ??_C@_0BA@CDBLICEJ@ag?5version?5?$CFs?6?6?$AA@
	call	esi
; Line 205
	push	OFFSET ??_C@_0L@PNLIHEMD@Features?3?6?$AA@
	call	esi
; Line 206
	push	45					; 0000002dH
	push	45					; 0000002dH
	push	45					; 0000002dH
	push	OFFSET ??_C@_0BH@KIMOEOBH@?5?5?$CFcjit?5?$CFclzma?5?$CFczlib?6?$AA@
	call	esi
	add	esp, 28					; 0000001cH
	pop	esi
; Line 207
	ret	0
?print_version@@YAXXZ ENDP				; print_version
_TEXT	ENDS
; Function compile flags: /Ogtp
;	COMDAT ?init_options@@YAXXZ
_TEXT	SEGMENT
?init_options@@YAXXZ PROC				; init_options, COMDAT
; File i:\study\filescan\filescan\options.c
; Line 209
	push	esi
; Line 210
	push	228					; 000000e4H
	push	0
	push	OFFSET ?opts@@3Ucli_options@@A		; opts
	call	_memset
; File i:\study\filescan\filescan\util.c
; Line 42
	mov	esi, DWORD PTR __imp___wcsdup
; File i:\study\filescan\filescan\options.c
; Line 216
	mov	eax, 10					; 0000000aH
; File i:\study\filescan\filescan\util.c
; Line 42
	push	OFFSET ??_C@_1BA@FDKIIPLL@?$AA?$BL?$AA?$FL?$AA1?$AA?$DL?$AA3?$AA2?$AAm?$AA?$AA@
; File i:\study\filescan\filescan\options.c
; Line 211
	mov	DWORD PTR ?opts@@3Ucli_options@@A+20, 0
; Line 212
	mov	DWORD PTR ?opts@@3Ucli_options@@A+40, 1
; Line 213
	mov	DWORD PTR ?opts@@3Ucli_options@@A+56, 0
; Line 214
	mov	DWORD PTR ?opts@@3Ucli_options@@A+88, 0
; Line 215
	mov	DWORD PTR ?opts@@3Ucli_options@@A+92, 25 ; 00000019H
; Line 216
	mov	WORD PTR ?opts@@3Ucli_options@@A+104, ax
; Line 217
	mov	DWORD PTR ?opts@@3Ucli_options@@A+112, 1
; Line 218
	mov	DWORD PTR ?opts@@3Ucli_options@@A+124, 0
; Line 219
	mov	DWORD PTR ?opts@@3Ucli_options@@A+128, 1
; Line 220
	mov	DWORD PTR ?opts@@3Ucli_options@@A+148, 1
; File i:\study\filescan\filescan\util.c
; Line 42
	call	esi
	add	esp, 16					; 00000010H
; Line 43
	test	eax, eax
	je	SHORT $LN14@init_optio
; Line 42
	push	OFFSET ??_C@_1BC@MALKNFOD@?$AA?$BL?$AA?$FL?$AA3?$AA0?$AA?$DL?$AA4?$AA3?$AAm?$AA?$AA@
; File i:\study\filescan\filescan\options.c
; Line 221
	mov	DWORD PTR ?opts@@3Ucli_options@@A+52, eax
; File i:\study\filescan\filescan\util.c
; Line 42
	call	esi
	add	esp, 4
; Line 43
	test	eax, eax
	je	SHORT $LN16@init_optio
; Line 42
	push	OFFSET ??_C@_1BA@JIPEFMBO@?$AA?$BL?$AA?$FL?$AA1?$AA?$DL?$AA3?$AA3?$AAm?$AA?$AA@
; File i:\study\filescan\filescan\options.c
; Line 222
	mov	DWORD PTR ?opts@@3Ucli_options@@A+48, eax
; File i:\study\filescan\filescan\util.c
; Line 42
	call	esi
	add	esp, 4
	pop	esi
; Line 43
	test	eax, eax
	je	SHORT $LN17@init_optio
; File i:\study\filescan\filescan\options.c
; Line 224
	mov	DWORD PTR ?opts@@3Ucli_options@@A+44, eax
	mov	DWORD PTR ?opts@@3Ucli_options@@A+212, 1
; Line 225
	ret	0
$LN14@init_optio:
; File i:\study\filescan\filescan\util.c
; Line 43
	push	OFFSET ??_C@_1DE@PGDGFCEA@?$AAM?$AAe?$AAm?$AAo?$AAr?$AAy?$AA?5?$AAa?$AAl?$AAl?$AAo?$AAc?$AAa?$AAt?$AAi?$AAo?$AAn?$AA?5?$AAf?$AAa?$AAi?$AAl?$AAe?$AAd?$AA?4?$AA?$AA@
	call	?die@@YAXPB_WZZ				; die
$LN18@init_optio:
$LN16@init_optio:
	push	OFFSET ??_C@_1DE@PGDGFCEA@?$AAM?$AAe?$AAm?$AAo?$AAr?$AAy?$AA?5?$AAa?$AAl?$AAl?$AAo?$AAc?$AAa?$AAt?$AAi?$AAo?$AAn?$AA?5?$AAf?$AAa?$AAi?$AAl?$AAe?$AAd?$AA?4?$AA?$AA@
	call	?die@@YAXPB_WZZ				; die
$LN19@init_optio:
$LN17@init_optio:
	push	OFFSET ??_C@_1DE@PGDGFCEA@?$AAM?$AAe?$AAm?$AAo?$AAr?$AAy?$AA?5?$AAa?$AAl?$AAl?$AAo?$AAc?$AAa?$AAt?$AAi?$AAo?$AAn?$AA?5?$AAf?$AAa?$AAi?$AAl?$AAe?$AAd?$AA?4?$AA?$AA@
	call	?die@@YAXPB_WZZ				; die
$LN20@init_optio:
$LN13@init_optio:
	int	3
?init_options@@YAXXZ ENDP				; init_options
_TEXT	ENDS
; Function compile flags: /Ogtp
;	COMDAT ?is_valid_num@@YAHPA_W@Z
_TEXT	SEGMENT
?is_valid_num@@YAHPA_W@Z PROC				; is_valid_num, COMDAT
; _s$dead$ = ecx
; File i:\study\filescan\filescan\options.c
; Line 260
	push	ebp
	mov	ebp, esp
	push	ecx
	mov	ecx, DWORD PTR _optarg
; Line 261
	mov	edx, ecx
; Line 262
	test	ecx, ecx
	je	SHORT $LN4@is_valid_n
$LL5@is_valid_n:
	movzx	eax, WORD PTR [ecx]
	test	ax, ax
	je	SHORT $LN4@is_valid_n
	cmp	eax, 32					; 00000020H
	je	SHORT $LN4@is_valid_n
; Line 263
	cmp	eax, 48					; 00000030H
	jb	SHORT $LN9@is_valid_n
	cmp	eax, 57					; 00000039H
	ja	SHORT $LN9@is_valid_n
; Line 265
	add	ecx, 2
; Line 262
	jne	SHORT $LL5@is_valid_n
$LN4@is_valid_n:
; Line 268
	push	edx
	call	DWORD PTR __imp___wtoi
	add	esp, 4
	test	eax, eax
	jne	SHORT $LN1@is_valid_n
	call	DWORD PTR __imp___errno
	cmp	DWORD PTR [eax], 22			; 00000016H
	je	SHORT $LN9@is_valid_n
$LN1@is_valid_n:
; Line 270
	mov	eax, 1
; Line 271
	mov	esp, ebp
	pop	ebp
	ret	0
$LN9@is_valid_n:
; Line 264
	xor	eax, eax
; Line 271
	mov	esp, ebp
	pop	ebp
	ret	0
?is_valid_num@@YAHPA_W@Z ENDP				; is_valid_num
_TEXT	ENDS
END
