; Listing generated by Microsoft (R) Optimizing Compiler Version 18.00.31101.0 

	TITLE	I:\Study\filescan\filescan\print.c
	.686P
	.XMM
	include listing.inc
	.model	flat

INCLUDELIB OLDNAMES

PUBLIC	??_C@_07LHKIDPG@?$BL?$FL0m?$BL?$FLK?$AA@	; `string'
PUBLIC	??_C@_1M@IPGNHFHK@?$AA?3?$AA?$CF?$AAs?$AA?$CF?$AAc?$AA?$AA@ ; `string'
PUBLIC	??_C@_19OJCMAFAG@?$AA?$CF?$AAs?$AA?$CF?$AAc?$AA?$AA@ ; `string'
PUBLIC	??_C@_15DAMPJCDE@?$AA?$CF?$AAc?$AA?$AA@		; `string'
PUBLIC	??_C@_1BE@GAEMHBEI@?$AA?$CF?$AAs?$AA?$CF?$AAl?$AAu?$AA?$CF?$AAs?$AA?$CF?$AAc?$AA?$AA@ ; `string'
PUBLIC	??_C@_1M@FFCBCCBK@?$AA?$CF?$AAl?$AAu?$AA?$CF?$AAc?$AA?$AA@ ; `string'
PUBLIC	??_C@_1DC@LKLGCBMD@?$AAB?$AAi?$AAn?$AAa?$AAr?$AAy?$AA?5?$AAf?$AAi?$AAl?$AAe?$AA?5?$AA?$CF?$AAs?$AA?5?$AAm?$AAa?$AAt?$AAc?$AAh?$AAe?$AAs?$AA?4?$AA?6?$AA?$AA@ ; `string'
PUBLIC	??_C@_17CMCBKBJN@?$AA?9?$AA?9?$AA?6?$AA?$AA@	; `string'
PUBLIC	??_C@_17MJEANDKP@?$AA?$CF?$AAs?$AA?6?$AA?$AA@	; `string'
PUBLIC	??_C@_1BA@LJPPAKEM@?$AA?$CF?$AAl?$AAu?$AA?5?$AA?$CF?$AAl?$AAu?$AA?$AA@ ; `string'
PUBLIC	?first_file_match@@3HA				; first_file_match
PUBLIC	?color_reset@@3PBDB				; color_reset
EXTRN	__imp__fwrite:PROC
EXTRN	__imp__GetConsoleScreenBufferInfo@8:PROC
EXTRN	__imp__GetStdHandle@4:PROC
EXTRN	__imp__SetConsoleTextAttribute@8:PROC
EXTRN	__imp__fputc:PROC
_console_handle DD 01H DUP (?)
_BSS	ENDS
;	COMDAT ??_C@_1BA@LJPPAKEM@?$AA?$CF?$AAl?$AAu?$AA?5?$AA?$CF?$AAl?$AAu?$AA?$AA@
CONST	SEGMENT
??_C@_1BA@LJPPAKEM@?$AA?$CF?$AAl?$AAu?$AA?5?$AA?$CF?$AAl?$AAu?$AA?$AA@ DB '%'
	DB	00H, 'l', 00H, 'u', 00H, ' ', 00H, '%', 00H, 'l', 00H, 'u', 00H
	DB	00H, 00H					; `string'
CONST	ENDS
;	COMDAT ??_C@_17MJEANDKP@?$AA?$CF?$AAs?$AA?6?$AA?$AA@
CONST	SEGMENT
??_C@_17MJEANDKP@?$AA?$CF?$AAs?$AA?6?$AA?$AA@ DB '%', 00H, 's', 00H, 0aH, 00H
	DB	00H, 00H					; `string'
CONST	ENDS
;	COMDAT ??_C@_17CMCBKBJN@?$AA?9?$AA?9?$AA?6?$AA?$AA@
CONST	SEGMENT
??_C@_17CMCBKBJN@?$AA?9?$AA?9?$AA?6?$AA?$AA@ DB '-', 00H, '-', 00H, 0aH, 00H
	DB	00H, 00H					; `string'
CONST	ENDS
;	COMDAT ??_C@_1DC@LKLGCBMD@?$AAB?$AAi?$AAn?$AAa?$AAr?$AAy?$AA?5?$AAf?$AAi?$AAl?$AAe?$AA?5?$AA?$CF?$AAs?$AA?5?$AAm?$AAa?$AAt?$AAc?$AAh?$AAe?$AAs?$AA?4?$AA?6?$AA?$AA@
CONST	SEGMENT
??_C@_1DC@LKLGCBMD@?$AAB?$AAi?$AAn?$AAa?$AAr?$AAy?$AA?5?$AAf?$AAi?$AAl?$AAe?$AA?5?$AA?$CF?$AAs?$AA?5?$AAm?$AAa?$AAt?$AAc?$AAh?$AAe?$AAs?$AA?4?$AA?6?$AA?$AA@ DB 'B'
	DB	00H, 'i', 00H, 'n', 00H, 'a', 00H, 'r', 00H, 'y', 00H, ' ', 00H
	DB	'f', 00H, 'i', 00H, 'l', 00H, 'e', 00H, ' ', 00H, '%', 00H, 's'
	DB	00H, ' ', 00H, 'm', 00H, 'a', 00H, 't', 00H, 'c', 00H, 'h', 00H
	DB	'e', 00H, 's', 00H, '.', 00H, 0aH, 00H, 00H, 00H ; `string'
CONST	ENDS
;	COMDAT ??_C@_1M@FFCBCCBK@?$AA?$CF?$AAl?$AAu?$AA?$CF?$AAc?$AA?$AA@
CONST	SEGMENT
??_C@_1M@FFCBCCBK@?$AA?$CF?$AAl?$AAu?$AA?$CF?$AAc?$AA?$AA@ DB '%', 00H, 'l'
	DB	00H, 'u', 00H, '%', 00H, 'c', 00H, 00H, 00H	; `string'
CONST	ENDS
;	COMDAT ??_C@_1BE@GAEMHBEI@?$AA?$CF?$AAs?$AA?$CF?$AAl?$AAu?$AA?$CF?$AAs?$AA?$CF?$AAc?$AA?$AA@
CONST	SEGMENT
??_C@_1BE@GAEMHBEI@?$AA?$CF?$AAs?$AA?$CF?$AAl?$AAu?$AA?$CF?$AAs?$AA?$CF?$AAc?$AA?$AA@ DB '%'
	DB	00H, 's', 00H, '%', 00H, 'l', 00H, 'u', 00H, '%', 00H, 's', 00H
	DB	'%', 00H, 'c', 00H, 00H, 00H			; `string'
CONST	ENDS
;	COMDAT ??_C@_15DAMPJCDE@?$AA?$CF?$AAc?$AA?$AA@
CONST	SEGMENT
??_C@_15DAMPJCDE@?$AA?$CF?$AAc?$AA?$AA@ DB '%', 00H, 'c', 00H, 00H, 00H ; `string'
CONST	ENDS
;	COMDAT ??_C@_19OJCMAFAG@?$AA?$CF?$AAs?$AA?$CF?$AAc?$AA?$AA@
CONST	SEGMENT
??_C@_19OJCMAFAG@?$AA?$CF?$AAs?$AA?$CF?$AAc?$AA?$AA@ DB '%', 00H, 's', 00H
	DB	'%', 00H, 'c', 00H, 00H, 00H			; `string'
CONST	ENDS
;	COMDAT ??_C@_1M@IPGNHFHK@?$AA?3?$AA?$CF?$AAs?$AA?$CF?$AAc?$AA?$AA@
CONST	SEGMENT
??_C@_1M@IPGNHFHK@?$AA?3?$AA?$CF?$AAs?$AA?$CF?$AAc?$AA?$AA@ DB ':', 00H, '%'
	DB	00H, 's', 00H, '%', 00H, 'c', 00H, 00H, 00H	; `string'
CONST	ENDS
;	COMDAT ??_C@_07LHKIDPG@?$BL?$FL0m?$BL?$FLK?$AA@
CONST	SEGMENT
??_C@_07LHKIDPG@?$BL?$FL0m?$BL?$FLK?$AA@ DB 01bH, '[0m', 01bH, '[K', 00H ; `string'
?first_file_match@@3HA DD 01H				; first_file_match
_default_attr DW 07H
?color_reset@@3PBDB DD FLAT:??_C@_07LHKIDPG@?$BL?$FL0m?$BL?$FLK?$AA@ ; color_reset
PUBLIC	?fix_path_slashes@@YAPB_WPB_W@Z			; fix_path_slashes
PUBLIC	?normalize_path@@YAPB_WPB_W@Z			; normalize_path
PUBLIC	?print_file_separator@@YAXXZ			; print_file_separator
PUBLIC	?print_column_number@@YAXQBUmatch_t@@II_W@Z	; print_column_number
PUBLIC	?print_line_number@@YAXI_W@Z			; print_line_number
PUBLIC	?print_file_matches@@YAXPB_W0IQBUmatch_t@@I@Z	; print_file_matches
PUBLIC	?print_line@@YAXPB_WII@Z			; print_line
PUBLIC	?print_path_count@@YAXPB_W_WI@Z			; print_path_count
PUBLIC	?print_path@@YAXPB_W_W@Z			; print_path
PUBLIC	?color_normal@@YAXPAU_iobuf@@@Z			; color_normal
PUBLIC	?color_highlight_match@@YAXPAU_iobuf@@@Z	; color_highlight_match
PUBLIC	?color_highlight_path@@YAXPAU_iobuf@@@Z		; color_highlight_path
PUBLIC	?set_output_color@@YAXG@Z			; set_output_color
; Function compile flags: /Ogtp
;	COMDAT ?get_console_handle@@YAHXZ
_TEXT	SEGMENT
_buf$ = -28						; size = 22
__$ArrayPad$ = -4					; size = 4
?get_console_handle@@YAHXZ PROC				; get_console_handle, COMDAT
; File i:\study\filescan\filescan\print.c
; Line 26
	push	ebp
	mov	ebp, esp
	sub	esp, 28					; 0000001cH
	mov	eax, DWORD PTR ___security_cookie
	xor	eax, ebp
	mov	DWORD PTR __$ArrayPad$[ebp], eax
; Line 29
	cmp	DWORD PTR _console_handle, 0
	jne	SHORT $LN6@get_consol
; Line 31
	push	-11					; fffffff5H
	call	DWORD PTR __imp__GetStdHandle@4
	mov	DWORD PTR _console_handle, eax
; Line 32
	test	eax, eax
	jne	SHORT $LN2@get_consol
; Line 39
	mov	ecx, DWORD PTR __$ArrayPad$[ebp]
	xor	ecx, ebp
	call	@__security_check_cookie@4
	mov	esp, ebp
	pop	ebp
	ret	0
$LN2@get_consol:
; Line 34
	lea	ecx, DWORD PTR _buf$[ebp]
	push	ecx
	push	eax
	call	DWORD PTR __imp__GetConsoleScreenBufferInfo@8
; Line 35
	movzx	edx, WORD PTR _default_attr
	test	eax, eax
	movzx	ecx, WORD PTR _buf$[ebp+8]
	cmovne	edx, ecx
	mov	WORD PTR _default_attr, dx
$LN6@get_consol:
; Line 39
	mov	ecx, DWORD PTR __$ArrayPad$[ebp]
	mov	eax, 1
	xor	ecx, ebp
	call	@__security_check_cookie@4
	mov	esp, ebp
	pop	ebp
	ret	0
?get_console_handle@@YAHXZ ENDP				; get_console_handle
_TEXT	ENDS
; Function compile flags: /Ogtp
;	COMDAT ?set_output_color@@YAXG@Z
_TEXT	SEGMENT
_buf$1 = -28						; size = 22
__$ArrayPad$ = -4					; size = 4
?set_output_color@@YAXG@Z PROC				; set_output_color, COMDAT
; _c$ = ecx
; File i:\study\filescan\filescan\print.c
; Line 41
	push	ebp
	mov	ebp, esp
	sub	esp, 28					; 0000001cH
	mov	eax, DWORD PTR ___security_cookie
	xor	eax, ebp
	mov	DWORD PTR __$ArrayPad$[ebp], eax
; Line 29
	mov	eax, DWORD PTR _console_handle
	push	esi
; Line 41
	mov	esi, ecx
; Line 29
	test	eax, eax
	jne	SHORT $LN4@set_output
; Line 31
	push	-11					; fffffff5H
	call	DWORD PTR __imp__GetStdHandle@4
	mov	DWORD PTR _console_handle, eax
; Line 32
	test	eax, eax
	je	SHORT $LN2@set_output
; Line 34
	lea	ecx, DWORD PTR _buf$1[ebp]
	push	ecx
	push	eax
	call	DWORD PTR __imp__GetConsoleScreenBufferInfo@8
; Line 35
	movzx	edx, WORD PTR _default_attr
	test	eax, eax
	movzx	ecx, WORD PTR _buf$1[ebp+8]
	mov	eax, DWORD PTR _console_handle
	cmovne	edx, ecx
	mov	WORD PTR _default_attr, dx
$LN4@set_output:
; Line 44
	push	esi
	push	eax
	call	DWORD PTR __imp__SetConsoleTextAttribute@8
$LN2@set_output:
; Line 45
	mov	ecx, DWORD PTR __$ArrayPad$[ebp]
	xor	ecx, ebp
	pop	esi
	call	@__security_check_cookie@4
	mov	esp, ebp
	pop	ebp
	ret	0
?set_output_color@@YAXG@Z ENDP				; set_output_color
_TEXT	ENDS
; Function compile flags: /Ogtp
;	COMDAT ?color_highlight_path@@YAXPAU_iobuf@@@Z
_TEXT	SEGMENT
_buf$1 = -28						; size = 22
__$ArrayPad$ = -4					; size = 4
?color_highlight_path@@YAXPAU_iobuf@@@Z PROC		; color_highlight_path, COMDAT
; _out_fd$dead$ = ecx
; File i:\study\filescan\filescan\print.c
; Line 47
	push	ebp
	mov	ebp, esp
	sub	esp, 28					; 0000001cH
	mov	eax, DWORD PTR ___security_cookie
	xor	eax, ebp
	mov	DWORD PTR __$ArrayPad$[ebp], eax
; Line 29
	mov	eax, DWORD PTR _console_handle
	test	eax, eax
	jne	SHORT $LN6@color_high
; Line 31
	push	-11					; fffffff5H
	call	DWORD PTR __imp__GetStdHandle@4
	mov	DWORD PTR _console_handle, eax
; Line 32
	test	eax, eax
	je	SHORT $LN4@color_high
; Line 34
	lea	ecx, DWORD PTR _buf$1[ebp]
	push	ecx
	push	eax
	call	DWORD PTR __imp__GetConsoleScreenBufferInfo@8
; Line 35
	movzx	edx, WORD PTR _default_attr
	test	eax, eax
	movzx	ecx, WORD PTR _buf$1[ebp+8]
	mov	eax, DWORD PTR _console_handle
	cmovne	edx, ecx
	mov	WORD PTR _default_attr, dx
$LN6@color_high:
; Line 44
	push	15					; 0000000fH
	push	eax
	call	DWORD PTR __imp__SetConsoleTextAttribute@8
$LN4@color_high:
; Line 47
	mov	ecx, DWORD PTR __$ArrayPad$[ebp]
	xor	ecx, ebp
	call	@__security_check_cookie@4
	mov	esp, ebp
	pop	ebp
	ret	0
?color_highlight_path@@YAXPAU_iobuf@@@Z ENDP		; color_highlight_path
_TEXT	ENDS
; Function compile flags: /Ogtp
;	COMDAT ?color_highlight_match@@YAXPAU_iobuf@@@Z
_TEXT	SEGMENT
_buf$1 = -28						; size = 22
__$ArrayPad$ = -4					; size = 4
?color_highlight_match@@YAXPAU_iobuf@@@Z PROC		; color_highlight_match, COMDAT
; _out_fd$dead$ = ecx
; File i:\study\filescan\filescan\print.c
; Line 48
	push	ebp
	mov	ebp, esp
	sub	esp, 28					; 0000001cH
	mov	eax, DWORD PTR ___security_cookie
	xor	eax, ebp
	mov	DWORD PTR __$ArrayPad$[ebp], eax
; Line 29
	mov	eax, DWORD PTR _console_handle
	test	eax, eax
	jne	SHORT $LN6@color_high
; Line 31
	push	-11					; fffffff5H
	call	DWORD PTR __imp__GetStdHandle@4
	mov	DWORD PTR _console_handle, eax
; Line 32
	test	eax, eax
	je	SHORT $LN4@color_high
; Line 34
	lea	ecx, DWORD PTR _buf$1[ebp]
	push	ecx
	push	eax
	call	DWORD PTR __imp__GetConsoleScreenBufferInfo@8
; Line 35
	movzx	edx, WORD PTR _default_attr
	test	eax, eax
	movzx	ecx, WORD PTR _buf$1[ebp+8]
	mov	eax, DWORD PTR _console_handle
	cmovne	edx, ecx
	mov	WORD PTR _default_attr, dx
$LN6@color_high:
; Line 44
	push	11					; 0000000bH
	push	eax
	call	DWORD PTR __imp__SetConsoleTextAttribute@8
$LN4@color_high:
; Line 48
	mov	ecx, DWORD PTR __$ArrayPad$[ebp]
	xor	ecx, ebp
	call	@__security_check_cookie@4
	mov	esp, ebp
	pop	ebp
	ret	0
?color_highlight_match@@YAXPAU_iobuf@@@Z ENDP		; color_highlight_match
_TEXT	ENDS
; Function compile flags: /Ogtp
;	COMDAT ?color_normal@@YAXPAU_iobuf@@@Z
_TEXT	SEGMENT
_buf$1 = -52						; size = 22
_buf$2 = -28						; size = 22
__$ArrayPad$ = -4					; size = 4
?color_normal@@YAXPAU_iobuf@@@Z PROC			; color_normal, COMDAT
; _out_fd$dead$ = ecx
; File i:\study\filescan\filescan\print.c
; Line 50
	push	ebp
	mov	ebp, esp
	sub	esp, 52					; 00000034H
	mov	eax, DWORD PTR ___security_cookie
	xor	eax, ebp
	mov	DWORD PTR __$ArrayPad$[ebp], eax
; Line 29
	mov	eax, DWORD PTR _console_handle
	test	eax, eax
	jne	SHORT $LN17@color_norm
; Line 31
	push	-11					; fffffff5H
	call	DWORD PTR __imp__GetStdHandle@4
	mov	DWORD PTR _console_handle, eax
; Line 32
	test	eax, eax
	je	SHORT $LN17@color_norm
; Line 34
	lea	ecx, DWORD PTR _buf$2[ebp]
	push	ecx
	push	eax
	call	DWORD PTR __imp__GetConsoleScreenBufferInfo@8
; Line 35
	movzx	edx, WORD PTR _default_attr
	test	eax, eax
	movzx	ecx, WORD PTR _buf$2[ebp+8]
	mov	eax, DWORD PTR _console_handle
	cmovne	edx, ecx
	mov	WORD PTR _default_attr, dx
	jmp	SHORT $LN3@color_norm
$LN17@color_norm:
	mov	dx, WORD PTR _default_attr
$LN3@color_norm:
	push	edi
; Line 52
	movzx	edi, dx
; Line 29
	test	eax, eax
	jne	SHORT $LN11@color_norm
; Line 31
	push	-11					; fffffff5H
	call	DWORD PTR __imp__GetStdHandle@4
	mov	DWORD PTR _console_handle, eax
; Line 32
	test	eax, eax
	je	SHORT $LN9@color_norm
; Line 34
	lea	ecx, DWORD PTR _buf$1[ebp]
	push	ecx
	push	eax
	call	DWORD PTR __imp__GetConsoleScreenBufferInfo@8
; Line 35
	movzx	edx, WORD PTR _default_attr
	test	eax, eax
	movzx	ecx, WORD PTR _buf$1[ebp+8]
	mov	eax, DWORD PTR _console_handle
	cmovne	edx, ecx
	mov	WORD PTR _default_attr, dx
$LN11@color_norm:
; Line 44
	push	edi
	push	eax
	call	DWORD PTR __imp__SetConsoleTextAttribute@8
$LN9@color_norm:
; Line 53
	mov	ecx, DWORD PTR __$ArrayPad$[ebp]
	xor	ecx, ebp
	pop	edi
	call	@__security_check_cookie@4
	mov	esp, ebp
	pop	ebp
	ret	0
?color_normal@@YAXPAU_iobuf@@@Z ENDP			; color_normal
_TEXT	ENDS
; Function compile flags: /Ogtp
;	COMDAT ?print_path@@YAXPB_W_W@Z
_TEXT	SEGMENT
_sep$1$ = -2						; size = 2
?print_path@@YAXPB_W_W@Z PROC				; print_path, COMDAT
; _path$ = ecx
; _sep$ = dx
; File i:\study\filescan\filescan\print.c
; Line 62
	push	ebp
	mov	ebp, esp
	push	ecx
	push	ebx
	push	esi
	push	edi
	mov	edi, ecx
	mov	WORD PTR _sep$1$[ebp], dx
; Line 325
	mov	esi, edi
	lea	ecx, DWORD PTR [esi+2]
$LL24@print_path:
	mov	ax, WORD PTR [esi]
	add	esi, 2
	test	ax, ax
	jne	SHORT $LL24@print_path
	sub	esi, ecx
	sar	esi, 1
	cmp	esi, 3
	jb	SHORT $LN9@print_path
; Line 328
	movzx	eax, WORD PTR [edi]
	cmp	eax, 46					; 0000002eH
	jne	SHORT $LN10@print_path
	cmp	WORD PTR [edi+2], 47			; 0000002fH
	jne	SHORT $LN10@print_path
; Line 329
	add	edi, 4
	jmp	SHORT $LN9@print_path
$LN10@print_path:
; Line 331
	cmp	eax, 47					; 0000002fH
	jne	SHORT $LN9@print_path
	cmp	WORD PTR [edi+2], 47			; 0000002fH
	lea	eax, DWORD PTR [edi+2]
	cmove	edi, eax
$LN9@print_path:
; Line 338
	push	edi
	call	DWORD PTR __imp___wcsdup
	mov	ebx, eax
	add	esp, 4
; Line 340
	mov	ecx, ebx
	cmp	WORD PTR [ebx], 0
	je	SHORT $LN15@print_path
	mov	eax, 92					; 0000005cH
$LL17@print_path:
; Line 342
	cmp	WORD PTR [ecx], 47			; 0000002fH
	jne	SHORT $LN16@print_path
	mov	WORD PTR [ecx], ax
$LN16@print_path:
; Line 340
	add	ecx, 2
	cmp	WORD PTR [ecx], 0
	jne	SHORT $LL17@print_path
$LN15@print_path:
; Line 66
	cmp	DWORD PTR ?opts@@3Ucli_options@@A, 0
	je	SHORT $LN6@print_path
; Line 67
	movzx	esi, WORD PTR _sep$1$[ebp]
	push	esi
	push	ebx
	push	OFFSET ??_C@_1M@IPGNHFHK@?$AA?3?$AA?$CF?$AAs?$AA?$CF?$AAc?$AA?$AA@
	push	DWORD PTR ?out_fd@@3PAU_iobuf@@A	; out_fd
	call	?fprintf_w32@@YAHPAU_iobuf@@PB_WZZ	; fprintf_w32
; Line 68
	push	esi
	push	edi
	push	OFFSET ??_C@_1M@IPGNHFHK@?$AA?3?$AA?$CF?$AAs?$AA?$CF?$AAc?$AA?$AA@
	push	DWORD PTR ?out_fd@@3PAU_iobuf@@A	; out_fd
	call	?fprintf_w32@@YAHPAU_iobuf@@PB_WZZ	; fprintf_w32
	add	esp, 32					; 00000020H
; Line 81
	push	ebx
	call	DWORD PTR __imp__free
	add	esp, 4
; Line 82
	pop	edi
	pop	esi
	pop	ebx
	mov	esp, ebp
	pop	ebp
	ret	0
$LN6@print_path:
; Line 69
	cmp	DWORD PTR ?opts@@3Ucli_options@@A+216, 0
	je	SHORT $LN4@print_path
; Line 70
	movzx	eax, WORD PTR _sep$1$[ebp]
	push	eax
	push	edi
; Line 71
	jmp	SHORT $LN25@print_path
$LN4@print_path:
; Line 72
	cmp	DWORD PTR ?opts@@3Ucli_options@@A+40, 0
	je	SHORT $LN2@print_path
; Line 73
	call	?color_highlight_path@@YAXPAU_iobuf@@@Z	; color_highlight_path
; Line 74
	push	ebx
	push	OFFSET ??_C@_15GANGMFKL@?$AA?$CF?$AAs?$AA?$AA@
	push	DWORD PTR ?out_fd@@3PAU_iobuf@@A	; out_fd
	call	?fprintf_w32@@YAHPAU_iobuf@@PB_WZZ	; fprintf_w32
; Line 75
	call	?color_normal@@YAXPAU_iobuf@@@Z		; color_normal
; Line 76
	movzx	eax, WORD PTR _sep$1$[ebp]
	push	eax
	push	OFFSET ??_C@_15DAMPJCDE@?$AA?$CF?$AAc?$AA?$AA@
	push	DWORD PTR ?out_fd@@3PAU_iobuf@@A	; out_fd
	call	?fprintf_w32@@YAHPAU_iobuf@@PB_WZZ	; fprintf_w32
	add	esp, 24					; 00000018H
; Line 81
	push	ebx
	call	DWORD PTR __imp__free
	add	esp, 4
; Line 82
	pop	edi
	pop	esi
	pop	ebx
	mov	esp, ebp
	pop	ebp
	ret	0
$LN2@print_path:
; Line 78
	movzx	eax, WORD PTR _sep$1$[ebp]
	push	eax
	push	ebx
$LN25@print_path:
	push	OFFSET ??_C@_19OJCMAFAG@?$AA?$CF?$AAs?$AA?$CF?$AAc?$AA?$AA@
	push	DWORD PTR ?out_fd@@3PAU_iobuf@@A	; out_fd
	call	?fprintf_w32@@YAHPAU_iobuf@@PB_WZZ	; fprintf_w32
	add	esp, 16					; 00000010H
; Line 81
	push	ebx
	call	DWORD PTR __imp__free
	add	esp, 4
; Line 82
	pop	edi
	pop	esi
	pop	ebx
	mov	esp, ebp
	pop	ebp
	ret	0
?print_path@@YAXPB_W_W@Z ENDP				; print_path
_TEXT	ENDS
; Function compile flags: /Ogtp
;	COMDAT ?print_path_count@@YAXPB_W_WI@Z
_TEXT	SEGMENT
_count$ = 8						; size = 4
?print_path_count@@YAXPB_W_WI@Z PROC			; print_path_count, COMDAT
; _path$ = ecx
; _sep$ = dx
; File i:\study\filescan\filescan\print.c
; Line 84
	push	ebp
	mov	ebp, esp
; Line 85
	cmp	WORD PTR [ecx], 0
	push	esi
	mov	si, dx
	je	SHORT $LN3@print_path
; Line 86
	mov	edx, 58					; 0000003aH
	call	?print_path@@YAXPB_W_W@Z		; print_path
$LN3@print_path:
; Line 88
	cmp	DWORD PTR ?opts@@3Ucli_options@@A+40, 0
; Line 89
	movzx	eax, si
	push	eax
	je	SHORT $LN2@print_path
	push	OFFSET ??_C@_07LHKIDPG@?$BL?$FL0m?$BL?$FLK?$AA@
	push	DWORD PTR _count$[ebp]
	push	DWORD PTR ?opts@@3Ucli_options@@A+44
	push	OFFSET ??_C@_1BE@GAEMHBEI@?$AA?$CF?$AAs?$AA?$CF?$AAl?$AAu?$AA?$CF?$AAs?$AA?$CF?$AAc?$AA?$AA@
	push	DWORD PTR ?out_fd@@3PAU_iobuf@@A	; out_fd
	call	?fprintf_w32@@YAHPAU_iobuf@@PB_WZZ	; fprintf_w32
	add	esp, 24					; 00000018H
; Line 93
	pop	esi
	pop	ebp
	ret	0
$LN2@print_path:
; Line 91
	push	DWORD PTR _count$[ebp]
	push	OFFSET ??_C@_1M@FFCBCCBK@?$AA?$CF?$AAl?$AAu?$AA?$CF?$AAc?$AA?$AA@
	push	DWORD PTR ?out_fd@@3PAU_iobuf@@A	; out_fd
	call	?fprintf_w32@@YAHPAU_iobuf@@PB_WZZ	; fprintf_w32
	add	esp, 16					; 00000010H
; Line 93
	pop	esi
	pop	ebp
	ret	0
?print_path_count@@YAXPB_W_WI@Z ENDP			; print_path_count
_TEXT	ENDS
; Function compile flags: /Ogtp
;	COMDAT ?print_line@@YAXPB_WII@Z
_TEXT	SEGMENT
_prev_line_offset$ = 8					; size = 4
?print_line@@YAXPB_WII@Z PROC				; print_line, COMDAT
; _buf$ = ecx
; _buf_pos$ = edx
; File i:\study\filescan\filescan\print.c
; Line 95
	push	ebp
	mov	ebp, esp
; Line 96
	push	DWORD PTR ?out_fd@@3PAU_iobuf@@A	; out_fd
	mov	eax, DWORD PTR _prev_line_offset$[ebp]
	sub	edx, eax
	inc	edx
	push	edx
	push	1
	lea	eax, DWORD PTR [ecx+eax*2]
	push	eax
	call	DWORD PTR __imp__fwrite
	add	esp, 16					; 00000010H
; Line 97
	pop	ebp
	ret	0
?print_line@@YAXPB_WII@Z ENDP				; print_line
_TEXT	ENDS
; Function compile flags: /Ogtp
;	COMDAT ?print_file_matches@@YAXPB_W0IQBUmatch_t@@I@Z
_TEXT	SEGMENT
tv1139 = -56						; size = 4
_in_a_match$1$ = -52					; size = 4
_last_prev_line$1$ = -48				; size = 4
_ptr$1$ = -44						; size = 4
_last_printed_match$1$ = -40				; size = 4
_sep$1$ = -36						; size = 4
_path$1$ = -32						; size = 4
_printing_a_match$1$ = -28				; size = 4
_buf$1$ = -24						; size = 4
tv1130 = -20						; size = 4
_lines_to_print$2$ = -20				; size = 4
_cur_match$1$ = -16					; size = 4
_line$1$ = -12						; size = 4
_i$1$ = -8						; size = 4
_j$3$ = -4						; size = 4
_buf_len$ = 8						; size = 4
_matches$ = 12						; size = 4
_matches_len$ = 16					; size = 4
?print_file_matches@@YAXPB_W0IQBUmatch_t@@I@Z PROC	; print_file_matches, COMDAT
; _path$ = ecx
; _buf$ = edx
; File i:\study\filescan\filescan\print.c
; Line 107
	push	ebp
	mov	ebp, esp
	sub	esp, 56					; 00000038H
	push	ebx
; Line 116
	xor	ebx, ebx
	mov	DWORD PTR _buf$1$[ebp], edx
	push	esi
	push	edi
	xor	edi, edi
	mov	DWORD PTR _line$1$[ebp], 1
	mov	eax, ecx
	mov	DWORD PTR _last_prev_line$1$[ebp], 0
	mov	DWORD PTR _path$1$[ebp], eax
	mov	DWORD PTR _j$3$[ebp], edi
	mov	DWORD PTR _cur_match$1$[ebp], edi
	mov	DWORD PTR _lines_to_print$2$[ebp], 2147483647 ; 7fffffffH
	mov	DWORD PTR _last_printed_match$1$[ebp], ebx
; Line 117
	mov	DWORD PTR _sep$1$[ebp], 45		; 0000002dH
; Line 119
	mov	DWORD PTR _in_a_match$1$[ebp], ebx
; Line 120
	mov	DWORD PTR _printing_a_match$1$[ebp], ebx
; Line 122
	cmp	DWORD PTR ?opts@@3Ucli_options@@A, ebx
	jne	SHORT $LN68@print_file
	cmp	DWORD PTR ?opts@@3Ucli_options@@A+216, ebx
	je	SHORT $LN69@print_file
$LN68@print_file:
; Line 123
	mov	DWORD PTR _sep$1$[ebp], 58		; 0000003aH
$LN69@print_file:
; Line 318
	cmp	DWORD PTR ?first_file_match@@3HA, ebx	; first_file_match
	jne	SHORT $LN74@print_file
	cmp	DWORD PTR ?opts@@3Ucli_options@@A+112, ebx
	je	SHORT $LN74@print_file
; Line 319
	push	OFFSET ??_C@_13LBAGMAIH@?$AA?6?$AA?$AA@
	push	DWORD PTR ?out_fd@@3PAU_iobuf@@A	; out_fd
	call	?fprintf_w32@@YAHPAU_iobuf@@PB_WZZ	; fprintf_w32
	mov	eax, DWORD PTR _path$1$[ebp]
	add	esp, 8
$LN74@print_file:
; Line 321
	mov	DWORD PTR ?first_file_match@@3HA, ebx	; first_file_match
; Line 128
	cmp	DWORD PTR ?opts@@3Ucli_options@@A+124, ebx
	jne	SHORT $LN67@print_file
; Line 129
	mov	DWORD PTR ?opts@@3Ucli_options@@A+124, 2
	jmp	SHORT $LN145@print_file
$LN67@print_file:
; Line 130
	cmp	DWORD PTR ?opts@@3Ucli_options@@A+124, 1
	jne	SHORT $LN65@print_file
; Line 131
	mov	DWORD PTR ?opts@@3Ucli_options@@A+124, 3
; Line 134
	jmp	SHORT $LN62@print_file
$LN65@print_file:
	cmp	DWORD PTR ?opts@@3Ucli_options@@A+124, 2
	jne	SHORT $LN62@print_file
$LN145@print_file:
; Line 136
	mov	ecx, eax
	mov	edx, DWORD PTR ?opts@@3Ucli_options@@A+104
	cmp	DWORD PTR ?opts@@3Ucli_options@@A+116, ebx
	je	SHORT $LN63@print_file
	push	DWORD PTR _matches_len$[ebp]
	call	?print_path_count@@YAXPB_W_WI@Z		; print_path_count
	add	esp, 4
; Line 137
	jmp	SHORT $LN62@print_file
$LN63@print_file:
; Line 138
	call	?print_path@@YAXPB_W_W@Z		; print_path
$LN62@print_file:
; Line 142
	mov	esi, DWORD PTR ?opts@@3Ucli_options@@A+16
	lea	eax, DWORD PTR [esi+1]
; File i:\study\filescan\filescan\util.c
; Line 37
	push	eax
	push	4
	call	DWORD PTR __imp__calloc
	add	esp, 8
	mov	DWORD PTR _ptr$1$[ebp], eax
; Line 38
	test	eax, eax
	je	$LN159@print_file
; File i:\study\filescan\filescan\print.c
; Line 144
	xor	eax, eax
	mov	DWORD PTR _i$1$[ebp], eax
	npad	4
$LL61@print_file:
	mov	edx, DWORD PTR _cur_match$1$[ebp]
	cmp	edx, DWORD PTR _matches_len$[ebp]
	jb	SHORT $LN144@print_file
	mov	ecx, DWORD PTR _lines_to_print$2$[ebp]
	cmp	ecx, DWORD PTR ?opts@@3Ucli_options@@A+12
	ja	$LN146@print_file
; Line 145
	jmp	$LN46@print_file
$LN144@print_file:
	mov	ecx, DWORD PTR _matches$[ebp]
	cmp	eax, DWORD PTR [ecx+edx*8]
	jne	$LN57@print_file
; Line 146
	mov	DWORD PTR _in_a_match$1$[ebp], 1
; Line 148
	test	edx, edx
	je	SHORT $LN56@print_file
	cmp	DWORD PTR ?opts@@3Ucli_options@@A+64, 0
	je	SHORT $LN56@print_file
	mov	eax, DWORD PTR ?opts@@3Ucli_options@@A+12
	inc	eax
	add	eax, esi
	cmp	DWORD PTR _lines_to_print$2$[ebp], eax
	jbe	SHORT $LN56@print_file
; Line 149
	push	OFFSET ??_C@_17CMCBKBJN@?$AA?9?$AA?9?$AA?6?$AA?$AA@
	push	DWORD PTR ?out_fd@@3PAU_iobuf@@A	; out_fd
	call	?fprintf_w32@@YAHPAU_iobuf@@PB_WZZ	; fprintf_w32
	mov	esi, DWORD PTR ?opts@@3Ucli_options@@A+16
	add	esp, 8
$LN56@print_file:
; Line 152
	mov	eax, DWORD PTR _lines_to_print$2$[ebp]
	test	eax, eax
	je	$LN49@print_file
	test	esi, esi
	je	$LN49@print_file
; Line 155
	sub	eax, DWORD PTR ?opts@@3Ucli_options@@A+12
	dec	eax
; Line 156
	jns	SHORT $LN54@print_file
; Line 157
	xor	eax, eax
	jmp	SHORT $LN52@print_file
$LN54@print_file:
; Line 158
	cmp	eax, esi
	cmova	eax, esi
$LN52@print_file:
; Line 162
	mov	edi, esi
	sub	edi, eax
	cmp	edi, esi
	jae	SHORT $LN151@print_file
	mov	ebx, DWORD PTR _last_prev_line$1$[ebp]
	add	ebx, edi
$LL51@print_file:
; Line 163
	xor	edx, edx
	mov	eax, ebx
	div	esi
; Line 164
	mov	eax, DWORD PTR _ptr$1$[ebp]
	cmp	DWORD PTR [eax+edx*4], 0
	lea	eax, DWORD PTR [eax+edx*4]
	mov	DWORD PTR tv1130[ebp], eax
	je	SHORT $LN50@print_file
; Line 165
	cmp	DWORD PTR ?opts@@3Ucli_options@@A+124, 3
	jne	SHORT $LN47@print_file
; Line 166
	mov	ecx, DWORD PTR _path$1$[ebp]
	mov	edx, 58					; 0000003aH
	call	?print_path@@YAXPB_W_W@Z		; print_path
	mov	esi, DWORD PTR ?opts@@3Ucli_options@@A+16
$LN47@print_file:
; Line 168
	mov	edx, DWORD PTR _sep$1$[ebp]
	mov	ecx, edi
	sub	ecx, esi
	add	ecx, DWORD PTR _line$1$[ebp]
	call	?print_line_number@@YAXI_W@Z		; print_line_number
; Line 169
	mov	eax, DWORD PTR tv1130[ebp]
	push	DWORD PTR [eax]
	push	OFFSET ??_C@_17MJEANDKP@?$AA?$CF?$AAs?$AA?6?$AA?$AA@
	push	DWORD PTR ?out_fd@@3PAU_iobuf@@A	; out_fd
	call	?fprintf_w32@@YAHPAU_iobuf@@PB_WZZ	; fprintf_w32
	mov	esi, DWORD PTR ?opts@@3Ucli_options@@A+16
	add	esp, 12					; 0000000cH
$LN50@print_file:
; Line 162
	inc	edi
	inc	ebx
	cmp	edi, esi
	jb	SHORT $LL51@print_file
	mov	ebx, DWORD PTR _last_printed_match$1$[ebp]
$LN151@print_file:
	mov	edi, DWORD PTR _j$3$[ebp]
$LN49@print_file:
	mov	eax, DWORD PTR _i$1$[ebp]
	mov	ecx, DWORD PTR _matches$[ebp]
	mov	edx, DWORD PTR _cur_match$1$[ebp]
; Line 173
	mov	DWORD PTR _lines_to_print$2$[ebp], 0
$LN57@print_file:
; Line 176
	cmp	eax, DWORD PTR [ecx+edx*8+4]
	jne	SHORT $LN46@print_file
; Line 178
	inc	edx
; Line 179
	mov	DWORD PTR _in_a_match$1$[ebp], 0
	mov	DWORD PTR _cur_match$1$[ebp], edx
$LN46@print_file:
; Line 183
	mov	ecx, DWORD PTR _buf$1$[ebp]
	cmp	WORD PTR [ecx+eax*2], 10		; 0000000aH
	lea	eax, DWORD PTR [ecx+eax*2]
	mov	DWORD PTR tv1139[ebp], eax
	jne	SHORT $LN155@print_file
	test	esi, esi
	je	SHORT $LN45@print_file
; Line 184
	mov	eax, DWORD PTR _ptr$1$[ebp]
	mov	ecx, DWORD PTR _last_prev_line$1$[ebp]
	mov	eax, DWORD PTR [eax+ecx*4]
	test	eax, eax
	je	SHORT $LN44@print_file
; Line 185
	push	eax
	call	DWORD PTR __imp__free
	add	esp, 4
$LN44@print_file:
; Line 188
	mov	eax, DWORD PTR _i$1$[ebp]
	sub	eax, edi
; File i:\study\filescan\filescan\util.c
; Line 52
	lea	edi, DWORD PTR [eax+1]
; Line 27
	push	edi
	call	DWORD PTR __imp__malloc
	mov	esi, eax
	add	esp, 4
; Line 28
	test	esi, esi
	je	$LN159@print_file
; File i:\study\filescan\filescan\print.c
; Line 188
	mov	eax, DWORD PTR _j$3$[ebp]
	mov	ecx, DWORD PTR _buf$1$[ebp]
	lea	ecx, DWORD PTR [ecx+eax*2]
; File i:\study\filescan\filescan\util.c
; Line 53
	push	ecx
	push	edi
	push	esi
	call	DWORD PTR __imp__wcscpy_s
; File i:\study\filescan\filescan\print.c
; Line 188
	mov	ecx, DWORD PTR _last_prev_line$1$[ebp]
; Line 189
	xor	edx, edx
	mov	eax, DWORD PTR _ptr$1$[ebp]
; File i:\study\filescan\filescan\util.c
; Line 53
	add	esp, 12					; 0000000cH
; File i:\study\filescan\filescan\print.c
; Line 188
	mov	DWORD PTR [eax+ecx*4], esi
; Line 189
	lea	eax, DWORD PTR [ecx+1]
	mov	esi, DWORD PTR ?opts@@3Ucli_options@@A+16
	div	esi
	mov	eax, DWORD PTR tv1139[ebp]
	mov	DWORD PTR _last_prev_line$1$[ebp], edx
$LN45@print_file:
; Line 192
	cmp	WORD PTR [eax], 10			; 0000000aH
	je	SHORT $LN152@print_file
$LN155@print_file:
	mov	edi, DWORD PTR _i$1$[ebp]
	cmp	edi, DWORD PTR _buf_len$[ebp]
	je	SHORT $LN42@print_file
	mov	edi, DWORD PTR _j$3$[ebp]
$LN158@print_file:
	mov	edx, DWORD PTR _buf_len$[ebp]
	mov	eax, DWORD PTR _i$1$[ebp]
$LN60@print_file:
; Line 144
	inc	eax
	mov	DWORD PTR _i$1$[ebp], eax
	cmp	eax, edx
	jbe	$LL61@print_file
$LN146@print_file:
; Line 288
	xor	edi, edi
	test	esi, esi
	je	SHORT $LN2@print_file
$LL4@print_file:
; Line 289
	mov	eax, DWORD PTR _ptr$1$[ebp]
	mov	eax, DWORD PTR [eax+edi*4]
	test	eax, eax
	je	SHORT $LN3@print_file
; Line 290
	push	eax
	call	DWORD PTR __imp__free
	mov	esi, DWORD PTR ?opts@@3Ucli_options@@A+16
	add	esp, 4
$LN3@print_file:
; Line 288
	inc	edi
	cmp	edi, esi
	jb	SHORT $LL4@print_file
$LN2@print_file:
; Line 293
	push	DWORD PTR _ptr$1$[ebp]
	call	DWORD PTR __imp__free
	add	esp, 4
; Line 294
	pop	edi
	pop	esi
	pop	ebx
	mov	esp, ebp
	pop	ebp
	ret	0
$LN152@print_file:
	mov	edi, DWORD PTR _i$1$[ebp]
$LN42@print_file:
; Line 193
	mov	eax, DWORD PTR _lines_to_print$2$[ebp]
	test	eax, eax
	jne	$LN41@print_file
; Line 194
	cmp	DWORD PTR ?opts@@3Ucli_options@@A+124, 3
	jne	SHORT $LN40@print_file
	cmp	DWORD PTR ?opts@@3Ucli_options@@A+172, eax
	jne	SHORT $LN40@print_file
; Line 195
	mov	ecx, DWORD PTR _path$1$[ebp]
	lea	edx, DWORD PTR [eax+58]
	call	?print_path@@YAXPB_W_W@Z		; print_path
	mov	esi, DWORD PTR ?opts@@3Ucli_options@@A+16
$LN40@print_file:
; Line 197
	cmp	DWORD PTR ?opts@@3Ucli_options@@A, 0
	je	$LN39@print_file
; Line 297
	cmp	DWORD PTR ?opts@@3Ucli_options@@A+128, 0
; Line 199
	mov	ecx, DWORD PTR _line$1$[ebp]
; Line 297
	je	SHORT $LN87@print_file
; Line 300
	cmp	DWORD PTR ?opts@@3Ucli_options@@A+172, 0
	je	SHORT $LN89@print_file
	mov	eax, DWORD PTR ?opts@@3Ucli_options@@A+180
	test	eax, eax
	cmovne	ecx, eax
$LN89@print_file:
; Line 303
	cmp	DWORD PTR ?opts@@3Ucli_options@@A+40, 0
; Line 304
	push	59					; 0000003bH
	je	SHORT $LN88@print_file
	push	OFFSET ??_C@_07LHKIDPG@?$BL?$FL0m?$BL?$FLK?$AA@
	push	ecx
	push	DWORD PTR ?opts@@3Ucli_options@@A+44
	push	OFFSET ??_C@_1BE@GAEMHBEI@?$AA?$CF?$AAs?$AA?$CF?$AAl?$AAu?$AA?$CF?$AAs?$AA?$CF?$AAc?$AA?$AA@
	push	DWORD PTR ?out_fd@@3PAU_iobuf@@A	; out_fd
	call	?fprintf_w32@@YAHPAU_iobuf@@PB_WZZ	; fprintf_w32
	add	esp, 24					; 00000018H
; Line 305
	jmp	SHORT $LN87@print_file
$LN88@print_file:
; Line 306
	push	ecx
	push	OFFSET ??_C@_1M@FFCBCCBK@?$AA?$CF?$AAl?$AAu?$AA?$CF?$AAc?$AA?$AA@
	push	DWORD PTR ?out_fd@@3PAU_iobuf@@A	; out_fd
	call	?fprintf_w32@@YAHPAU_iobuf@@PB_WZZ	; fprintf_w32
	add	esp, 16					; 00000010H
$LN87@print_file:
; Line 200
	mov	eax, DWORD PTR _cur_match$1$[ebp]
	cmp	ebx, eax
	jae	SHORT $LN36@print_file
	mov	edi, DWORD PTR _matches$[ebp]
	lea	esi, DWORD PTR [eax-1]
	npad	5
$LL38@print_file:
; Line 203
	mov	ecx, DWORD PTR [edi+ebx*8]
	mov	eax, DWORD PTR [edi+ebx*8+4]
	sub	eax, ecx
	sub	ecx, DWORD PTR _j$3$[ebp]
	push	eax
	push	ecx
	push	OFFSET ??_C@_1BA@LJPPAKEM@?$AA?$CF?$AAl?$AAu?$AA?5?$AA?$CF?$AAl?$AAu?$AA?$AA@
	push	DWORD PTR ?out_fd@@3PAU_iobuf@@A	; out_fd
	call	?fprintf_w32@@YAHPAU_iobuf@@PB_WZZ	; fprintf_w32
	add	esp, 16					; 00000010H
; Line 204
	push	DWORD PTR ?out_fd@@3PAU_iobuf@@A	; out_fd
	cmp	ebx, esi
	jne	SHORT $LN72@print_file
	push	58					; 0000003aH
	jmp	SHORT $LN156@print_file
$LN72@print_file:
	push	44					; 0000002cH
$LN156@print_file:
	call	DWORD PTR __imp__fputc
	inc	ebx
	add	esp, 8
	cmp	ebx, DWORD PTR _cur_match$1$[ebp]
	jb	SHORT $LL38@print_file
	mov	edi, DWORD PTR _i$1$[ebp]
	mov	DWORD PTR _last_printed_match$1$[ebp], ebx
$LN36@print_file:
; Line 96
	mov	ecx, DWORD PTR _j$3$[ebp]
	mov	eax, edi
	push	DWORD PTR ?out_fd@@3PAU_iobuf@@A	; out_fd
	sub	eax, ecx
	inc	eax
	push	eax
	mov	eax, DWORD PTR _buf$1$[ebp]
	push	1
	lea	eax, DWORD PTR [eax+ecx*2]
	push	eax
	call	DWORD PTR __imp__fwrite
	add	esp, 16					; 00000010H
; Line 206
	jmp	$LN157@print_file
$LN39@print_file:
; Line 207
	cmp	DWORD PTR ?opts@@3Ucli_options@@A+216, 0
	je	$LN34@print_file
; Line 208
	cmp	ebx, DWORD PTR _cur_match$1$[ebp]
	jae	$LN11@print_file
	sub	edi, DWORD PTR _j$3$[ebp]
	mov	edx, DWORD PTR _sep$1$[ebp]
	inc	edi
	movzx	esi, dx
	npad	4
$LL33@print_file:
; Line 209
	mov	ecx, DWORD PTR _path$1$[ebp]
	call	?print_path@@YAXPB_W_W@Z		; print_path
; Line 297
	cmp	DWORD PTR ?opts@@3Ucli_options@@A+128, 0
; Line 210
	mov	ecx, DWORD PTR _line$1$[ebp]
; Line 297
	je	SHORT $LN95@print_file
; Line 300
	cmp	DWORD PTR ?opts@@3Ucli_options@@A+172, 0
	je	SHORT $LN97@print_file
	mov	eax, DWORD PTR ?opts@@3Ucli_options@@A+180
	test	eax, eax
	cmovne	ecx, eax
$LN97@print_file:
; Line 303
	cmp	DWORD PTR ?opts@@3Ucli_options@@A+40, 0
; Line 304
	push	esi
	je	SHORT $LN96@print_file
	push	OFFSET ??_C@_07LHKIDPG@?$BL?$FL0m?$BL?$FLK?$AA@
	push	ecx
	push	DWORD PTR ?opts@@3Ucli_options@@A+44
	push	OFFSET ??_C@_1BE@GAEMHBEI@?$AA?$CF?$AAs?$AA?$CF?$AAl?$AAu?$AA?$CF?$AAs?$AA?$CF?$AAc?$AA?$AA@
	push	DWORD PTR ?out_fd@@3PAU_iobuf@@A	; out_fd
	call	?fprintf_w32@@YAHPAU_iobuf@@PB_WZZ	; fprintf_w32
	add	esp, 24					; 00000018H
; Line 305
	jmp	SHORT $LN95@print_file
$LN96@print_file:
; Line 306
	push	ecx
	push	OFFSET ??_C@_1M@FFCBCCBK@?$AA?$CF?$AAl?$AAu?$AA?$CF?$AAc?$AA?$AA@
	push	DWORD PTR ?out_fd@@3PAU_iobuf@@A	; out_fd
	call	?fprintf_w32@@YAHPAU_iobuf@@PB_WZZ	; fprintf_w32
	add	esp, 16					; 00000010H
$LN95@print_file:
; Line 314
	mov	eax, DWORD PTR _matches$[ebp]
	push	esi
	mov	eax, DWORD PTR [eax+ebx*8]
	sub	eax, DWORD PTR _j$3$[ebp]
	inc	eax
	push	eax
	push	OFFSET ??_C@_1M@FFCBCCBK@?$AA?$CF?$AAl?$AAu?$AA?$CF?$AAc?$AA?$AA@
	push	DWORD PTR ?out_fd@@3PAU_iobuf@@A	; out_fd
	call	?fprintf_w32@@YAHPAU_iobuf@@PB_WZZ	; fprintf_w32
; Line 96
	push	DWORD PTR ?out_fd@@3PAU_iobuf@@A	; out_fd
	mov	ecx, DWORD PTR _j$3$[ebp]
	mov	edx, DWORD PTR _buf$1$[ebp]
	push	edi
	push	1
	lea	eax, DWORD PTR [edx+ecx*2]
	push	eax
	call	DWORD PTR __imp__fwrite
; Line 208
	mov	edx, DWORD PTR _sep$1$[ebp]
	inc	ebx
; Line 96
	add	esp, 32					; 00000020H
; Line 208
	cmp	ebx, DWORD PTR _cur_match$1$[ebp]
	jb	$LL33@print_file
	mov	DWORD PTR _last_printed_match$1$[ebp], ebx
; Line 213
	jmp	$LN157@print_file
$LN34@print_file:
; Line 215
	mov	ecx, DWORD PTR _line$1$[ebp]
	mov	edx, 58					; 0000003aH
	call	?print_line_number@@YAXI_W@Z		; print_line_number
; Line 216
	xor	edi, edi
; Line 217
	cmp	DWORD PTR ?opts@@3Ucli_options@@A+60, edi
	je	SHORT $LN105@print_file
; Line 314
	mov	eax, DWORD PTR _matches$[ebp]
	push	58					; 0000003aH
	mov	eax, DWORD PTR [eax+ebx*8]
	sub	eax, DWORD PTR _j$3$[ebp]
	inc	eax
	push	eax
	push	OFFSET ??_C@_1M@FFCBCCBK@?$AA?$CF?$AAl?$AAu?$AA?$CF?$AAc?$AA?$AA@
	push	DWORD PTR ?out_fd@@3PAU_iobuf@@A	; out_fd
	call	?fprintf_w32@@YAHPAU_iobuf@@PB_WZZ	; fprintf_w32
	add	esp, 16					; 00000010H
$LN105@print_file:
; Line 221
	mov	ecx, DWORD PTR _printing_a_match$1$[ebp]
	test	ecx, ecx
	je	SHORT $LN28@print_file
	cmp	DWORD PTR ?opts@@3Ucli_options@@A+40, edi
	je	SHORT $LN28@print_file
; Line 222
	call	?color_highlight_match@@YAXPAU_iobuf@@@Z ; color_highlight_match
	mov	ecx, DWORD PTR _printing_a_match$1$[ebp]
$LN28@print_file:
; Line 224
	mov	eax, DWORD PTR _j$3$[ebp]
	mov	esi, eax
	cmp	eax, DWORD PTR _i$1$[ebp]
	ja	$LN25@print_file
	npad	1
$LL27@print_file:
; Line 225
	cmp	ebx, DWORD PTR _matches_len$[ebp]
	jae	$LN21@print_file
	mov	eax, DWORD PTR _matches$[ebp]
	cmp	esi, DWORD PTR [eax+ebx*8+4]
	jne	SHORT $LN22@print_file
; Line 226
	cmp	DWORD PTR ?opts@@3Ucli_options@@A+40, 0
	je	SHORT $LN23@print_file
; Line 227
	call	?color_normal@@YAXPAU_iobuf@@@Z		; color_normal
$LN23@print_file:
; Line 229
	xor	ecx, ecx
; Line 230
	inc	ebx
	mov	DWORD PTR _printing_a_match$1$[ebp], ecx
; Line 231
	lea	edi, DWORD PTR [ecx+1]
; Line 232
	cmp	DWORD PTR ?opts@@3Ucli_options@@A+100, ecx
	je	SHORT $LN22@print_file
; Line 233
	push	DWORD PTR ?out_fd@@3PAU_iobuf@@A	; out_fd
	push	10					; 0000000aH
	call	DWORD PTR __imp__fputc
	mov	ecx, DWORD PTR _printing_a_match$1$[ebp]
	add	esp, 8
$LN22@print_file:
; Line 236
	cmp	ebx, DWORD PTR _matches_len$[ebp]
	jae	SHORT $LN21@print_file
	mov	eax, DWORD PTR _matches$[ebp]
	cmp	esi, DWORD PTR [eax+ebx*8]
	jne	SHORT $LN21@print_file
; Line 237
	cmp	DWORD PTR ?opts@@3Ucli_options@@A+100, 0
	je	SHORT $LN148@print_file
	test	edi, edi
	je	SHORT $LN148@print_file
; Line 238
	cmp	DWORD PTR ?opts@@3Ucli_options@@A+124, 3
	jne	SHORT $LN19@print_file
; Line 239
	mov	ecx, DWORD PTR _path$1$[ebp]
	mov	edx, 58					; 0000003aH
	call	?print_path@@YAXPB_W_W@Z		; print_path
$LN19@print_file:
; Line 241
	mov	ecx, DWORD PTR _line$1$[ebp]
	mov	edx, 58					; 0000003aH
	call	?print_line_number@@YAXI_W@Z		; print_line_number
; Line 242
	cmp	DWORD PTR ?opts@@3Ucli_options@@A+60, 0
	je	SHORT $LN148@print_file
; Line 314
	mov	eax, DWORD PTR _matches$[ebp]
	push	58					; 0000003aH
	mov	eax, DWORD PTR [eax+ebx*8]
	sub	eax, DWORD PTR _j$3$[ebp]
	inc	eax
	push	eax
	push	OFFSET ??_C@_1M@FFCBCCBK@?$AA?$CF?$AAl?$AAu?$AA?$CF?$AAc?$AA?$AA@
	push	DWORD PTR ?out_fd@@3PAU_iobuf@@A	; out_fd
	call	?fprintf_w32@@YAHPAU_iobuf@@PB_WZZ	; fprintf_w32
	add	esp, 16					; 00000010H
$LN148@print_file:
; Line 246
	cmp	DWORD PTR ?opts@@3Ucli_options@@A+40, 0
	je	SHORT $LN17@print_file
; Line 247
	call	?color_highlight_match@@YAXPAU_iobuf@@@Z ; color_highlight_match
$LN17@print_file:
; Line 249
	mov	ecx, 1
	mov	DWORD PTR _printing_a_match$1$[ebp], ecx
$LN21@print_file:
; Line 252
	cmp	esi, DWORD PTR _buf_len$[ebp]
	jae	SHORT $LN26@print_file
; Line 254
	cmp	DWORD PTR ?opts@@3Ucli_options@@A+100, 0
	je	SHORT $LN14@print_file
	test	ecx, ecx
	je	SHORT $LN26@print_file
$LN14@print_file:
; Line 255
	mov	eax, DWORD PTR _buf$1$[ebp]
	push	DWORD PTR ?out_fd@@3PAU_iobuf@@A	; out_fd
	movzx	eax, WORD PTR [eax+esi*2]
	push	eax
	call	DWORD PTR __imp__fputc
	mov	ecx, DWORD PTR _printing_a_match$1$[ebp]
	add	esp, 8
$LN26@print_file:
; Line 224
	inc	esi
	cmp	esi, DWORD PTR _i$1$[ebp]
	jbe	$LL27@print_file
	mov	DWORD PTR _last_printed_match$1$[ebp], ebx
$LN25@print_file:
; Line 259
	test	ecx, ecx
	je	$LN157@print_file
	cmp	DWORD PTR ?opts@@3Ucli_options@@A+40, 0
	je	$LN157@print_file
; Line 260
	call	?color_normal@@YAXPAU_iobuf@@@Z		; color_normal
; Line 262
	jmp	$LN157@print_file
$LN41@print_file:
; Line 263
	cmp	eax, DWORD PTR ?opts@@3Ucli_options@@A+12
	ja	$LN11@print_file
; Line 265
	cmp	DWORD PTR ?opts@@3Ucli_options@@A+124, 3
	jne	SHORT $LN10@print_file
; Line 266
	mov	ecx, DWORD PTR _path$1$[ebp]
	mov	edx, 58					; 0000003aH
	call	?print_path@@YAXPB_W_W@Z		; print_path
$LN10@print_file:
; Line 297
	cmp	DWORD PTR ?opts@@3Ucli_options@@A+128, 0
; Line 268
	mov	ecx, DWORD PTR _line$1$[ebp]
; Line 297
	je	SHORT $LN109@print_file
; Line 300
	cmp	DWORD PTR ?opts@@3Ucli_options@@A+172, 0
	je	SHORT $LN111@print_file
	mov	eax, DWORD PTR ?opts@@3Ucli_options@@A+180
	test	eax, eax
	cmovne	ecx, eax
$LN111@print_file:
; Line 303
	cmp	DWORD PTR ?opts@@3Ucli_options@@A+40, 0
; Line 304
	mov	eax, DWORD PTR _sep$1$[ebp]
	movzx	eax, ax
	push	eax
	je	SHORT $LN110@print_file
	push	OFFSET ??_C@_07LHKIDPG@?$BL?$FL0m?$BL?$FLK?$AA@
	push	ecx
	push	DWORD PTR ?opts@@3Ucli_options@@A+44
	push	OFFSET ??_C@_1BE@GAEMHBEI@?$AA?$CF?$AAs?$AA?$CF?$AAl?$AAu?$AA?$CF?$AAs?$AA?$CF?$AAc?$AA?$AA@
	push	DWORD PTR ?out_fd@@3PAU_iobuf@@A	; out_fd
	call	?fprintf_w32@@YAHPAU_iobuf@@PB_WZZ	; fprintf_w32
	add	esp, 24					; 00000018H
; Line 305
	jmp	SHORT $LN109@print_file
$LN110@print_file:
; Line 306
	push	ecx
	push	OFFSET ??_C@_1M@FFCBCCBK@?$AA?$CF?$AAl?$AAu?$AA?$CF?$AAc?$AA?$AA@
	push	DWORD PTR ?out_fd@@3PAU_iobuf@@A	; out_fd
	call	?fprintf_w32@@YAHPAU_iobuf@@PB_WZZ	; fprintf_w32
	add	esp, 16					; 00000010H
$LN109@print_file:
; Line 270
	mov	esi, DWORD PTR _j$3$[ebp]
	cmp	esi, edi
	jae	SHORT $LN7@print_file
	mov	ebx, DWORD PTR _buf$1$[ebp]
	npad	7
$LL9@print_file:
; Line 271
	push	DWORD PTR ?out_fd@@3PAU_iobuf@@A	; out_fd
	movzx	eax, WORD PTR [ebx+esi*2]
	push	eax
	call	DWORD PTR __imp__fputc
	inc	esi
	add	esp, 8
	cmp	esi, edi
	jb	SHORT $LL9@print_file
	mov	ebx, DWORD PTR _last_printed_match$1$[ebp]
$LN7@print_file:
; Line 273
	push	DWORD PTR ?out_fd@@3PAU_iobuf@@A	; out_fd
	push	10					; 0000000aH
	call	DWORD PTR __imp__fputc
	add	esp, 8
$LN157@print_file:
	mov	esi, DWORD PTR ?opts@@3Ucli_options@@A+16
$LN11@print_file:
; Line 276
	mov	eax, DWORD PTR _i$1$[ebp]
; Line 277
	inc	DWORD PTR _line$1$[ebp]
; Line 278
	cmp	DWORD PTR _in_a_match$1$[ebp], 0
	lea	edi, DWORD PTR [eax+1]
	mov	DWORD PTR _j$3$[ebp], edi
	jne	SHORT $LN6@print_file
	mov	ecx, DWORD PTR _lines_to_print$2$[ebp]
	cmp	ecx, 2147483647				; 7fffffffH
	jae	SHORT $LN6@print_file
; Line 279
	inc	ecx
	mov	DWORD PTR _lines_to_print$2$[ebp], ecx
$LN6@print_file:
; Line 282
	mov	edx, DWORD PTR _buf_len$[ebp]
	cmp	eax, edx
	jne	$LN60@print_file
	mov	ecx, DWORD PTR _buf$1$[ebp]
	cmp	WORD PTR [ecx+eax*2], 10		; 0000000aH
	je	$LN60@print_file
	cmp	DWORD PTR ?opts@@3Ucli_options@@A+172, 0
	jne	$LN60@print_file
; Line 283
	push	DWORD PTR ?out_fd@@3PAU_iobuf@@A	; out_fd
	push	10					; 0000000aH
	call	DWORD PTR __imp__fputc
	mov	esi, DWORD PTR ?opts@@3Ucli_options@@A+16
	add	esp, 8
	jmp	$LN158@print_file
$LN159@print_file:
; File i:\study\filescan\filescan\util.c
; Line 38
	push	OFFSET ??_C@_1DE@PGDGFCEA@?$AAM?$AAe?$AAm?$AAo?$AAr?$AAy?$AA?5?$AAa?$AAl?$AAl?$AAo?$AAc?$AAa?$AAt?$AAi?$AAo?$AAn?$AA?5?$AAf?$AAa?$AAi?$AAl?$AAe?$AAd?$AA?4?$AA?$AA@
	call	?die@@YAXPB_WZZ				; die
$LN161@print_file:
$LN153@print_file:
	int	3
?print_file_matches@@YAXPB_W0IQBUmatch_t@@I@Z ENDP	; print_file_matches
_TEXT	ENDS
; Function compile flags: /Ogtp
;	COMDAT ?print_line_number@@YAXI_W@Z
_TEXT	SEGMENT
?print_line_number@@YAXI_W@Z PROC			; print_line_number, COMDAT
; _line$ = ecx
; _sep$ = dx
; File i:\study\filescan\filescan\print.c
; Line 297
	cmp	DWORD PTR ?opts@@3Ucli_options@@A+128, 0
	je	SHORT $LN1@print_line
; Line 300
	cmp	DWORD PTR ?opts@@3Ucli_options@@A+172, 0
	je	SHORT $LN3@print_line
	mov	eax, DWORD PTR ?opts@@3Ucli_options@@A+180
	test	eax, eax
	cmovne	ecx, eax
$LN3@print_line:
; Line 303
	cmp	DWORD PTR ?opts@@3Ucli_options@@A+40, 0
; Line 304
	movzx	eax, dx
	push	eax
	je	SHORT $LN2@print_line
	push	OFFSET ??_C@_07LHKIDPG@?$BL?$FL0m?$BL?$FLK?$AA@
	push	ecx
	push	DWORD PTR ?opts@@3Ucli_options@@A+44
	push	OFFSET ??_C@_1BE@GAEMHBEI@?$AA?$CF?$AAs?$AA?$CF?$AAl?$AAu?$AA?$CF?$AAs?$AA?$CF?$AAc?$AA?$AA@
	push	DWORD PTR ?out_fd@@3PAU_iobuf@@A	; out_fd
	call	?fprintf_w32@@YAHPAU_iobuf@@PB_WZZ	; fprintf_w32
	add	esp, 24					; 00000018H
; Line 308
	ret	0
$LN2@print_line:
; Line 306
	push	ecx
	push	OFFSET ??_C@_1M@FFCBCCBK@?$AA?$CF?$AAl?$AAu?$AA?$CF?$AAc?$AA?$AA@
	push	DWORD PTR ?out_fd@@3PAU_iobuf@@A	; out_fd
	call	?fprintf_w32@@YAHPAU_iobuf@@PB_WZZ	; fprintf_w32
	add	esp, 16					; 00000010H
$LN1@print_line:
; Line 308
	ret	0
?print_line_number@@YAXI_W@Z ENDP			; print_line_number
_TEXT	ENDS
; Function compile flags: /Ogtp
;	COMDAT ?print_column_number@@YAXQBUmatch_t@@II_W@Z
_TEXT	SEGMENT
_prev_line_offset$ = 8					; size = 4
_sep$ = 12						; size = 2
?print_column_number@@YAXQBUmatch_t@@II_W@Z PROC	; print_column_number, COMDAT
; _matches$ = ecx
; _last_printed_match$ = edx
; File i:\study\filescan\filescan\print.c
; Line 311
	push	ebp
	mov	ebp, esp
; Line 314
	mov	eax, DWORD PTR _sep$[ebp]
	movzx	eax, ax
	push	eax
	mov	eax, DWORD PTR [ecx+edx*8]
	sub	eax, DWORD PTR _prev_line_offset$[ebp]
	inc	eax
	push	eax
	push	OFFSET ??_C@_1M@FFCBCCBK@?$AA?$CF?$AAl?$AAu?$AA?$CF?$AAc?$AA?$AA@
	push	DWORD PTR ?out_fd@@3PAU_iobuf@@A	; out_fd
	call	?fprintf_w32@@YAHPAU_iobuf@@PB_WZZ	; fprintf_w32
	add	esp, 16					; 00000010H
; Line 315
	pop	ebp
	ret	0
?print_column_number@@YAXQBUmatch_t@@II_W@Z ENDP	; print_column_number
_TEXT	ENDS
; Function compile flags: /Ogtp
;	COMDAT ?print_file_separator@@YAXXZ
_TEXT	SEGMENT
?print_file_separator@@YAXXZ PROC			; print_file_separator, COMDAT
; File i:\study\filescan\filescan\print.c
; Line 318
	cmp	DWORD PTR ?first_file_match@@3HA, 0	; first_file_match
	jne	SHORT $LN4@print_file
	cmp	DWORD PTR ?opts@@3Ucli_options@@A+112, 0
	je	SHORT $LN4@print_file
; Line 319
	push	OFFSET ??_C@_13LBAGMAIH@?$AA?6?$AA?$AA@
	push	DWORD PTR ?out_fd@@3PAU_iobuf@@A	; out_fd
	call	?fprintf_w32@@YAHPAU_iobuf@@PB_WZZ	; fprintf_w32
	add	esp, 8
$LN4@print_file:
; Line 321
	mov	DWORD PTR ?first_file_match@@3HA, 0	; first_file_match
; Line 322
	ret	0
?print_file_separator@@YAXXZ ENDP			; print_file_separator
_TEXT	ENDS
; Function compile flags: /Ogtp
;	COMDAT ?normalize_path@@YAPB_WPB_W@Z
_TEXT	SEGMENT
?normalize_path@@YAPB_WPB_W@Z PROC			; normalize_path, COMDAT
; _path$ = ecx
; File i:\study\filescan\filescan\print.c
; Line 325
	mov	edx, ecx
	push	esi
	lea	esi, DWORD PTR [edx+2]
$LL6@normalize_:
	mov	ax, WORD PTR [edx]
	add	edx, 2
	test	ax, ax
	jne	SHORT $LL6@normalize_
	sub	edx, esi
	sar	edx, 1
	pop	esi
	cmp	edx, 3
	jb	SHORT $LN1@normalize_
; Line 328
	movzx	eax, WORD PTR [ecx]
	cmp	eax, 46					; 0000002eH
	jne	SHORT $LN2@normalize_
	cmp	WORD PTR [ecx+2], 47			; 0000002fH
	jne	SHORT $LN2@normalize_
; Line 329
	lea	eax, DWORD PTR [ecx+4]
; Line 335
	ret	0
$LN2@normalize_:
; Line 331
	cmp	eax, 47					; 0000002fH
	jne	SHORT $LN1@normalize_
	cmp	WORD PTR [ecx+2], 47			; 0000002fH
	lea	eax, DWORD PTR [ecx+2]
	je	SHORT $LN4@normalize_
$LN1@normalize_:
; Line 334
	mov	eax, ecx
$LN4@normalize_:
; Line 335
	ret	0
?normalize_path@@YAPB_WPB_W@Z ENDP			; normalize_path
_TEXT	ENDS
; Function compile flags: /Ogtp
;	COMDAT ?fix_path_slashes@@YAPB_WPB_W@Z
_TEXT	SEGMENT
?fix_path_slashes@@YAPB_WPB_W@Z PROC			; fix_path_slashes, COMDAT
; _path$ = ecx
; File i:\study\filescan\filescan\print.c
; Line 338
	push	ecx
	call	DWORD PTR __imp___wcsdup
	add	esp, 4
; Line 340
	mov	ecx, eax
	cmp	WORD PTR [eax], 0
	je	SHORT $LN2@fix_path_s
	mov	edx, 92					; 0000005cH
$LL4@fix_path_s:
; Line 342
	cmp	WORD PTR [ecx], 47			; 0000002fH
	jne	SHORT $LN3@fix_path_s
	mov	WORD PTR [ecx], dx
$LN3@fix_path_s:
; Line 340
	add	ecx, 2
	cmp	WORD PTR [ecx], 0
	jne	SHORT $LL4@fix_path_s
$LN2@fix_path_s:
; Line 346
	ret	0
?fix_path_slashes@@YAPB_WPB_W@Z ENDP			; fix_path_slashes
_TEXT	ENDS
END
