; Listing generated by Microsoft (R) Optimizing Compiler Version 18.00.31101.0 

	TITLE	I:\Study\filescan\filescan\search.c
	.686P
	.XMM
	include listing.inc
	.model	flat

INCLUDELIB OLDNAMES

PUBLIC	?work_queue_mtx@@3PAUpthread_mutex_t_@@A	; work_queue_mtx
PUBLIC	?done_adding_files@@3HA				; done_adding_files
PUBLIC	?print_mtx@@3PAUpthread_mutex_t_@@A		; print_mtx
PUBLIC	?work_queue@@3PAUwork_queue_t@@A		; work_queue
PUBLIC	?stats_mtx@@3PAUpthread_mutex_t_@@A		; stats_mtx
PUBLIC	?work_queue_tail@@3PAUwork_queue_t@@A		; work_queue_tail
PUBLIC	?symhash@@3PAUsymdir_t@@A			; symhash
PUBLIC	?files_ready@@3PAUpthread_cond_t_@@A		; files_ready
PUBLIC	?find_skip_lookup@@3PAIA			; find_skip_lookup
PUBLIC	?alpha_skip_lookup@@3PAIA			; alpha_skip_lookup
PUBLIC	??_C@_1GK@HLHPBHKH@?$AAT?$AAo?$AAo?$AA?5?$AAm?$AAa?$AAn?$AAy?$AA?5?$AAm?$AAa?$AAt?$AAc?$AAh?$AAe?$AAs?$AA?5?$AAi?$AAn?$AA?5?$AA?$CF?$AAs?$AA?4?$AA?5?$AAR?$AAe?$AAa?$AAl?$AAl?$AAo?$AAc?$AAa@ ; `string'
PUBLIC	??_C@_1FA@LLKHNKKD@?$AAM?$AAa?$AAt?$AAc?$AAh?$AA?5?$AAf?$AAo?$AAu?$AAn?$AAd?$AA?4?$AA?5?$AAF?$AAi?$AAl?$AAe?$AA?5?$AA?$CF?$AAs?$AA?0?$AA?5?$AAo?$AAf?$AAf?$AAs?$AAe?$AAt?$AA?5?$AA?$CF?$AAl?$AAu@ ; `string'
PUBLIC	??_C@_1HA@HIIJHBBH@?$AAT?$AAo?$AAo?$AA?5?$AAm?$AAa?$AAn?$AAy?$AA?5?$AAm?$AAa?$AAt?$AAc?$AAh?$AAe?$AAs?$AA?5?$AAi?$AAn?$AA?5?$AA?$CF?$AAs?$AA?4?$AA?5?$AAS?$AAk?$AAi?$AAp?$AAp?$AAi?$AAn?$AAg@ ; `string'
PUBLIC	??_C@_1FK@CEPELPLA@?$AAR?$AAe?$AAg?$AAe?$AAx?$AA?5?$AAm?$AAa?$AAt?$AAc?$AAh?$AA?5?$AAf?$AAo?$AAu?$AAn?$AAd?$AA?4?$AA?5?$AAF?$AAi?$AAl?$AAe?$AA?5?$AA?$CF?$AAs?$AA?0?$AA?5?$AAo?$AAf?$AAf?$AAs@ ; `string'
PUBLIC	??_C@_1HE@LDDPLIPE@?$AAR?$AAe?$AAg?$AAe?$AAx?$AA?5?$AAm?$AAa?$AAt?$AAc?$AAh?$AA?5?$AAi?$AAs?$AA?5?$AAo?$AAf?$AA?5?$AAl?$AAe?$AAn?$AAg?$AAt?$AAh?$AA?5?$AAz?$AAe?$AAr?$AAo?$AA?4?$AA?5?$AAA@ ; `string'
PUBLIC	??_C@_02DKCKIIND@?$CFs?$AA@			; `string'
PUBLIC	??_C@_1BO@JKHMGOKN@?$AAN?$AAo?$AA?5?$AAm?$AAa?$AAt?$AAc?$AAh?$AA?5?$AAi?$AAn?$AA?5?$AA?$CF?$AAs?$AA?$AA@ ; `string'
PUBLIC	??_C@_1EI@CNIHNIJL@?$AAS?$AAk?$AAi?$AAp?$AAp?$AAi?$AAn?$AAg?$AA?5?$AA?$CF?$AAs?$AA?3?$AA?5?$AAE?$AAr?$AAr?$AAo?$AAr?$AA?5?$AAo?$AAp?$AAe?$AAn?$AAi?$AAn?$AAg?$AA?5?$AAf?$AAi?$AAl?$AAe?$AA?3@ ; `string'
PUBLIC	??_C@_1EI@CDNHONOO@?$AAS?$AAk?$AAi?$AAp?$AAp?$AAi?$AAn?$AAg?$AA?5?$AA?$CF?$AAs?$AA?3?$AA?5?$AAE?$AAr?$AAr?$AAo?$AAr?$AA?5?$AAf?$AAs?$AAt?$AAa?$AAt?$AA?$CI?$AA?$CJ?$AAi?$AAn?$AAg?$AA?5?$AAf?$AAi@ ; `string'
PUBLIC	??_C@_1FA@CMPEALJK@?$AAS?$AAk?$AAi?$AAp?$AAp?$AAi?$AAn?$AAg?$AA?5?$AA?$CF?$AAs?$AA?3?$AA?5?$AAs?$AAt?$AAd?$AAo?$AAu?$AAt?$AA?5?$AAi?$AAs?$AA?5?$AAr?$AAe?$AAd?$AAi?$AAr?$AAe?$AAc?$AAt?$AAe@ ; `string'
PUBLIC	??_C@_1EI@OLALLIOB@?$AAS?$AAk?$AAi?$AAp?$AAp?$AAi?$AAn?$AAg?$AA?5?$AA?$CF?$AAs?$AA?3?$AA?5?$AAM?$AAo?$AAd?$AAe?$AA?5?$AA?$CF?$AAu?$AA?5?$AAi?$AAs?$AA?5?$AAn?$AAo?$AAt?$AA?5?$AAa?$AA?5?$AAf?$AAi@ ; `string'
PUBLIC	??_C@_1EK@CIAOHDJP@?$AA?$CF?$AAs?$AA?5?$AAi?$AAs?$AA?5?$AAa?$AA?5?$AAn?$AAa?$AAm?$AAe?$AAd?$AA?5?$AAp?$AAi?$AAp?$AAe?$AA?4?$AA?5?$AAs?$AAt?$AAr?$AAe?$AAa?$AAm?$AA?5?$AAs?$AAe?$AAa?$AAr?$AAc@ ; `string'
PUBLIC	??_C@_01KDCPPGHE@r?$AA@				; `string'
PUBLIC	??_C@_1DI@JHHFKBFE@?$AAS?$AAk?$AAi?$AAp?$AAp?$AAi?$AAn?$AAg?$AA?5?$AA?$CF?$AAs?$AA?3?$AA?5?$AAf?$AAi?$AAl?$AAe?$AA?5?$AAi?$AAs?$AA?5?$AAe?$AAm?$AAp?$AAt?$AAy?$AA?4?$AA?$AA@ ; `string'
PUBLIC	??_C@_1II@PDENADBF@?$AAS?$AAk?$AAi?$AAp?$AAp?$AAi?$AAn?$AAg?$AA?5?$AA?$CF?$AAs?$AA?3?$AA?5?$AAp?$AAc?$AAr?$AAe?$AA1?$AA6?$AA_?$AAe?$AAx?$AAe?$AAc?$AA?$CI?$AA?$CJ?$AA?5?$AAc?$AAa?$AAn?$AA?8?$AAt@ ; `string'
PUBLIC	??_C@_1DI@CNEOJDHD@?$AAF?$AAi?$AAl?$AAe?$AA?5?$AA?$CF?$AAs?$AA?5?$AAf?$AAa?$AAi?$AAl?$AAe?$AAd?$AA?5?$AAt?$AAo?$AA?5?$AAl?$AAo?$AAa?$AAd?$AA?3?$AA?5?$AA?$CF?$AAs?$AA?4?$AA?$AA@ ; `string'
PUBLIC	??_C@_1EC@LFJPJIFB@?$AAC?$AAa?$AAn?$AAn?$AAo?$AAt?$AA?5?$AAd?$AAe?$AAc?$AAo?$AAm?$AAp?$AAr?$AAe?$AAs?$AAs?$AA?5?$AAz?$AAi?$AAp?$AAp?$AAe?$AAd?$AA?5?$AAf?$AAi?$AAl?$AAe?$AA?5?$AA?$CF?$AAs@ ; `string'
PUBLIC	??_C@_1CE@LGEIGPIG@?$AAW?$AAo?$AAr?$AAk?$AAe?$AAr?$AA?5?$AA?$CF?$AAi?$AA?5?$AAs?$AAt?$AAa?$AAr?$AAt?$AAe?$AAd?$AA?$AA@ ; `string'
PUBLIC	??_C@_1CI@LOHLMJNM@?$AAW?$AAo?$AAr?$AAk?$AAe?$AAr?$AA?5?$AA?$CF?$AAi?$AA?5?$AAf?$AAi?$AAn?$AAi?$AAs?$AAh?$AAe?$AAd?$AA?4?$AA?$AA@ ; `string'
PUBLIC	??_C@_1DK@EPAHHHNO@?$AAR?$AAe?$AAc?$AAu?$AAr?$AAs?$AAi?$AAv?$AAe?$AA?5?$AAd?$AAi?$AAr?$AAe?$AAc?$AAt?$AAo?$AAr?$AAy?$AA?5?$AAl?$AAo?$AAo?$AAp?$AA?3?$AA?5?$AA?$CF?$AAs?$AA?$AA@ ; `string'
PUBLIC	??_C@_1EC@PKFOCHNO@?$AAN?$AAo?$AA?5?$AAr?$AAe?$AAs?$AAu?$AAl?$AAt?$AAs?$AA?5?$AAf?$AAo?$AAu?$AAn?$AAd?$AA?5?$AAi?$AAn?$AA?5?$AAd?$AAi?$AAr?$AAe?$AAc?$AAt?$AAo?$AAr?$AAy?$AA?5?$AA?$CF?$AAs@ ; `string'
PUBLIC	??_C@_1DO@GEPNJJJA@?$AAE?$AAr?$AAr?$AAo?$AAr?$AA?5?$AAo?$AAp?$AAe?$AAn?$AAi?$AAn?$AAg?$AA?5?$AAd?$AAi?$AAr?$AAe?$AAc?$AAt?$AAo?$AAr?$AAy?$AA?5?$AA?$CF?$AAs?$AA?3?$AA?5?$AA?$CF?$AAs?$AA?$AA@ ; `string'
PUBLIC	??_C@_1EM@BMPPNIIF@?$AAS?$AAk?$AAi?$AAp?$AAp?$AAi?$AAn?$AAg?$AA?5?$AA?$CF?$AAs?$AA?5?$AAd?$AAu?$AAe?$AA?5?$AAt?$AAo?$AA?5?$AAf?$AAi?$AAl?$AAe?$AA_?$AAs?$AAe?$AAa?$AAr?$AAc?$AAh?$AA_?$AAr@ ; `string'
PUBLIC	??_C@_1FO@ONCBEKAJ@?$AAm?$AAa?$AAt?$AAc?$AAh?$AA_?$AAf?$AAi?$AAl?$AAe?$AAs?$AA?3?$AA?5?$AAf?$AAi?$AAl?$AAe?$AA_?$AAs?$AAe?$AAa?$AAr?$AAc?$AAh?$AA_?$AAr?$AAe?$AAg?$AAe?$AAx?$AA?5?$AAm@ ; `string'
PUBLIC	??_C@_1CO@KJGJAJIJ@?$AA?$CF?$AAs?$AA?5?$AAa?$AAd?$AAd?$AAe?$AAd?$AA?5?$AAt?$AAo?$AA?5?$AAw?$AAo?$AAr?$AAk?$AA?5?$AAq?$AAu?$AAe?$AAu?$AAe?$AA?$AA@ ; `string'
PUBLIC	??_C@_1CC@FEAEMNFK@?$AAS?$AAe?$AAa?$AAr?$AAc?$AAh?$AAi?$AAn?$AAg?$AA?5?$AAd?$AAi?$AAr?$AA?5?$AA?$CF?$AAs?$AA?$AA@ ; `string'
PUBLIC	??_C@_1GM@EGDNJCPI@?$AAS?$AAk?$AAi?$AAp?$AAp?$AAi?$AAn?$AAg?$AA?5?$AA?$CF?$AAs?$AA?4?$AA?5?$AAU?$AAs?$AAe?$AA?5?$AAt?$AAh?$AAe?$AA?5?$AA?9?$AA?9?$AAd?$AAe?$AAp?$AAt?$AAh?$AA?5?$AAo?$AAp?$AAt@ ; `string'
EXTRN	__imp___fdopen:PROC
EXTRN	__imp___close:PROC
EXTRN	__imp__LocalFree@4:PROC
EXTRN	__imp__DeleteFileW@4:PROC
EXTRN	__imp__CreateFileMappingW@24:PROC
EXTRN	__imp__fprintf:PROC
EXTRN	__imp__FormatMessageW@28:PROC
EXTRN	__imp__UnmapViewOfFile@4:PROC
EXTRN	__imp__MapViewOfFile@20:PROC
EXTRN	__imp_?_wopen@@YAHPB_WHH@Z:PROC
?work_queue_mtx@@3PAUpthread_mutex_t_@@A DD 01H DUP (?)	; work_queue_mtx
?done_adding_files@@3HA DD 01H DUP (?)			; done_adding_files
?print_mtx@@3PAUpthread_mutex_t_@@A DD 01H DUP (?)	; print_mtx
?work_queue@@3PAUwork_queue_t@@A DD 01H DUP (?)		; work_queue
?stats_mtx@@3PAUpthread_mutex_t_@@A DD 01H DUP (?)	; stats_mtx
?work_queue_tail@@3PAUwork_queue_t@@A DD 01H DUP (?)	; work_queue_tail
?symhash@@3PAUsymdir_t@@A DD 01H DUP (?)		; symhash
?files_ready@@3PAUpthread_cond_t_@@A DD 01H DUP (?)	; files_ready
?find_skip_lookup@@3PAIA DD 01H DUP (?)			; find_skip_lookup
?alpha_skip_lookup@@3PAIA DD 0100H DUP (?)		; alpha_skip_lookup
_BSS	ENDS
;	COMDAT ??_C@_1GM@EGDNJCPI@?$AAS?$AAk?$AAi?$AAp?$AAp?$AAi?$AAn?$AAg?$AA?5?$AA?$CF?$AAs?$AA?4?$AA?5?$AAU?$AAs?$AAe?$AA?5?$AAt?$AAh?$AAe?$AA?5?$AA?9?$AA?9?$AAd?$AAe?$AAp?$AAt?$AAh?$AA?5?$AAo?$AAp?$AAt@
CONST	SEGMENT
??_C@_1GM@EGDNJCPI@?$AAS?$AAk?$AAi?$AAp?$AAp?$AAi?$AAn?$AAg?$AA?5?$AA?$CF?$AAs?$AA?4?$AA?5?$AAU?$AAs?$AAe?$AA?5?$AAt?$AAh?$AAe?$AA?5?$AA?9?$AA?9?$AAd?$AAe?$AAp?$AAt?$AAh?$AA?5?$AAo?$AAp?$AAt@ DB 'S'
	DB	00H, 'k', 00H, 'i', 00H, 'p', 00H, 'p', 00H, 'i', 00H, 'n', 00H
	DB	'g', 00H, ' ', 00H, '%', 00H, 's', 00H, '.', 00H, ' ', 00H, 'U'
	DB	00H, 's', 00H, 'e', 00H, ' ', 00H, 't', 00H, 'h', 00H, 'e', 00H
	DB	' ', 00H, '-', 00H, '-', 00H, 'd', 00H, 'e', 00H, 'p', 00H, 't'
	DB	00H, 'h', 00H, ' ', 00H, 'o', 00H, 'p', 00H, 't', 00H, 'i', 00H
	DB	'o', 00H, 'n', 00H, ' ', 00H, 't', 00H, 'o', 00H, ' ', 00H, 's'
	DB	00H, 'e', 00H, 'a', 00H, 'r', 00H, 'c', 00H, 'h', 00H, ' ', 00H
	DB	'd', 00H, 'e', 00H, 'e', 00H, 'p', 00H, 'e', 00H, 'r', 00H, '.'
	DB	00H, 00H, 00H				; `string'
CONST	ENDS
;	COMDAT ??_C@_1CC@FEAEMNFK@?$AAS?$AAe?$AAa?$AAr?$AAc?$AAh?$AAi?$AAn?$AAg?$AA?5?$AAd?$AAi?$AAr?$AA?5?$AA?$CF?$AAs?$AA?$AA@
CONST	SEGMENT
??_C@_1CC@FEAEMNFK@?$AAS?$AAe?$AAa?$AAr?$AAc?$AAh?$AAi?$AAn?$AAg?$AA?5?$AAd?$AAi?$AAr?$AA?5?$AA?$CF?$AAs?$AA?$AA@ DB 'S'
	DB	00H, 'e', 00H, 'a', 00H, 'r', 00H, 'c', 00H, 'h', 00H, 'i', 00H
	DB	'n', 00H, 'g', 00H, ' ', 00H, 'd', 00H, 'i', 00H, 'r', 00H, ' '
	DB	00H, '%', 00H, 's', 00H, 00H, 00H		; `string'
CONST	ENDS
;	COMDAT ??_C@_1CO@KJGJAJIJ@?$AA?$CF?$AAs?$AA?5?$AAa?$AAd?$AAd?$AAe?$AAd?$AA?5?$AAt?$AAo?$AA?5?$AAw?$AAo?$AAr?$AAk?$AA?5?$AAq?$AAu?$AAe?$AAu?$AAe?$AA?$AA@
CONST	SEGMENT
??_C@_1CO@KJGJAJIJ@?$AA?$CF?$AAs?$AA?5?$AAa?$AAd?$AAd?$AAe?$AAd?$AA?5?$AAt?$AAo?$AA?5?$AAw?$AAo?$AAr?$AAk?$AA?5?$AAq?$AAu?$AAe?$AAu?$AAe?$AA?$AA@ DB '%'
	DB	00H, 's', 00H, ' ', 00H, 'a', 00H, 'd', 00H, 'd', 00H, 'e', 00H
	DB	'd', 00H, ' ', 00H, 't', 00H, 'o', 00H, ' ', 00H, 'w', 00H, 'o'
	DB	00H, 'r', 00H, 'k', 00H, ' ', 00H, 'q', 00H, 'u', 00H, 'e', 00H
	DB	'u', 00H, 'e', 00H, 00H, 00H			; `string'
CONST	ENDS
;	COMDAT ??_C@_1FO@ONCBEKAJ@?$AAm?$AAa?$AAt?$AAc?$AAh?$AA_?$AAf?$AAi?$AAl?$AAe?$AAs?$AA?3?$AA?5?$AAf?$AAi?$AAl?$AAe?$AA_?$AAs?$AAe?$AAa?$AAr?$AAc?$AAh?$AA_?$AAr?$AAe?$AAg?$AAe?$AAx?$AA?5?$AAm@
CONST	SEGMENT
??_C@_1FO@ONCBEKAJ@?$AAm?$AAa?$AAt?$AAc?$AAh?$AA_?$AAf?$AAi?$AAl?$AAe?$AAs?$AA?3?$AA?5?$AAf?$AAi?$AAl?$AAe?$AA_?$AAs?$AAe?$AAa?$AAr?$AAc?$AAh?$AA_?$AAr?$AAe?$AAg?$AAe?$AAx?$AA?5?$AAm@ DB 'm'
	DB	00H, 'a', 00H, 't', 00H, 'c', 00H, 'h', 00H, '_', 00H, 'f', 00H
	DB	'i', 00H, 'l', 00H, 'e', 00H, 's', 00H, ':', 00H, ' ', 00H, 'f'
	DB	00H, 'i', 00H, 'l', 00H, 'e', 00H, '_', 00H, 's', 00H, 'e', 00H
	DB	'a', 00H, 'r', 00H, 'c', 00H, 'h', 00H, '_', 00H, 'r', 00H, 'e'
	DB	00H, 'g', 00H, 'e', 00H, 'x', 00H, ' ', 00H, 'm', 00H, 'a', 00H
	DB	't', 00H, 'c', 00H, 'h', 00H, 'e', 00H, 'd', 00H, ' ', 00H, 'f'
	DB	00H, 'o', 00H, 'r', 00H, ' ', 00H, '%', 00H, 's', 00H, '.', 00H
	DB	00H, 00H					; `string'
CONST	ENDS
;	COMDAT ??_C@_1EM@BMPPNIIF@?$AAS?$AAk?$AAi?$AAp?$AAp?$AAi?$AAn?$AAg?$AA?5?$AA?$CF?$AAs?$AA?5?$AAd?$AAu?$AAe?$AA?5?$AAt?$AAo?$AA?5?$AAf?$AAi?$AAl?$AAe?$AA_?$AAs?$AAe?$AAa?$AAr?$AAc?$AAh?$AA_?$AAr@
CONST	SEGMENT
??_C@_1EM@BMPPNIIF@?$AAS?$AAk?$AAi?$AAp?$AAp?$AAi?$AAn?$AAg?$AA?5?$AA?$CF?$AAs?$AA?5?$AAd?$AAu?$AAe?$AA?5?$AAt?$AAo?$AA?5?$AAf?$AAi?$AAl?$AAe?$AA_?$AAs?$AAe?$AAa?$AAr?$AAc?$AAh?$AA_?$AAr@ DB 'S'
	DB	00H, 'k', 00H, 'i', 00H, 'p', 00H, 'p', 00H, 'i', 00H, 'n', 00H
	DB	'g', 00H, ' ', 00H, '%', 00H, 's', 00H, ' ', 00H, 'd', 00H, 'u'
	DB	00H, 'e', 00H, ' ', 00H, 't', 00H, 'o', 00H, ' ', 00H, 'f', 00H
	DB	'i', 00H, 'l', 00H, 'e', 00H, '_', 00H, 's', 00H, 'e', 00H, 'a'
	DB	00H, 'r', 00H, 'c', 00H, 'h', 00H, '_', 00H, 'r', 00H, 'e', 00H
	DB	'g', 00H, 'e', 00H, 'x', 00H, '.', 00H, 00H, 00H ; `string'
CONST	ENDS
;	COMDAT ??_C@_1DO@GEPNJJJA@?$AAE?$AAr?$AAr?$AAo?$AAr?$AA?5?$AAo?$AAp?$AAe?$AAn?$AAi?$AAn?$AAg?$AA?5?$AAd?$AAi?$AAr?$AAe?$AAc?$AAt?$AAo?$AAr?$AAy?$AA?5?$AA?$CF?$AAs?$AA?3?$AA?5?$AA?$CF?$AAs?$AA?$AA@
CONST	SEGMENT
??_C@_1DO@GEPNJJJA@?$AAE?$AAr?$AAr?$AAo?$AAr?$AA?5?$AAo?$AAp?$AAe?$AAn?$AAi?$AAn?$AAg?$AA?5?$AAd?$AAi?$AAr?$AAe?$AAc?$AAt?$AAo?$AAr?$AAy?$AA?5?$AA?$CF?$AAs?$AA?3?$AA?5?$AA?$CF?$AAs?$AA?$AA@ DB 'E'
	DB	00H, 'r', 00H, 'r', 00H, 'o', 00H, 'r', 00H, ' ', 00H, 'o', 00H
	DB	'p', 00H, 'e', 00H, 'n', 00H, 'i', 00H, 'n', 00H, 'g', 00H, ' '
	DB	00H, 'd', 00H, 'i', 00H, 'r', 00H, 'e', 00H, 'c', 00H, 't', 00H
	DB	'o', 00H, 'r', 00H, 'y', 00H, ' ', 00H, '%', 00H, 's', 00H, ':'
	DB	00H, ' ', 00H, '%', 00H, 's', 00H, 00H, 00H	; `string'
CONST	ENDS
;	COMDAT ??_C@_1EC@PKFOCHNO@?$AAN?$AAo?$AA?5?$AAr?$AAe?$AAs?$AAu?$AAl?$AAt?$AAs?$AA?5?$AAf?$AAo?$AAu?$AAn?$AAd?$AA?5?$AAi?$AAn?$AA?5?$AAd?$AAi?$AAr?$AAe?$AAc?$AAt?$AAo?$AAr?$AAy?$AA?5?$AA?$CF?$AAs@
CONST	SEGMENT
??_C@_1EC@PKFOCHNO@?$AAN?$AAo?$AA?5?$AAr?$AAe?$AAs?$AAu?$AAl?$AAt?$AAs?$AA?5?$AAf?$AAo?$AAu?$AAn?$AAd?$AA?5?$AAi?$AAn?$AA?5?$AAd?$AAi?$AAr?$AAe?$AAc?$AAt?$AAo?$AAr?$AAy?$AA?5?$AA?$CF?$AAs@ DB 'N'
	DB	00H, 'o', 00H, ' ', 00H, 'r', 00H, 'e', 00H, 's', 00H, 'u', 00H
	DB	'l', 00H, 't', 00H, 's', 00H, ' ', 00H, 'f', 00H, 'o', 00H, 'u'
	DB	00H, 'n', 00H, 'd', 00H, ' ', 00H, 'i', 00H, 'n', 00H, ' ', 00H
	DB	'd', 00H, 'i', 00H, 'r', 00H, 'e', 00H, 'c', 00H, 't', 00H, 'o'
	DB	00H, 'r', 00H, 'y', 00H, ' ', 00H, '%', 00H, 's', 00H, 00H, 00H ; `string'
CONST	ENDS
;	COMDAT ??_C@_1DK@EPAHHHNO@?$AAR?$AAe?$AAc?$AAu?$AAr?$AAs?$AAi?$AAv?$AAe?$AA?5?$AAd?$AAi?$AAr?$AAe?$AAc?$AAt?$AAo?$AAr?$AAy?$AA?5?$AAl?$AAo?$AAo?$AAp?$AA?3?$AA?5?$AA?$CF?$AAs?$AA?$AA@
CONST	SEGMENT
??_C@_1DK@EPAHHHNO@?$AAR?$AAe?$AAc?$AAu?$AAr?$AAs?$AAi?$AAv?$AAe?$AA?5?$AAd?$AAi?$AAr?$AAe?$AAc?$AAt?$AAo?$AAr?$AAy?$AA?5?$AAl?$AAo?$AAo?$AAp?$AA?3?$AA?5?$AA?$CF?$AAs?$AA?$AA@ DB 'R'
	DB	00H, 'e', 00H, 'c', 00H, 'u', 00H, 'r', 00H, 's', 00H, 'i', 00H
	DB	'v', 00H, 'e', 00H, ' ', 00H, 'd', 00H, 'i', 00H, 'r', 00H, 'e'
	DB	00H, 'c', 00H, 't', 00H, 'o', 00H, 'r', 00H, 'y', 00H, ' ', 00H
	DB	'l', 00H, 'o', 00H, 'o', 00H, 'p', 00H, ':', 00H, ' ', 00H, '%'
	DB	00H, 's', 00H, 00H, 00H			; `string'
CONST	ENDS
;	COMDAT ??_C@_1CI@LOHLMJNM@?$AAW?$AAo?$AAr?$AAk?$AAe?$AAr?$AA?5?$AA?$CF?$AAi?$AA?5?$AAf?$AAi?$AAn?$AAi?$AAs?$AAh?$AAe?$AAd?$AA?4?$AA?$AA@
CONST	SEGMENT
??_C@_1CI@LOHLMJNM@?$AAW?$AAo?$AAr?$AAk?$AAe?$AAr?$AA?5?$AA?$CF?$AAi?$AA?5?$AAf?$AAi?$AAn?$AAi?$AAs?$AAh?$AAe?$AAd?$AA?4?$AA?$AA@ DB 'W'
	DB	00H, 'o', 00H, 'r', 00H, 'k', 00H, 'e', 00H, 'r', 00H, ' ', 00H
	DB	'%', 00H, 'i', 00H, ' ', 00H, 'f', 00H, 'i', 00H, 'n', 00H, 'i'
	DB	00H, 's', 00H, 'h', 00H, 'e', 00H, 'd', 00H, '.', 00H, 00H, 00H ; `string'
CONST	ENDS
;	COMDAT ??_C@_1CE@LGEIGPIG@?$AAW?$AAo?$AAr?$AAk?$AAe?$AAr?$AA?5?$AA?$CF?$AAi?$AA?5?$AAs?$AAt?$AAa?$AAr?$AAt?$AAe?$AAd?$AA?$AA@
CONST	SEGMENT
??_C@_1CE@LGEIGPIG@?$AAW?$AAo?$AAr?$AAk?$AAe?$AAr?$AA?5?$AA?$CF?$AAi?$AA?5?$AAs?$AAt?$AAa?$AAr?$AAt?$AAe?$AAd?$AA?$AA@ DB 'W'
	DB	00H, 'o', 00H, 'r', 00H, 'k', 00H, 'e', 00H, 'r', 00H, ' ', 00H
	DB	'%', 00H, 'i', 00H, ' ', 00H, 's', 00H, 't', 00H, 'a', 00H, 'r'
	DB	00H, 't', 00H, 'e', 00H, 'd', 00H, 00H, 00H	; `string'
CONST	ENDS
;	COMDAT ??_C@_1EC@LFJPJIFB@?$AAC?$AAa?$AAn?$AAn?$AAo?$AAt?$AA?5?$AAd?$AAe?$AAc?$AAo?$AAm?$AAp?$AAr?$AAe?$AAs?$AAs?$AA?5?$AAz?$AAi?$AAp?$AAp?$AAe?$AAd?$AA?5?$AAf?$AAi?$AAl?$AAe?$AA?5?$AA?$CF?$AAs@
CONST	SEGMENT
??_C@_1EC@LFJPJIFB@?$AAC?$AAa?$AAn?$AAn?$AAo?$AAt?$AA?5?$AAd?$AAe?$AAc?$AAo?$AAm?$AAp?$AAr?$AAe?$AAs?$AAs?$AA?5?$AAz?$AAi?$AAp?$AAp?$AAe?$AAd?$AA?5?$AAf?$AAi?$AAl?$AAe?$AA?5?$AA?$CF?$AAs@ DB 'C'
	DB	00H, 'a', 00H, 'n', 00H, 'n', 00H, 'o', 00H, 't', 00H, ' ', 00H
	DB	'd', 00H, 'e', 00H, 'c', 00H, 'o', 00H, 'm', 00H, 'p', 00H, 'r'
	DB	00H, 'e', 00H, 's', 00H, 's', 00H, ' ', 00H, 'z', 00H, 'i', 00H
	DB	'p', 00H, 'p', 00H, 'e', 00H, 'd', 00H, ' ', 00H, 'f', 00H, 'i'
	DB	00H, 'l', 00H, 'e', 00H, ' ', 00H, '%', 00H, 's', 00H, 00H, 00H ; `string'
CONST	ENDS
;	COMDAT ??_C@_1DI@CNEOJDHD@?$AAF?$AAi?$AAl?$AAe?$AA?5?$AA?$CF?$AAs?$AA?5?$AAf?$AAa?$AAi?$AAl?$AAe?$AAd?$AA?5?$AAt?$AAo?$AA?5?$AAl?$AAo?$AAa?$AAd?$AA?3?$AA?5?$AA?$CF?$AAs?$AA?4?$AA?$AA@
CONST	SEGMENT
??_C@_1DI@CNEOJDHD@?$AAF?$AAi?$AAl?$AAe?$AA?5?$AA?$CF?$AAs?$AA?5?$AAf?$AAa?$AAi?$AAl?$AAe?$AAd?$AA?5?$AAt?$AAo?$AA?5?$AAl?$AAo?$AAa?$AAd?$AA?3?$AA?5?$AA?$CF?$AAs?$AA?4?$AA?$AA@ DB 'F'
	DB	00H, 'i', 00H, 'l', 00H, 'e', 00H, ' ', 00H, '%', 00H, 's', 00H
	DB	' ', 00H, 'f', 00H, 'a', 00H, 'i', 00H, 'l', 00H, 'e', 00H, 'd'
	DB	00H, ' ', 00H, 't', 00H, 'o', 00H, ' ', 00H, 'l', 00H, 'o', 00H
	DB	'a', 00H, 'd', 00H, ':', 00H, ' ', 00H, '%', 00H, 's', 00H, '.'
	DB	00H, 00H, 00H				; `string'
CONST	ENDS
;	COMDAT ??_C@_1II@PDENADBF@?$AAS?$AAk?$AAi?$AAp?$AAp?$AAi?$AAn?$AAg?$AA?5?$AA?$CF?$AAs?$AA?3?$AA?5?$AAp?$AAc?$AAr?$AAe?$AA1?$AA6?$AA_?$AAe?$AAx?$AAe?$AAc?$AA?$CI?$AA?$CJ?$AA?5?$AAc?$AAa?$AAn?$AA?8?$AAt@
CONST	SEGMENT
??_C@_1II@PDENADBF@?$AAS?$AAk?$AAi?$AAp?$AAp?$AAi?$AAn?$AAg?$AA?5?$AA?$CF?$AAs?$AA?3?$AA?5?$AAp?$AAc?$AAr?$AAe?$AA1?$AA6?$AA_?$AAe?$AAx?$AAe?$AAc?$AA?$CI?$AA?$CJ?$AA?5?$AAc?$AAa?$AAn?$AA?8?$AAt@ DB 'S'
	DB	00H, 'k', 00H, 'i', 00H, 'p', 00H, 'p', 00H, 'i', 00H, 'n', 00H
	DB	'g', 00H, ' ', 00H, '%', 00H, 's', 00H, ':', 00H, ' ', 00H, 'p'
	DB	00H, 'c', 00H, 'r', 00H, 'e', 00H, '1', 00H, '6', 00H, '_', 00H
	DB	'e', 00H, 'x', 00H, 'e', 00H, 'c', 00H, '(', 00H, ')', 00H, ' '
	DB	00H, 'c', 00H, 'a', 00H, 'n', 00H, '''', 00H, 't', 00H, ' ', 00H
	DB	'h', 00H, 'a', 00H, 'n', 00H, 'd', 00H, 'l', 00H, 'e', 00H, ' '
	DB	00H, 'f', 00H, 'i', 00H, 'l', 00H, 'e', 00H, 's', 00H, ' ', 00H
	DB	'l', 00H, 'a', 00H, 'r', 00H, 'g', 00H, 'e', 00H, 'r', 00H, ' '
	DB	00H, 't', 00H, 'h', 00H, 'a', 00H, 'n', 00H, ' ', 00H, '%', 00H
	DB	'i', 00H, ' ', 00H, 'b', 00H, 'y', 00H, 't', 00H, 'e', 00H, 's'
	DB	00H, '.', 00H, 00H, 00H			; `string'
CONST	ENDS
;	COMDAT ??_C@_1DI@JHHFKBFE@?$AAS?$AAk?$AAi?$AAp?$AAp?$AAi?$AAn?$AAg?$AA?5?$AA?$CF?$AAs?$AA?3?$AA?5?$AAf?$AAi?$AAl?$AAe?$AA?5?$AAi?$AAs?$AA?5?$AAe?$AAm?$AAp?$AAt?$AAy?$AA?4?$AA?$AA@
CONST	SEGMENT
??_C@_1DI@JHHFKBFE@?$AAS?$AAk?$AAi?$AAp?$AAp?$AAi?$AAn?$AAg?$AA?5?$AA?$CF?$AAs?$AA?3?$AA?5?$AAf?$AAi?$AAl?$AAe?$AA?5?$AAi?$AAs?$AA?5?$AAe?$AAm?$AAp?$AAt?$AAy?$AA?4?$AA?$AA@ DB 'S'
	DB	00H, 'k', 00H, 'i', 00H, 'p', 00H, 'p', 00H, 'i', 00H, 'n', 00H
	DB	'g', 00H, ' ', 00H, '%', 00H, 's', 00H, ':', 00H, ' ', 00H, 'f'
	DB	00H, 'i', 00H, 'l', 00H, 'e', 00H, ' ', 00H, 'i', 00H, 's', 00H
	DB	' ', 00H, 'e', 00H, 'm', 00H, 'p', 00H, 't', 00H, 'y', 00H, '.'
	DB	00H, 00H, 00H				; `string'
CONST	ENDS
;	COMDAT ??_C@_01KDCPPGHE@r?$AA@
CONST	SEGMENT
??_C@_01KDCPPGHE@r?$AA@ DB 'r', 00H			; `string'
CONST	ENDS
;	COMDAT ??_C@_1EK@CIAOHDJP@?$AA?$CF?$AAs?$AA?5?$AAi?$AAs?$AA?5?$AAa?$AA?5?$AAn?$AAa?$AAm?$AAe?$AAd?$AA?5?$AAp?$AAi?$AAp?$AAe?$AA?4?$AA?5?$AAs?$AAt?$AAr?$AAe?$AAa?$AAm?$AA?5?$AAs?$AAe?$AAa?$AAr?$AAc@
CONST	SEGMENT
??_C@_1EK@CIAOHDJP@?$AA?$CF?$AAs?$AA?5?$AAi?$AAs?$AA?5?$AAa?$AA?5?$AAn?$AAa?$AAm?$AAe?$AAd?$AA?5?$AAp?$AAi?$AAp?$AAe?$AA?4?$AA?5?$AAs?$AAt?$AAr?$AAe?$AAa?$AAm?$AA?5?$AAs?$AAe?$AAa?$AAr?$AAc@ DB '%'
	DB	00H, 's', 00H, ' ', 00H, 'i', 00H, 's', 00H, ' ', 00H, 'a', 00H
	DB	' ', 00H, 'n', 00H, 'a', 00H, 'm', 00H, 'e', 00H, 'd', 00H, ' '
	DB	00H, 'p', 00H, 'i', 00H, 'p', 00H, 'e', 00H, '.', 00H, ' ', 00H
	DB	's', 00H, 't', 00H, 'r', 00H, 'e', 00H, 'a', 00H, 'm', 00H, ' '
	DB	00H, 's', 00H, 'e', 00H, 'a', 00H, 'r', 00H, 'c', 00H, 'h', 00H
	DB	'i', 00H, 'n', 00H, 'g', 00H, 00H, 00H	; `string'
CONST	ENDS
;	COMDAT ??_C@_1EI@OLALLIOB@?$AAS?$AAk?$AAi?$AAp?$AAp?$AAi?$AAn?$AAg?$AA?5?$AA?$CF?$AAs?$AA?3?$AA?5?$AAM?$AAo?$AAd?$AAe?$AA?5?$AA?$CF?$AAu?$AA?5?$AAi?$AAs?$AA?5?$AAn?$AAo?$AAt?$AA?5?$AAa?$AA?5?$AAf?$AAi@
CONST	SEGMENT
??_C@_1EI@OLALLIOB@?$AAS?$AAk?$AAi?$AAp?$AAp?$AAi?$AAn?$AAg?$AA?5?$AA?$CF?$AAs?$AA?3?$AA?5?$AAM?$AAo?$AAd?$AAe?$AA?5?$AA?$CF?$AAu?$AA?5?$AAi?$AAs?$AA?5?$AAn?$AAo?$AAt?$AA?5?$AAa?$AA?5?$AAf?$AAi@ DB 'S'
	DB	00H, 'k', 00H, 'i', 00H, 'p', 00H, 'p', 00H, 'i', 00H, 'n', 00H
	DB	'g', 00H, ' ', 00H, '%', 00H, 's', 00H, ':', 00H, ' ', 00H, 'M'
	DB	00H, 'o', 00H, 'd', 00H, 'e', 00H, ' ', 00H, '%', 00H, 'u', 00H
	DB	' ', 00H, 'i', 00H, 's', 00H, ' ', 00H, 'n', 00H, 'o', 00H, 't'
	DB	00H, ' ', 00H, 'a', 00H, ' ', 00H, 'f', 00H, 'i', 00H, 'l', 00H
	DB	'e', 00H, '.', 00H, 00H, 00H			; `string'
CONST	ENDS
;	COMDAT ??_C@_1FA@CMPEALJK@?$AAS?$AAk?$AAi?$AAp?$AAp?$AAi?$AAn?$AAg?$AA?5?$AA?$CF?$AAs?$AA?3?$AA?5?$AAs?$AAt?$AAd?$AAo?$AAu?$AAt?$AA?5?$AAi?$AAs?$AA?5?$AAr?$AAe?$AAd?$AAi?$AAr?$AAe?$AAc?$AAt?$AAe@
CONST	SEGMENT
??_C@_1FA@CMPEALJK@?$AAS?$AAk?$AAi?$AAp?$AAp?$AAi?$AAn?$AAg?$AA?5?$AA?$CF?$AAs?$AA?3?$AA?5?$AAs?$AAt?$AAd?$AAo?$AAu?$AAt?$AA?5?$AAi?$AAs?$AA?5?$AAr?$AAe?$AAd?$AAi?$AAr?$AAe?$AAc?$AAt?$AAe@ DB 'S'
	DB	00H, 'k', 00H, 'i', 00H, 'p', 00H, 'p', 00H, 'i', 00H, 'n', 00H
	DB	'g', 00H, ' ', 00H, '%', 00H, 's', 00H, ':', 00H, ' ', 00H, 's'
	DB	00H, 't', 00H, 'd', 00H, 'o', 00H, 'u', 00H, 't', 00H, ' ', 00H
	DB	'i', 00H, 's', 00H, ' ', 00H, 'r', 00H, 'e', 00H, 'd', 00H, 'i'
	DB	00H, 'r', 00H, 'e', 00H, 'c', 00H, 't', 00H, 'e', 00H, 'd', 00H
	DB	' ', 00H, 't', 00H, 'o', 00H, ' ', 00H, 'i', 00H, 't', 00H, 00H
	DB	00H						; `string'
CONST	ENDS
;	COMDAT ??_C@_1EI@CDNHONOO@?$AAS?$AAk?$AAi?$AAp?$AAp?$AAi?$AAn?$AAg?$AA?5?$AA?$CF?$AAs?$AA?3?$AA?5?$AAE?$AAr?$AAr?$AAo?$AAr?$AA?5?$AAf?$AAs?$AAt?$AAa?$AAt?$AA?$CI?$AA?$CJ?$AAi?$AAn?$AAg?$AA?5?$AAf?$AAi@
CONST	SEGMENT
??_C@_1EI@CDNHONOO@?$AAS?$AAk?$AAi?$AAp?$AAp?$AAi?$AAn?$AAg?$AA?5?$AA?$CF?$AAs?$AA?3?$AA?5?$AAE?$AAr?$AAr?$AAo?$AAr?$AA?5?$AAf?$AAs?$AAt?$AAa?$AAt?$AA?$CI?$AA?$CJ?$AAi?$AAn?$AAg?$AA?5?$AAf?$AAi@ DB 'S'
	DB	00H, 'k', 00H, 'i', 00H, 'p', 00H, 'p', 00H, 'i', 00H, 'n', 00H
	DB	'g', 00H, ' ', 00H, '%', 00H, 's', 00H, ':', 00H, ' ', 00H, 'E'
	DB	00H, 'r', 00H, 'r', 00H, 'o', 00H, 'r', 00H, ' ', 00H, 'f', 00H
	DB	's', 00H, 't', 00H, 'a', 00H, 't', 00H, '(', 00H, ')', 00H, 'i'
	DB	00H, 'n', 00H, 'g', 00H, ' ', 00H, 'f', 00H, 'i', 00H, 'l', 00H
	DB	'e', 00H, '.', 00H, 00H, 00H			; `string'
CONST	ENDS
;	COMDAT ??_C@_1EI@CNIHNIJL@?$AAS?$AAk?$AAi?$AAp?$AAp?$AAi?$AAn?$AAg?$AA?5?$AA?$CF?$AAs?$AA?3?$AA?5?$AAE?$AAr?$AAr?$AAo?$AAr?$AA?5?$AAo?$AAp?$AAe?$AAn?$AAi?$AAn?$AAg?$AA?5?$AAf?$AAi?$AAl?$AAe?$AA?3@
CONST	SEGMENT
??_C@_1EI@CNIHNIJL@?$AAS?$AAk?$AAi?$AAp?$AAp?$AAi?$AAn?$AAg?$AA?5?$AA?$CF?$AAs?$AA?3?$AA?5?$AAE?$AAr?$AAr?$AAo?$AAr?$AA?5?$AAo?$AAp?$AAe?$AAn?$AAi?$AAn?$AAg?$AA?5?$AAf?$AAi?$AAl?$AAe?$AA?3@ DB 'S'
	DB	00H, 'k', 00H, 'i', 00H, 'p', 00H, 'p', 00H, 'i', 00H, 'n', 00H
	DB	'g', 00H, ' ', 00H, '%', 00H, 's', 00H, ':', 00H, ' ', 00H, 'E'
	DB	00H, 'r', 00H, 'r', 00H, 'o', 00H, 'r', 00H, ' ', 00H, 'o', 00H
	DB	'p', 00H, 'e', 00H, 'n', 00H, 'i', 00H, 'n', 00H, 'g', 00H, ' '
	DB	00H, 'f', 00H, 'i', 00H, 'l', 00H, 'e', 00H, ':', 00H, ' ', 00H
	DB	'%', 00H, 's', 00H, 00H, 00H			; `string'
CONST	ENDS
;	COMDAT ??_C@_1BO@JKHMGOKN@?$AAN?$AAo?$AA?5?$AAm?$AAa?$AAt?$AAc?$AAh?$AA?5?$AAi?$AAn?$AA?5?$AA?$CF?$AAs?$AA?$AA@
CONST	SEGMENT
??_C@_1BO@JKHMGOKN@?$AAN?$AAo?$AA?5?$AAm?$AAa?$AAt?$AAc?$AAh?$AA?5?$AAi?$AAn?$AA?5?$AA?$CF?$AAs?$AA?$AA@ DB 'N'
	DB	00H, 'o', 00H, ' ', 00H, 'm', 00H, 'a', 00H, 't', 00H, 'c', 00H
	DB	'h', 00H, ' ', 00H, 'i', 00H, 'n', 00H, ' ', 00H, '%', 00H, 's'
	DB	00H, 00H, 00H				; `string'
CONST	ENDS
;	COMDAT ??_C@_02DKCKIIND@?$CFs?$AA@
CONST	SEGMENT
??_C@_02DKCKIIND@?$CFs?$AA@ DB '%s', 00H		; `string'
CONST	ENDS
;	COMDAT ??_C@_1HE@LDDPLIPE@?$AAR?$AAe?$AAg?$AAe?$AAx?$AA?5?$AAm?$AAa?$AAt?$AAc?$AAh?$AA?5?$AAi?$AAs?$AA?5?$AAo?$AAf?$AA?5?$AAl?$AAe?$AAn?$AAg?$AAt?$AAh?$AA?5?$AAz?$AAe?$AAr?$AAo?$AA?4?$AA?5?$AAA@
CONST	SEGMENT
??_C@_1HE@LDDPLIPE@?$AAR?$AAe?$AAg?$AAe?$AAx?$AA?5?$AAm?$AAa?$AAt?$AAc?$AAh?$AA?5?$AAi?$AAs?$AA?5?$AAo?$AAf?$AA?5?$AAl?$AAe?$AAn?$AAg?$AAt?$AAh?$AA?5?$AAz?$AAe?$AAr?$AAo?$AA?4?$AA?5?$AAA@ DB 'R'
	DB	00H, 'e', 00H, 'g', 00H, 'e', 00H, 'x', 00H, ' ', 00H, 'm', 00H
	DB	'a', 00H, 't', 00H, 'c', 00H, 'h', 00H, ' ', 00H, 'i', 00H, 's'
	DB	00H, ' ', 00H, 'o', 00H, 'f', 00H, ' ', 00H, 'l', 00H, 'e', 00H
	DB	'n', 00H, 'g', 00H, 't', 00H, 'h', 00H, ' ', 00H, 'z', 00H, 'e'
	DB	00H, 'r', 00H, 'o', 00H, '.', 00H, ' ', 00H, 'A', 00H, 'd', 00H
	DB	'v', 00H, 'a', 00H, 'n', 00H, 'c', 00H, 'i', 00H, 'n', 00H, 'g'
	DB	00H, ' ', 00H, 'o', 00H, 'f', 00H, 'f', 00H, 's', 00H, 'e', 00H
	DB	't', 00H, ' ', 00H, 'o', 00H, 'n', 00H, 'e', 00H, ' ', 00H, 'b'
	DB	00H, 'y', 00H, 't', 00H, 'e', 00H, '.', 00H, 00H, 00H ; `string'
CONST	ENDS
;	COMDAT ??_C@_1FK@CEPELPLA@?$AAR?$AAe?$AAg?$AAe?$AAx?$AA?5?$AAm?$AAa?$AAt?$AAc?$AAh?$AA?5?$AAf?$AAo?$AAu?$AAn?$AAd?$AA?4?$AA?5?$AAF?$AAi?$AAl?$AAe?$AA?5?$AA?$CF?$AAs?$AA?0?$AA?5?$AAo?$AAf?$AAf?$AAs@
CONST	SEGMENT
??_C@_1FK@CEPELPLA@?$AAR?$AAe?$AAg?$AAe?$AAx?$AA?5?$AAm?$AAa?$AAt?$AAc?$AAh?$AA?5?$AAf?$AAo?$AAu?$AAn?$AAd?$AA?4?$AA?5?$AAF?$AAi?$AAl?$AAe?$AA?5?$AA?$CF?$AAs?$AA?0?$AA?5?$AAo?$AAf?$AAf?$AAs@ DB 'R'
	DB	00H, 'e', 00H, 'g', 00H, 'e', 00H, 'x', 00H, ' ', 00H, 'm', 00H
	DB	'a', 00H, 't', 00H, 'c', 00H, 'h', 00H, ' ', 00H, 'f', 00H, 'o'
	DB	00H, 'u', 00H, 'n', 00H, 'd', 00H, '.', 00H, ' ', 00H, 'F', 00H
	DB	'i', 00H, 'l', 00H, 'e', 00H, ' ', 00H, '%', 00H, 's', 00H, ','
	DB	00H, ' ', 00H, 'o', 00H, 'f', 00H, 'f', 00H, 's', 00H, 'e', 00H
	DB	't', 00H, ' ', 00H, '%', 00H, 'i', 00H, ' ', 00H, 'b', 00H, 'y'
	DB	00H, 't', 00H, 'e', 00H, 's', 00H, '.', 00H, 00H, 00H ; `string'
CONST	ENDS
;	COMDAT ??_C@_1HA@HIIJHBBH@?$AAT?$AAo?$AAo?$AA?5?$AAm?$AAa?$AAn?$AAy?$AA?5?$AAm?$AAa?$AAt?$AAc?$AAh?$AAe?$AAs?$AA?5?$AAi?$AAn?$AA?5?$AA?$CF?$AAs?$AA?4?$AA?5?$AAS?$AAk?$AAi?$AAp?$AAp?$AAi?$AAn?$AAg@
CONST	SEGMENT
??_C@_1HA@HIIJHBBH@?$AAT?$AAo?$AAo?$AA?5?$AAm?$AAa?$AAn?$AAy?$AA?5?$AAm?$AAa?$AAt?$AAc?$AAh?$AAe?$AAs?$AA?5?$AAi?$AAn?$AA?5?$AA?$CF?$AAs?$AA?4?$AA?5?$AAS?$AAk?$AAi?$AAp?$AAp?$AAi?$AAn?$AAg@ DB 'T'
	DB	00H, 'o', 00H, 'o', 00H, ' ', 00H, 'm', 00H, 'a', 00H, 'n', 00H
	DB	'y', 00H, ' ', 00H, 'm', 00H, 'a', 00H, 't', 00H, 'c', 00H, 'h'
	DB	00H, 'e', 00H, 's', 00H, ' ', 00H, 'i', 00H, 'n', 00H, ' ', 00H
	DB	'%', 00H, 's', 00H, '.', 00H, ' ', 00H, 'S', 00H, 'k', 00H, 'i'
	DB	00H, 'p', 00H, 'p', 00H, 'i', 00H, 'n', 00H, 'g', 00H, ' ', 00H
	DB	't', 00H, 'h', 00H, 'e', 00H, ' ', 00H, 'r', 00H, 'e', 00H, 's'
	DB	00H, 't', 00H, ' ', 00H, 'o', 00H, 'f', 00H, ' ', 00H, 't', 00H
	DB	'h', 00H, 'i', 00H, 's', 00H, ' ', 00H, 'f', 00H, 'i', 00H, 'l'
	DB	00H, 'e', 00H, '.', 00H, 00H, 00H		; `string'
CONST	ENDS
;	COMDAT ??_C@_1FA@LLKHNKKD@?$AAM?$AAa?$AAt?$AAc?$AAh?$AA?5?$AAf?$AAo?$AAu?$AAn?$AAd?$AA?4?$AA?5?$AAF?$AAi?$AAl?$AAe?$AA?5?$AA?$CF?$AAs?$AA?0?$AA?5?$AAo?$AAf?$AAf?$AAs?$AAe?$AAt?$AA?5?$AA?$CF?$AAl?$AAu@
CONST	SEGMENT
??_C@_1FA@LLKHNKKD@?$AAM?$AAa?$AAt?$AAc?$AAh?$AA?5?$AAf?$AAo?$AAu?$AAn?$AAd?$AA?4?$AA?5?$AAF?$AAi?$AAl?$AAe?$AA?5?$AA?$CF?$AAs?$AA?0?$AA?5?$AAo?$AAf?$AAf?$AAs?$AAe?$AAt?$AA?5?$AA?$CF?$AAl?$AAu@ DB 'M'
	DB	00H, 'a', 00H, 't', 00H, 'c', 00H, 'h', 00H, ' ', 00H, 'f', 00H
	DB	'o', 00H, 'u', 00H, 'n', 00H, 'd', 00H, '.', 00H, ' ', 00H, 'F'
	DB	00H, 'i', 00H, 'l', 00H, 'e', 00H, ' ', 00H, '%', 00H, 's', 00H
	DB	',', 00H, ' ', 00H, 'o', 00H, 'f', 00H, 'f', 00H, 's', 00H, 'e'
	DB	00H, 't', 00H, ' ', 00H, '%', 00H, 'l', 00H, 'u', 00H, ' ', 00H
	DB	'b', 00H, 'y', 00H, 't', 00H, 'e', 00H, 's', 00H, '.', 00H, 00H
	DB	00H						; `string'
CONST	ENDS
;	COMDAT ??_C@_1GK@HLHPBHKH@?$AAT?$AAo?$AAo?$AA?5?$AAm?$AAa?$AAn?$AAy?$AA?5?$AAm?$AAa?$AAt?$AAc?$AAh?$AAe?$AAs?$AA?5?$AAi?$AAn?$AA?5?$AA?$CF?$AAs?$AA?4?$AA?5?$AAR?$AAe?$AAa?$AAl?$AAl?$AAo?$AAc?$AAa@
CONST	SEGMENT
??_C@_1GK@HLHPBHKH@?$AAT?$AAo?$AAo?$AA?5?$AAm?$AAa?$AAn?$AAy?$AA?5?$AAm?$AAa?$AAt?$AAc?$AAh?$AAe?$AAs?$AA?5?$AAi?$AAn?$AA?5?$AA?$CF?$AAs?$AA?4?$AA?5?$AAR?$AAe?$AAa?$AAl?$AAl?$AAo?$AAc?$AAa@ DB 'T'
	DB	00H, 'o', 00H, 'o', 00H, ' ', 00H, 'm', 00H, 'a', 00H, 'n', 00H
	DB	'y', 00H, ' ', 00H, 'm', 00H, 'a', 00H, 't', 00H, 'c', 00H, 'h'
	DB	00H, 'e', 00H, 's', 00H, ' ', 00H, 'i', 00H, 'n', 00H, ' ', 00H
	DB	'%', 00H, 's', 00H, '.', 00H, ' ', 00H, 'R', 00H, 'e', 00H, 'a'
	DB	00H, 'l', 00H, 'l', 00H, 'o', 00H, 'c', 00H, 'a', 00H, 't', 00H
	DB	'i', 00H, 'n', 00H, 'g', 00H, ' ', 00H, 'm', 00H, 'a', 00H, 't'
	DB	00H, 'c', 00H, 'h', 00H, 'e', 00H, 's', 00H, ' ', 00H, 't', 00H
	DB	'o', 00H, ' ', 00H, '%', 00H, 'z', 00H, 'u', 00H, '.', 00H, 00H
	DB	00H						; `string'
PUBLIC	?search_file@@YAXPB_W@Z				; search_file
PUBLIC	?search_buf@@YAXPA_WIPB_W0@Z			; search_buf
PUBLIC	?search_file_worker@@YAPAXPAX@Z			; search_file_worker
PUBLIC	?search_dir@@YAXPAUignores@@PB_W1HI@Z		; search_dir
; Function compile flags: /Ogtp
;	COMDAT ?search_dir@@YAXPAUignores@@PB_W1HI@Z
_TEXT	SEGMENT
_scandir_baton$ = -116					; size = 12
_full_path$1 = -104					; size = 4
_results$1$ = -100					; size = 4
_i$2$ = -96						; size = 4
_base_path$GSCopy$1$ = -92				; size = 4
_dir$1$ = -88						; size = 4
_dir_list$ = -84					; size = 4
_path$GSCopy$1$ = -80					; size = 4
_ig$GSCopy$1$ = -76					; size = 4
_dir_full_path$ = -72					; size = 4
_s$2 = -68						; size = 48
_offset_vector$ = -20					; size = 12
__$ArrayPad$ = -8					; size = 4
_path$ = 8						; size = 4
_depth$ = 12						; size = 4
_original_dev$ = 16					; size = 4
?search_dir@@YAXPAUignores@@PB_W1HI@Z PROC		; search_dir, COMDAT
; _ig$ = ecx
; _base_path$ = edx
; File i:\study\filescan\filescan\search.c
; Line 413
	push	ebp
	mov	ebp, esp
	sub	esp, 120				; 00000078H
	mov	eax, DWORD PTR ___security_cookie
	xor	eax, ebp
	mov	DWORD PTR __$ArrayPad$[ebp], eax
	push	ebx
; Line 433
	mov	ebx, DWORD PTR __imp__free
	push	esi
	mov	DWORD PTR _ig$GSCopy$1$[ebp], ecx
	mov	ecx, DWORD PTR _path$[ebp]
	push	edi
	mov	DWORD PTR _base_path$GSCopy$1$[ebp], edx
	xor	edi, edi
	mov	DWORD PTR _path$GSCopy$1$[ebp], ecx
	mov	DWORD PTR _dir_list$[ebp], 0
$LN84@search_dir:
	xor	eax, eax
	mov	DWORD PTR _dir_full_path$[ebp], 0
	cmp	DWORD PTR ?opts@@3Ucli_options@@A+156, eax
	je	SHORT $LN45@search_dir
	test	edi, edi
	sete	al
	jmp	SHORT $LN46@search_dir
$LN45@search_dir:
	cmp	DWORD PTR ?ignore_pattern_files@@3PAPB_WA[edi*4], eax
	setne	al
$LN46@search_dir:
	test	eax, eax
	je	SHORT $LN39@search_dir
; Line 434
	mov	esi, DWORD PTR ?ignore_pattern_files@@3PAPB_WA[edi*4]
; Line 435
	lea	eax, DWORD PTR _dir_full_path$[ebp]
	push	esi
	push	ecx
	push	OFFSET ??_C@_1M@BHHLEAOO@?$AA?$CF?$AAs?$AA?1?$AA?$CF?$AAs?$AA?$AA@
	push	eax
	call	?ag_asprintf@@YAXPAPA_WPB_WZZ		; ag_asprintf
	add	esp, 16					; 00000010H
; Line 436
	mov	eax, OFFSET ??_C@_19GJLMFMHF@?$AA?4?$AAs?$AAv?$AAn?$AA?$AA@
$LL74@search_dir:
	mov	cx, WORD PTR [eax]
	cmp	cx, WORD PTR [esi]
	jne	SHORT $LN75@search_dir
	test	cx, cx
	je	SHORT $LN76@search_dir
	mov	cx, WORD PTR [eax+2]
	cmp	cx, WORD PTR [esi+2]
	jne	SHORT $LN75@search_dir
	add	eax, 4
	add	esi, 4
	test	cx, cx
	jne	SHORT $LL74@search_dir
$LN76@search_dir:
	xor	eax, eax
	jmp	SHORT $LN77@search_dir
$LN75@search_dir:
	sbb	eax, eax
	or	eax, 1
$LN77@search_dir:
; Line 437
	mov	esi, DWORD PTR _dir_full_path$[ebp]
	mov	edx, esi
	mov	ecx, DWORD PTR _ig$GSCopy$1$[ebp]
	test	eax, eax
	jne	SHORT $LN38@search_dir
	call	?load_svn_ignore_patterns@@YAXPAUignores@@PB_W@Z ; load_svn_ignore_patterns
; Line 441
	push	esi
	call	ebx
	mov	ecx, DWORD PTR _path$GSCopy$1$[ebp]
	add	esp, 4
	inc	edi
	jmp	$LN84@search_dir
$LN38@search_dir:
; Line 439
	call	?load_ignore_patterns@@YAXPAUignores@@PB_W@Z ; load_ignore_patterns
; Line 441
	push	esi
	call	ebx
	mov	ecx, DWORD PTR _path$GSCopy$1$[ebp]
	add	esp, 4
	inc	edi
	jmp	$LN84@search_dir
$LN39@search_dir:
; Line 445
	mov	edx, DWORD PTR ?opts@@3Ucli_options@@A+108
; Line 446
	mov	esi, DWORD PTR _ig$GSCopy$1$[ebp]
	test	edx, edx
	je	SHORT $LN36@search_dir
	mov	ecx, esi
	call	?load_ignore_patterns@@YAXPAUignores@@PB_W@Z ; load_ignore_patterns
$LN36@search_dir:
; Line 450
	mov	eax, DWORD PTR _base_path$GSCopy$1$[ebp]
	mov	DWORD PTR _scandir_baton$[ebp], esi
	mov	DWORD PTR _scandir_baton$[ebp+4], eax
; Line 451
	test	eax, eax
	je	SHORT $LN47@search_dir
	mov	ecx, eax
	lea	edx, DWORD PTR [ecx+2]
	npad	8
$LL78@search_dir:
	mov	ax, WORD PTR [ecx]
	add	ecx, 2
	test	ax, ax
	jne	SHORT $LL78@search_dir
	sub	ecx, edx
	sar	ecx, 1
	mov	DWORD PTR _scandir_baton$[ebp+8], ecx
	jmp	SHORT $LN48@search_dir
$LN47@search_dir:
	mov	DWORD PTR _scandir_baton$[ebp+8], 0
$LN48@search_dir:
; Line 452
	mov	edi, DWORD PTR _path$GSCopy$1$[ebp]
	lea	eax, DWORD PTR _scandir_baton$[ebp]
	push	eax
	push	ecx
	lea	edx, DWORD PTR _dir_list$[ebp]
	mov	ecx, edi
	call	?ag_scandir@@YAHPB_WPAPAPAUdirent@@P6AH0PBU1@PAX@Z3@Z ; ag_scandir
	mov	ecx, eax
	add	esp, 8
	mov	DWORD PTR _results$1$[ebp], ecx
; Line 453
	test	ecx, ecx
	jne	SHORT $LN35@search_dir
; Line 454
	push	edi
	push	OFFSET ??_C@_1EC@PKFOCHNO@?$AAN?$AAo?$AA?5?$AAr?$AAe?$AAs?$AAu?$AAl?$AAt?$AAs?$AA?5?$AAf?$AAo?$AAu?$AAn?$AAd?$AA?5?$AAi?$AAn?$AA?5?$AAd?$AAi?$AAr?$AAe?$AAc?$AAt?$AAo?$AAr?$AAy?$AA?5?$AA?$CF?$AAs@
	call	?log_debug@@YAXPB_WZZ			; log_debug
	add	esp, 8
$search_dir_cleanup$87:
; Line 576
	push	DWORD PTR _dir_list$[ebp]
	call	ebx
; Line 578
	mov	ecx, DWORD PTR __$ArrayPad$[ebp]
	add	esp, 4
	xor	ecx, ebp
	pop	edi
	pop	esi
	pop	ebx
	call	@__security_check_cookie@4
	mov	esp, ebp
	pop	ebp
	ret	0
$LN35@search_dir:
; Line 456
	cmp	ecx, -1
	jne	SHORT $LN32@search_dir
; Line 457
	mov	esi, DWORD PTR __imp___errno
	call	esi
	cmp	DWORD PTR [eax], 20			; 00000014H
	jne	SHORT $LN31@search_dir
; Line 459
	cmp	DWORD PTR _depth$[ebp], 0
	jne	SHORT $LN27@search_dir
	cmp	DWORD PTR ?opts@@3Ucli_options@@A+204, 1
	jne	SHORT $LN27@search_dir
; Line 461
	mov	ecx, DWORD PTR ?opts@@3Ucli_options@@A+124
	test	ecx, ecx
	je	SHORT $LN28@search_dir
	cmp	ecx, 1
	jne	SHORT $LN29@search_dir
$LN28@search_dir:
; Line 462
	mov	ecx, 4
	mov	DWORD PTR ?opts@@3Ucli_options@@A+124, ecx
$LN29@search_dir:
; Line 465
	cmp	DWORD PTR ?opts@@3Ucli_options@@A+100, 0
	je	SHORT $LN27@search_dir
	mov	eax, DWORD PTR ?opts@@3Ucli_options@@A+128
	xor	edx, edx
	cmp	ecx, 4
	cmove	eax, edx
	mov	DWORD PTR ?opts@@3Ucli_options@@A+128, eax
$LN27@search_dir:
; Line 469
	mov	ecx, edi
	call	?search_file@@YAXPB_W@Z			; search_file
; Line 470
	jmp	SHORT $search_dir_cleanup$87
$LN31@search_dir:
; Line 471
	call	esi
	push	DWORD PTR [eax]
	call	DWORD PTR __imp__strerror
	add	esp, 4
	push	eax
	push	edi
	push	OFFSET ??_C@_1DO@GEPNJJJA@?$AAE?$AAr?$AAr?$AAo?$AAr?$AA?5?$AAo?$AAp?$AAe?$AAn?$AAi?$AAn?$AAg?$AA?5?$AAd?$AAi?$AAr?$AAe?$AAc?$AAt?$AAo?$AAr?$AAy?$AA?5?$AA?$CF?$AAs?$AA?3?$AA?5?$AA?$CF?$AAs?$AA?$AA@
	call	?log_err@@YAXPB_WZZ			; log_err
	add	esp, 12					; 0000000cH
; Line 572
	jmp	$search_dir_cleanup$87
$LN32@search_dir:
; Line 480
	xor	eax, eax
	mov	DWORD PTR _i$2$[ebp], eax
	test	ecx, ecx
	jle	$search_dir_cleanup$87
	npad	3
$LL24@search_dir:
; Line 482
	mov	ecx, DWORD PTR _dir_list$[ebp]
	xor	ebx, ebx
	mov	esi, DWORD PTR [ecx+eax*4]
; Line 483
	lea	eax, DWORD PTR _dir_full_path$[ebp]
	mov	DWORD PTR _dir$1$[ebp], esi
	push	DWORD PTR [esi]
	push	edi
	push	OFFSET ??_C@_1M@BHHLEAOO@?$AA?$CF?$AAs?$AA?1?$AA?$CF?$AAs?$AA?$AA@
	push	eax
	call	?ag_asprintf@@YAXPAPA_WPB_WZZ		; ag_asprintf
; File i:\study\filescan\filescan\util.c
; Line 427
	push	DWORD PTR [esi]
	lea	eax, DWORD PTR _full_path$1[ebp]
	push	edi
	push	OFFSET ??_C@_1M@BHHLEAOO@?$AA?$CF?$AAs?$AA?1?$AA?$CF?$AAs?$AA?$AA@
	push	eax
	call	?ag_asprintf@@YAXPAPA_WPB_WZZ		; ag_asprintf
; Line 428
	mov	esi, DWORD PTR _full_path$1[ebp]
	lea	eax, DWORD PTR _s$2[ebp]
	push	eax
	push	esi
	call	DWORD PTR __imp___wstat64i32
	mov	edi, DWORD PTR _dir_full_path$[ebp]
	add	esp, 40					; 00000028H
	test	eax, eax
; Line 429
	mov	eax, DWORD PTR __imp__free
	push	esi
	je	SHORT $LN53@search_dir
	call	eax
	add	esp, 4
; Line 430
	jmp	SHORT $LN72@search_dir
$LN53@search_dir:
; Line 432
	call	eax
; Line 433
	mov	eax, DWORD PTR _s$2[ebp+6]
	xor	ecx, ecx
	and	eax, 61440				; 0000f000H
	add	esp, 4
	cmp	eax, 16384				; 00004000H
	sete	cl
; File i:\study\filescan\filescan\search.c
; Line 504
	test	ecx, ecx
	jne	$LN19@search_dir
$LN72@search_dir:
; Line 505
	mov	ecx, DWORD PTR ?opts@@3Ucli_options@@A+32
	test	ecx, ecx
	je	$LN14@search_dir
; Line 507
	mov	edx, edi
	lea	esi, DWORD PTR [edx+2]
$LL79@search_dir:
	mov	ax, WORD PTR [edx]
	add	edx, 2
	test	ax, ax
	jne	SHORT $LL79@search_dir
	push	3
	lea	eax, DWORD PTR _offset_vector$[ebp]
	sub	edx, esi
	push	eax
	push	ecx
	sar	edx, 1
	push	0
	push	edx
	push	edi
	xor	edx, edx
	call	_pcre16_exec
	add	esp, 24					; 00000018H
; Line 508
	test	eax, eax
	jns	SHORT $LN17@search_dir
; Line 509
	push	edi
	push	OFFSET ??_C@_1EM@BMPPNIIF@?$AAS?$AAk?$AAi?$AAp?$AAp?$AAi?$AAn?$AAg?$AA?5?$AA?$CF?$AAs?$AA?5?$AAd?$AAu?$AAe?$AA?5?$AAt?$AAo?$AA?5?$AAf?$AAi?$AAl?$AAe?$AA_?$AAs?$AAe?$AAa?$AAr?$AAc?$AAh?$AA_?$AAr@
$LN5@search_dir:
	call	?log_debug@@YAXPB_WZZ			; log_debug
	add	esp, 8
; Line 560
	jmp	$cleanup$88
$LN17@search_dir:
; Line 511
	cmp	DWORD PTR ?opts@@3Ucli_options@@A+28, ebx
	je	SHORT $LN14@search_dir
; Line 512
	push	edi
	push	OFFSET ??_C@_1FO@ONCBEKAJ@?$AAm?$AAa?$AAt?$AAc?$AAh?$AA_?$AAf?$AAi?$AAl?$AAe?$AAs?$AA?3?$AA?5?$AAf?$AAi?$AAl?$AAe?$AA_?$AAs?$AAe?$AAa?$AAr?$AAc?$AAh?$AA_?$AAr?$AAe?$AAg?$AAe?$AAx?$AA?5?$AAm@
	call	?log_debug@@YAXPB_WZZ			; log_debug
	add	esp, 8
; Line 513
	mov	ecx, OFFSET ?print_mtx@@3PAUpthread_mutex_t_@@A ; print_mtx
	call	_pthread_mutex_lock
; Line 514
	mov	edx, DWORD PTR ?opts@@3Ucli_options@@A+104
	mov	ecx, edi
	call	?print_path@@YAXPB_W_W@Z		; print_path
; Line 515
	mov	ecx, OFFSET ?print_mtx@@3PAUpthread_mutex_t_@@A ; print_mtx
	call	_pthread_mutex_unlock
; Line 516
	mov	DWORD PTR ?opts@@3Ucli_options@@A+184, 1
; Line 560
	jmp	$cleanup$88
$LN14@search_dir:
; File i:\study\filescan\filescan\util.c
; Line 27
	push	8
	call	DWORD PTR __imp__malloc
	mov	ebx, eax
	add	esp, 4
; Line 28
	test	ebx, ebx
	je	$LN85@search_dir
; File i:\study\filescan\filescan\search.c
; Line 522
	mov	ecx, OFFSET ?work_queue_mtx@@3PAUpthread_mutex_t_@@A ; work_queue_mtx
	mov	DWORD PTR [ebx], edi
; Line 523
	mov	DWORD PTR [ebx+4], 0
; Line 524
	call	_pthread_mutex_lock
; Line 525
	mov	eax, DWORD PTR ?work_queue_tail@@3PAUwork_queue_t@@A ; work_queue_tail
	test	eax, eax
	jne	SHORT $LN12@search_dir
; Line 526
	mov	DWORD PTR ?work_queue@@3PAUwork_queue_t@@A, ebx ; work_queue
; Line 527
	jmp	SHORT $LN11@search_dir
$LN12@search_dir:
; Line 528
	mov	DWORD PTR [eax+4], ebx
$LN11@search_dir:
; File i:\study\filescan\pthread\pthread_cond_signal.c
; Line 190
	xor	edx, edx
; File i:\study\filescan\filescan\search.c
; Line 530
	mov	DWORD PTR ?work_queue_tail@@3PAUwork_queue_t@@A, ebx ; work_queue_tail
; File i:\study\filescan\pthread\pthread_cond_signal.c
; Line 190
	call	_ptw32_cond_unblock
; File i:\study\filescan\filescan\search.c
; Line 532
	mov	ecx, OFFSET ?work_queue_mtx@@3PAUpthread_mutex_t_@@A ; work_queue_mtx
	call	_pthread_mutex_unlock
; Line 533
	push	edi
	push	OFFSET ??_C@_1CO@KJGJAJIJ@?$AA?$CF?$AAs?$AA?5?$AAa?$AAd?$AAd?$AAe?$AAd?$AA?5?$AAt?$AAo?$AA?5?$AAw?$AAo?$AAr?$AAk?$AA?5?$AAq?$AAu?$AAe?$AAu?$AAe?$AA?$AA@
	call	?log_debug@@YAXPB_WZZ			; log_debug
	add	esp, 8
	jmp	$cleanup$88
$LN19@search_dir:
; Line 534
	cmp	DWORD PTR ?opts@@3Ucli_options@@A+148, ebx
	je	SHORT $cleanup$88
; Line 535
	mov	eax, DWORD PTR ?opts@@3Ucli_options@@A+92
	cmp	DWORD PTR _depth$[ebp], eax
	jl	SHORT $LN7@search_dir
	cmp	eax, -1
	je	SHORT $LN7@search_dir
; Line 552
	push	edi
	push	OFFSET ??_C@_1GM@EGDNJCPI@?$AAS?$AAk?$AAi?$AAp?$AAp?$AAi?$AAn?$AAg?$AA?5?$AA?$CF?$AAs?$AA?4?$AA?5?$AAU?$AAs?$AAe?$AA?5?$AAt?$AAh?$AAe?$AA?5?$AA?9?$AA?9?$AAd?$AAe?$AAp?$AAt?$AAh?$AA?5?$AAo?$AAp?$AAt@
	cmp	eax, 25					; 00000019H
	jne	$LN5@search_dir
	call	?log_warn@@YAXPB_WZZ			; log_warn
	add	esp, 8
; Line 553
	jmp	SHORT $cleanup$88
$LN7@search_dir:
; Line 536
	push	edi
	push	OFFSET ??_C@_1CC@FEAEMNFK@?$AAS?$AAe?$AAa?$AAr?$AAc?$AAh?$AAi?$AAn?$AAg?$AA?5?$AAd?$AAi?$AAr?$AA?5?$AA?$CF?$AAs?$AA?$AA@
	call	?log_debug@@YAXPB_WZZ			; log_debug
; Line 541
	mov	edx, DWORD PTR _dir$1$[ebp]
	add	esp, 8
	mov	edx, DWORD PTR [edx]
	mov	ecx, edx
	lea	esi, DWORD PTR [ecx+2]
$LL80@search_dir:
	mov	ax, WORD PTR [ecx]
	add	ecx, 2
	test	ax, ax
	jne	SHORT $LL80@search_dir
	sub	ecx, esi
	sar	ecx, 1
	push	ecx
	mov	ecx, DWORD PTR _ig$GSCopy$1$[ebp]
	call	?init_ignore@@YAPAUignores@@PAU1@PB_WI@Z ; init_ignore
; Line 544
	mov	ecx, DWORD PTR _depth$[ebp]
	add	esp, 4
	mov	edx, DWORD PTR _base_path$GSCopy$1$[ebp]
	inc	ecx
	mov	esi, eax
	push	DWORD PTR _original_dev$[ebp]
	push	ecx
	push	edi
	mov	ecx, esi
	call	?search_dir@@YAXPAUignores@@PB_W1HI@Z	; search_dir
	add	esp, 12					; 0000000cH
; Line 545
	mov	ecx, esi
	call	?cleanup_ignore@@YAXPAUignores@@@Z	; cleanup_ignore
$cleanup$88:
; Line 562
	mov	esi, DWORD PTR _dir$1$[ebp]
	mov	eax, DWORD PTR [esi]
	test	eax, eax
	je	SHORT $LN2@search_dir
; Line 563
	push	eax
	call	DWORD PTR __imp__free
	add	esp, 4
$LN2@search_dir:
; Line 565
	push	esi
	call	DWORD PTR __imp__free
	add	esp, 4
; Line 568
	test	ebx, ebx
; Line 569
	mov	ebx, DWORD PTR __imp__free
	jne	SHORT $LN23@search_dir
	push	edi
	call	ebx
	add	esp, 4
; Line 570
	mov	DWORD PTR _dir_full_path$[ebp], 0
$LN23@search_dir:
; Line 480
	mov	eax, DWORD PTR _i$2$[ebp]
	inc	eax
	mov	DWORD PTR _i$2$[ebp], eax
	cmp	eax, DWORD PTR _results$1$[ebp]
	jge	$search_dir_cleanup$87
	mov	edi, DWORD PTR _path$GSCopy$1$[ebp]
	jmp	$LL24@search_dir
$LN85@search_dir:
; File i:\study\filescan\filescan\util.c
; Line 28
	push	OFFSET ??_C@_1DE@PGDGFCEA@?$AAM?$AAe?$AAm?$AAo?$AAr?$AAy?$AA?5?$AAa?$AAl?$AAl?$AAo?$AAc?$AAa?$AAt?$AAi?$AAo?$AAn?$AA?5?$AAf?$AAa?$AAi?$AAl?$AAe?$AAd?$AA?4?$AA?$AA@
	call	?die@@YAXPB_WZZ				; die
$LN86@search_dir:
$LN83@search_dir:
	int	3
?search_dir@@YAXPAUignores@@PB_W1HI@Z ENDP		; search_dir
_TEXT	ENDS
; Function compile flags: /Ogtp
;	COMDAT ?search_file_worker@@YAPAXPAX@Z
_TEXT	SEGMENT
_i$ = 8							; size = 4
?search_file_worker@@YAPAXPAX@Z PROC			; search_file_worker, COMDAT
; File i:\study\filescan\filescan\search.c
; Line 326
	push	ebp
	mov	ebp, esp
	and	esp, -8					; fffffff8H
	push	ecx
; Line 328
	mov	eax, DWORD PTR _i$[ebp]
	push	ebx
	push	esi
	push	edi
	mov	ebx, DWORD PTR [eax]
; Line 330
	push	ebx
	push	OFFSET ??_C@_1CE@LGEIGPIG@?$AAW?$AAo?$AAr?$AAk?$AAe?$AAr?$AA?5?$AA?$CF?$AAi?$AA?5?$AAs?$AAt?$AAa?$AAr?$AAt?$AAe?$AAd?$AA?$AA@
	call	?log_debug@@YAXPB_WZZ			; log_debug
	mov	edi, DWORD PTR __imp__free
	add	esp, 8
$LL6@search_fil:
; Line 332
	mov	ecx, OFFSET ?work_queue_mtx@@3PAUpthread_mutex_t_@@A ; work_queue_mtx
	call	_pthread_mutex_lock
; Line 333
	mov	esi, DWORD PTR ?work_queue@@3PAUwork_queue_t@@A ; work_queue
	test	esi, esi
	jne	SHORT $LN3@search_fil
$LL4@search_fil:
; Line 334
	cmp	DWORD PTR ?done_adding_files@@3HA, 0	; done_adding_files
	jne	SHORT $LN14@search_fil
; File i:\study\filescan\pthread\pthread_cond_wait.c
; Line 506
	push	ecx
	call	_ptw32_cond_timedwait
; File i:\study\filescan\filescan\search.c
; Line 333
	mov	esi, DWORD PTR ?work_queue@@3PAUwork_queue_t@@A ; work_queue
; File i:\study\filescan\pthread\pthread_cond_wait.c
; Line 506
	add	esp, 4
; File i:\study\filescan\filescan\search.c
; Line 333
	test	esi, esi
	je	SHORT $LL4@search_fil
$LN3@search_fil:
; Line 342
	mov	eax, DWORD PTR [esi+4]
; Line 343
	xor	edx, edx
	mov	ecx, DWORD PTR ?work_queue_tail@@3PAUwork_queue_t@@A ; work_queue_tail
	test	eax, eax
	mov	DWORD PTR ?work_queue@@3PAUwork_queue_t@@A, eax ; work_queue
	cmove	ecx, edx
	mov	DWORD PTR ?work_queue_tail@@3PAUwork_queue_t@@A, ecx ; work_queue_tail
; Line 346
	mov	ecx, OFFSET ?work_queue_mtx@@3PAUpthread_mutex_t_@@A ; work_queue_mtx
	call	_pthread_mutex_unlock
; Line 348
	mov	ecx, DWORD PTR [esi]
	call	?search_file@@YAXPB_W@Z			; search_file
; Line 349
	push	DWORD PTR [esi]
	call	edi
	add	esp, 4
; Line 350
	push	esi
	call	edi
	add	esp, 4
; Line 351
	jmp	SHORT $LL6@search_fil
$LN14@search_fil:
; Line 335
	mov	ecx, OFFSET ?work_queue_mtx@@3PAUpthread_mutex_t_@@A ; work_queue_mtx
	call	_pthread_mutex_unlock
; Line 336
	push	ebx
	push	OFFSET ??_C@_1CI@LOHLMJNM@?$AAW?$AAo?$AAr?$AAk?$AAe?$AAr?$AA?5?$AA?$CF?$AAi?$AA?5?$AAf?$AAi?$AAn?$AAi?$AAs?$AAh?$AAe?$AAd?$AA?4?$AA?$AA@
	call	?log_debug@@YAXPB_WZZ			; log_debug
	add	esp, 8
; Line 337
	call	_pthread_exit
$LN22@search_fil:
$LN21@search_fil:
	int	3
?search_file_worker@@YAPAXPAX@Z ENDP			; search_file_worker
_TEXT	ENDS
; Function compile flags: /Ogtp
;	COMDAT ?search_buf@@YAXPA_WIPB_W0@Z
_TEXT	SEGMENT
_ag_strncmp_fp$2$ = -48					; size = 4
_binary$1$ = -44					; size = 4
_matches_spare$1$ = -40					; size = 4
_match_ptr$2$ = -36					; size = 4
_match_ptr$1$ = -36					; size = 4
_dir_full_path$GSCopy$1$ = -32				; size = 4
_buf_len$GSCopy$1$ = -28				; size = 4
_buf$GSCopy$1$ = -24					; size = 4
_matches_len$1$ = -20					; size = 4
_offset_vector$1 = -16					; size = 12
__$ArrayPad$ = -4					; size = 4
_dir_full_path$ = 8					; size = 4
_tmp_file_path$dead$ = 12				; size = 4
?search_buf@@YAXPA_WIPB_W0@Z PROC			; search_buf, COMDAT
; _buf$ = ecx
; _buf_len$ = edx
; File i:\study\filescan\filescan\search.c
; Line 21
	push	ebp
	mov	ebp, esp
	sub	esp, 52					; 00000034H
	mov	eax, DWORD PTR ___security_cookie
	xor	eax, ebp
	mov	DWORD PTR __$ArrayPad$[ebp], eax
	push	ebx
	push	esi
	mov	eax, edx
	mov	DWORD PTR _buf$GSCopy$1$[ebp], ecx
	mov	edx, DWORD PTR _dir_full_path$[ebp]
; Line 23
	xor	esi, esi
	push	edi
	mov	DWORD PTR _buf_len$GSCopy$1$[ebp], eax
	mov	DWORD PTR _dir_full_path$GSCopy$1$[ebp], edx
	mov	DWORD PTR _binary$1$[ebp], -1
; Line 25
	cmp	DWORD PTR ?opts@@3Ucli_options@@A+172, esi
	je	SHORT $LN38@search_buf
; Line 26
	mov	DWORD PTR _binary$1$[ebp], esi
	jmp	SHORT $LN36@search_buf
$LN38@search_buf:
; Line 27
	cmp	DWORD PTR ?opts@@3Ucli_options@@A+160, esi
	jne	SHORT $LN36@search_buf
; Line 28
	mov	edx, eax
	call	?is_binary@@YAHPB_WI@Z			; is_binary
	mov	DWORD PTR _binary$1$[ebp], eax
$LN36@search_buf:
; Line 42
	mov	ecx, DWORD PTR __imp__malloc
	xor	eax, eax
	mov	DWORD PTR _matches_len$1$[ebp], eax
	cmp	DWORD PTR ?opts@@3Ucli_options@@A+72, eax
	je	SHORT $LN35@search_buf
; File i:\study\filescan\filescan\util.c
; Line 27
	push	800					; 00000320H
; File i:\study\filescan\filescan\search.c
; Line 48
	lea	edi, DWORD PTR [eax+100]
; File i:\study\filescan\filescan\util.c
; Line 27
	call	ecx
	mov	ebx, eax
	add	esp, 4
; Line 28
	test	ebx, ebx
	je	$LN93@search_buf
; File i:\study\filescan\filescan\search.c
; Line 50
	mov	ecx, DWORD PTR __imp__malloc
	mov	DWORD PTR _matches_spare$1$[ebp], 1
; Line 51
	jmp	SHORT $LN34@search_buf
$LN35@search_buf:
; Line 52
	xor	edi, edi
; Line 54
	mov	DWORD PTR _matches_spare$1$[ebp], eax
	xor	ebx, ebx
$LN34@search_buf:
; Line 57
	cmp	DWORD PTR ?opts@@3Ucli_options@@A+76, esi
	jne	$LN81@search_buf
	cmp	DWORD PTR ?opts@@3Ucli_options@@A+196, 1
	jne	SHORT $LN70@search_buf
	mov	eax, DWORD PTR ?opts@@3Ucli_options@@A+192
	cmp	WORD PTR [eax], 46			; 0000002eH
	jne	SHORT $LN70@search_buf
; File i:\study\filescan\filescan\util.c
; Line 27
	push	8
; File i:\study\filescan\filescan\search.c
; Line 58
	mov	edi, 1
; File i:\study\filescan\filescan\util.c
; Line 27
	call	ecx
	mov	ebx, eax
	add	esp, 4
; Line 28
	test	ebx, ebx
	je	$LN95@search_buf
; File i:\study\filescan\filescan\search.c
; Line 62
	mov	eax, DWORD PTR _buf_len$GSCopy$1$[ebp]
	mov	ecx, edi
	mov	DWORD PTR [ebx], esi
	mov	DWORD PTR [ebx+4], eax
	mov	DWORD PTR _matches_len$1$[ebp], ecx
	jmp	$LN91@search_buf
$LN70@search_buf:
; Line 115
	mov	eax, DWORD PTR _buf_len$GSCopy$1$[ebp]
	test	eax, eax
	je	$LN86@search_buf
	npad	4
$LL19@search_buf:
	mov	edx, DWORD PTR ?opts@@3Ucli_options@@A+144
	lea	ecx, DWORD PTR _offset_vector$1[ebp]
	push	3
	push	ecx
	push	ecx
	mov	ecx, DWORD PTR ?opts@@3Ucli_options@@A+140
	push	esi
	mov	esi, DWORD PTR _buf$GSCopy$1$[ebp]
	push	eax
	push	esi
	call	_pcre16_exec
	add	esp, 24					; 00000018H
	test	eax, eax
	js	$LN88@search_buf
; Line 116
	push	DWORD PTR _offset_vector$1[ebp]
	push	DWORD PTR _dir_full_path$GSCopy$1$[ebp]
	push	OFFSET ??_C@_1FK@CEPELPLA@?$AAR?$AAe?$AAg?$AAe?$AAx?$AA?5?$AAm?$AAa?$AAt?$AAc?$AAh?$AA?5?$AAf?$AAo?$AAu?$AAn?$AAd?$AA?4?$AA?5?$AAF?$AAi?$AAl?$AAe?$AA?5?$AA?$CF?$AAs?$AA?0?$AA?5?$AAo?$AAf?$AAf?$AAs@
	call	?log_debug@@YAXPB_WZZ			; log_debug
; Line 117
	mov	esi, DWORD PTR _offset_vector$1[ebp+4]
	add	esp, 12					; 0000000cH
; Line 118
	cmp	DWORD PTR _offset_vector$1[ebp], esi
	jne	SHORT $LN17@search_buf
; Line 120
	push	OFFSET ??_C@_1HE@LDDPLIPE@?$AAR?$AAe?$AAg?$AAe?$AAx?$AA?5?$AAm?$AAa?$AAt?$AAc?$AAh?$AA?5?$AAi?$AAs?$AA?5?$AAo?$AAf?$AA?5?$AAl?$AAe?$AAn?$AAg?$AAt?$AAh?$AA?5?$AAz?$AAe?$AAr?$AAo?$AA?4?$AA?5?$AAA@
	inc	esi
	call	?log_debug@@YAXPB_WZZ			; log_debug
	add	esp, 4
$LN17@search_buf:
; Line 124
	mov	eax, DWORD PTR _matches_spare$1$[ebp]
	mov	ecx, DWORD PTR _matches_len$1$[ebp]
	add	eax, ecx
	cmp	eax, edi
	jb	SHORT $LN66@search_buf
; Line 125
	test	ebx, ebx
	je	SHORT $LN43@search_buf
	add	edi, edi
	jmp	SHORT $LN44@search_buf
$LN43@search_buf:
	mov	edi, 100				; 00000064H
$LN44@search_buf:
; Line 126
	lea	eax, DWORD PTR [edi*8]
; File i:\study\filescan\filescan\util.c
; Line 32
	push	eax
	push	ebx
	call	DWORD PTR __imp__realloc
	mov	ebx, eax
	add	esp, 8
; Line 33
	test	ebx, ebx
	je	$LN93@search_buf
; File i:\study\filescan\filescan\search.c
; Line 127
	push	edi
	push	DWORD PTR _dir_full_path$GSCopy$1$[ebp]
	push	OFFSET ??_C@_1GK@HLHPBHKH@?$AAT?$AAo?$AAo?$AA?5?$AAm?$AAa?$AAn?$AAy?$AA?5?$AAm?$AAa?$AAt?$AAc?$AAh?$AAe?$AAs?$AA?5?$AAi?$AAn?$AA?5?$AA?$CF?$AAs?$AA?4?$AA?5?$AAR?$AAe?$AAa?$AAl?$AAl?$AAo?$AAc?$AAa@
	call	?log_debug@@YAXPB_WZZ			; log_debug
	add	esp, 12					; 0000000cH
; File i:\study\filescan\filescan\util.c
; Line 32
	lea	ecx, DWORD PTR [edi*8]
	push	ecx
	push	ebx
	call	DWORD PTR __imp__realloc
	mov	ebx, eax
	add	esp, 8
; Line 33
	test	ebx, ebx
	je	$LN93@search_buf
	mov	ecx, DWORD PTR _matches_len$1$[ebp]
$LN66@search_buf:
; File i:\study\filescan\filescan\search.c
; Line 131
	mov	eax, DWORD PTR _offset_vector$1[ebp]
	mov	DWORD PTR [ebx+ecx*8], eax
; Line 132
	mov	eax, DWORD PTR _offset_vector$1[ebp+4]
	mov	DWORD PTR [ebx+ecx*8+4], eax
; Line 133
	inc	ecx
; Line 135
	mov	eax, DWORD PTR ?opts@@3Ucli_options@@A+88
	mov	DWORD PTR _matches_len$1$[ebp], ecx
	test	eax, eax
	je	SHORT $LN15@search_buf
	cmp	ecx, eax
	jae	SHORT $LN76@search_buf
$LN15@search_buf:
; Line 115
	mov	eax, DWORD PTR _buf_len$GSCopy$1$[ebp]
	cmp	esi, eax
	jb	$LL19@search_buf
	jmp	SHORT $LN91@search_buf
$LN76@search_buf:
; Line 136
	push	DWORD PTR _dir_full_path$GSCopy$1$[ebp]
	push	OFFSET ??_C@_1HA@HIIJHBBH@?$AAT?$AAo?$AAo?$AA?5?$AAm?$AAa?$AAn?$AAy?$AA?5?$AAm?$AAa?$AAt?$AAc?$AAh?$AAe?$AAs?$AA?5?$AAi?$AAn?$AA?5?$AA?$CF?$AAs?$AA?4?$AA?5?$AAS?$AAk?$AAi?$AAp?$AAp?$AAi?$AAn?$AAg@
	call	?log_err@@YAXPB_WZZ			; log_err
	add	esp, 8
$LN89@search_buf:
	mov	eax, DWORD PTR _buf_len$GSCopy$1$[ebp]
	mov	ecx, DWORD PTR _matches_len$1$[ebp]
$LN91@search_buf:
	mov	esi, DWORD PTR _buf$GSCopy$1$[ebp]
$LN84@search_buf:
; Line 142
	cmp	DWORD PTR ?opts@@3Ucli_options@@A+72, 0
	je	SHORT $LN14@search_buf
; Line 143
	push	ecx
	push	ebx
	mov	edx, eax
	mov	ecx, esi
	call	?invert_matches@@YAIPB_WIQAUmatch_t@@I@Z ; invert_matches
	mov	ecx, eax
	add	esp, 8
	mov	DWORD PTR _matches_len$1$[ebp], ecx
$LN14@search_buf:
; Line 146
	cmp	DWORD PTR ?opts@@3Ucli_options@@A+176, 0
	je	$LN90@search_buf
; Line 147
	mov	ecx, OFFSET ?stats_mtx@@3PAUpthread_mutex_t_@@A ; stats_mtx
	call	_pthread_mutex_lock
; Line 150
	mov	eax, DWORD PTR _matches_len$1$[ebp]
; Line 151
	mov	ecx, OFFSET ?stats_mtx@@3PAUpthread_mutex_t_@@A ; stats_mtx
	mov	esi, DWORD PTR _buf_len$GSCopy$1$[ebp]
	add	DWORD PTR ?stats@@3Uag_stats@@A, esi
	inc	DWORD PTR ?stats@@3Uag_stats@@A+4
	add	DWORD PTR ?stats@@3Uag_stats@@A+8, eax
	call	_pthread_mutex_unlock
	mov	ecx, DWORD PTR _matches_len$1$[ebp]
	jmp	$LN13@search_buf
$LN81@search_buf:
; File i:\study\filescan\filescan\util.c
; Line 191
	cmp	DWORD PTR ?opts@@3Ucli_options@@A+20, 2
	mov	eax, OFFSET ?boyer_moore_strnstr@@YAPB_WPB_W0IIQBIPBI@Z ; boyer_moore_strnstr
; File i:\study\filescan\filescan\search.c
; Line 64
	mov	ecx, DWORD PTR _buf$GSCopy$1$[ebp]
; File i:\study\filescan\filescan\util.c
; Line 191
	mov	edx, OFFSET ?boyer_moore_strncasestr@@YAPB_WPB_W0IIQBIPBI@Z ; boyer_moore_strncasestr
	cmove	eax, edx
	mov	DWORD PTR _ag_strncmp_fp$2$[ebp], eax
; File i:\study\filescan\filescan\search.c
; Line 67
	mov	eax, DWORD PTR _buf_len$GSCopy$1$[ebp]
	test	eax, eax
	je	$LN86@search_buf
	mov	edx, DWORD PTR ?opts@@3Ucli_options@@A+196
$LL30@search_buf:
; Line 68
	push	DWORD PTR ?find_skip_lookup@@3PAIA	; find_skip_lookup
	sub	eax, esi
	push	OFFSET ?alpha_skip_lookup@@3PAIA	; alpha_skip_lookup
	push	edx
	push	eax
	push	DWORD PTR ?opts@@3Ucli_options@@A+192
	push	ecx
	call	DWORD PTR _ag_strncmp_fp$2$[ebp]
	add	esp, 24					; 00000018H
	mov	DWORD PTR _match_ptr$1$[ebp], eax
; Line 69
	test	eax, eax
	je	$LN89@search_buf
; Line 73
	cmp	DWORD PTR ?opts@@3Ucli_options@@A+220, 0
	je	SHORT $LN24@search_buf
; Line 75
	mov	edx, DWORD PTR ?opts@@3Ucli_options@@A+196
; Line 83
	mov	ecx, DWORD PTR _buf$GSCopy$1$[ebp]
	lea	esi, DWORD PTR [eax+edx*2]
	cmp	eax, ecx
	je	SHORT $LN25@search_buf
; File i:\study\filescan\filescan\util.c
; Line 403
	movzx	eax, WORD PTR [eax-2]
; File i:\study\filescan\filescan\search.c
; Line 83
	mov	eax, DWORD PTR _wordchar_table[eax*4]
	cmp	eax, DWORD PTR ?opts@@3Ucli_options@@A+80
	je	SHORT $LN26@search_buf
$LN25@search_buf:
	mov	eax, DWORD PTR _buf_len$GSCopy$1$[ebp]
	lea	eax, DWORD PTR [ecx+eax*2]
	cmp	esi, eax
	je	SHORT $LN24@search_buf
; File i:\study\filescan\filescan\util.c
; Line 403
	movzx	eax, WORD PTR [esi]
; File i:\study\filescan\filescan\search.c
; Line 83
	mov	eax, DWORD PTR _wordchar_table[eax*4]
	cmp	eax, DWORD PTR ?opts@@3Ucli_options@@A+84
	jne	SHORT $LN24@search_buf
$LN26@search_buf:
; Line 87
	mov	DWORD PTR _match_ptr$2$[ebp], esi
; Line 88
	sub	esi, ecx
; Line 89
	mov	ecx, DWORD PTR _matches_len$1$[ebp]
	sar	esi, 1
	jmp	$LN21@search_buf
$LN24@search_buf:
; Line 93
	mov	eax, DWORD PTR _matches_spare$1$[ebp]
	mov	edx, DWORD PTR _matches_len$1$[ebp]
	add	eax, edx
	cmp	eax, edi
	jb	SHORT $LN60@search_buf
; Line 95
	test	ebx, ebx
	je	SHORT $LN41@search_buf
	add	edi, edi
	jmp	SHORT $LN42@search_buf
$LN41@search_buf:
	mov	edi, 100				; 00000064H
$LN42@search_buf:
; Line 96
	push	edi
	push	DWORD PTR _dir_full_path$GSCopy$1$[ebp]
	push	OFFSET ??_C@_1GK@HLHPBHKH@?$AAT?$AAo?$AAo?$AA?5?$AAm?$AAa?$AAn?$AAy?$AA?5?$AAm?$AAa?$AAt?$AAc?$AAh?$AAe?$AAs?$AA?5?$AAi?$AAn?$AA?5?$AA?$CF?$AAs?$AA?4?$AA?5?$AAR?$AAe?$AAa?$AAl?$AAl?$AAo?$AAc?$AAa@
	call	?log_debug@@YAXPB_WZZ			; log_debug
	add	esp, 12					; 0000000cH
; Line 97
	lea	eax, DWORD PTR [edi*8]
; File i:\study\filescan\filescan\util.c
; Line 32
	push	eax
	push	ebx
	call	DWORD PTR __imp__realloc
	mov	ebx, eax
	add	esp, 8
; Line 33
	test	ebx, ebx
	je	$LN93@search_buf
	mov	edx, DWORD PTR _matches_len$1$[ebp]
$LN60@search_buf:
; File i:\study\filescan\filescan\search.c
; Line 100
	mov	ecx, DWORD PTR _match_ptr$1$[ebp]
	sub	ecx, DWORD PTR _buf$GSCopy$1$[ebp]
	sar	ecx, 1
; Line 103
	push	ecx
	push	DWORD PTR _dir_full_path$GSCopy$1$[ebp]
	mov	DWORD PTR [ebx+edx*8], ecx
	mov	esi, DWORD PTR ?opts@@3Ucli_options@@A+196
	add	esi, ecx
	push	OFFSET ??_C@_1FA@LLKHNKKD@?$AAM?$AAa?$AAt?$AAc?$AAh?$AA?5?$AAf?$AAo?$AAu?$AAn?$AAd?$AA?4?$AA?5?$AAF?$AAi?$AAl?$AAe?$AA?5?$AA?$CF?$AAs?$AA?0?$AA?5?$AAo?$AAf?$AAf?$AAs?$AAe?$AAt?$AA?5?$AA?$CF?$AAl?$AAu@
	mov	DWORD PTR [ebx+edx*8+4], esi
	call	?log_debug@@YAXPB_WZZ			; log_debug
; Line 105
	mov	eax, DWORD PTR _match_ptr$1$[ebp]
	add	esp, 12					; 0000000cH
	mov	edx, DWORD PTR ?opts@@3Ucli_options@@A+196
	mov	ecx, DWORD PTR _matches_len$1$[ebp]
	inc	ecx
	mov	DWORD PTR _matches_len$1$[ebp], ecx
	lea	eax, DWORD PTR [eax+edx*2]
	mov	DWORD PTR _match_ptr$2$[ebp], eax
; Line 107
	mov	eax, DWORD PTR ?opts@@3Ucli_options@@A+88
	test	eax, eax
	je	SHORT $LN21@search_buf
	cmp	ecx, eax
	jae	$LN76@search_buf
$LN21@search_buf:
; Line 67
	mov	eax, DWORD PTR _buf_len$GSCopy$1$[ebp]
	cmp	esi, eax
	jae	$LN91@search_buf
	mov	ecx, DWORD PTR _match_ptr$2$[ebp]
	jmp	$LL30@search_buf
$LN86@search_buf:
	xor	ecx, ecx
	jmp	$LN91@search_buf
$LN88@search_buf:
	mov	ecx, DWORD PTR _matches_len$1$[ebp]
	mov	eax, DWORD PTR _buf_len$GSCopy$1$[ebp]
	jmp	$LN84@search_buf
$LN90@search_buf:
	mov	esi, DWORD PTR _buf_len$GSCopy$1$[ebp]
$LN13@search_buf:
; Line 154
	test	ecx, ecx
	je	$LN12@search_buf
; Line 155
	cmp	DWORD PTR _binary$1$[ebp], -1
	jne	SHORT $LN11@search_buf
	cmp	DWORD PTR ?opts@@3Ucli_options@@A+120, 0
	jne	SHORT $LN11@search_buf
; Line 156
	mov	ecx, DWORD PTR _buf$GSCopy$1$[ebp]
	mov	edx, esi
	call	?is_binary@@YAHPB_WI@Z			; is_binary
$LN11@search_buf:
; Line 158
	mov	ecx, OFFSET ?print_mtx@@3PAUpthread_mutex_t_@@A ; print_mtx
	call	_pthread_mutex_lock
; Line 159
	cmp	DWORD PTR ?opts@@3Ucli_options@@A+120, 0
; Line 167
	mov	eax, DWORD PTR _matches_len$1$[ebp]
	je	SHORT $LN10@search_buf
	cmp	DWORD PTR ?opts@@3Ucli_options@@A+72, 0
	je	SHORT $LN8@search_buf
	cmp	eax, 2
	jae	SHORT $LN5@search_buf
$LN8@search_buf:
; Line 168
	cmp	DWORD PTR ?opts@@3Ucli_options@@A+116, 0
; Line 169
	mov	edx, DWORD PTR ?opts@@3Ucli_options@@A+104
	mov	ecx, DWORD PTR _dir_full_path$GSCopy$1$[ebp]
	je	SHORT $LN7@search_buf
	push	eax
	call	?print_path_count@@YAXPB_W_WI@Z		; print_path_count
	add	esp, 4
; Line 170
	jmp	SHORT $LN5@search_buf
$LN7@search_buf:
; Line 171
	call	?print_path@@YAXPB_W_W@Z		; print_path
; Line 174
	jmp	SHORT $LN5@search_buf
$LN10@search_buf:
; Line 175
	mov	edx, DWORD PTR _buf$GSCopy$1$[ebp]
	mov	ecx, DWORD PTR _dir_full_path$GSCopy$1$[ebp]
	push	eax
	push	ebx
	push	esi
	call	?print_file_matches@@YAXPB_W0IQBUmatch_t@@I@Z ; print_file_matches
	add	esp, 12					; 0000000cH
$LN5@search_buf:
; Line 177
	mov	ecx, OFFSET ?print_mtx@@3PAUpthread_mutex_t_@@A ; print_mtx
	call	_pthread_mutex_unlock
; Line 178
	mov	DWORD PTR ?opts@@3Ucli_options@@A+184, 1
	jmp	SHORT $LN2@search_buf
$LN12@search_buf:
; Line 179
	cmp	DWORD PTR ?opts@@3Ucli_options@@A+172, 0
	je	SHORT $LN3@search_buf
	cmp	DWORD PTR ?opts@@3Ucli_options@@A+136, 0
	je	SHORT $LN3@search_buf
; Line 180
	push	DWORD PTR _buf$GSCopy$1$[ebp]
	push	OFFSET ??_C@_02DKCKIIND@?$CFs?$AA@
	push	DWORD PTR ?out_fd@@3PAU_iobuf@@A	; out_fd
	call	DWORD PTR __imp__fprintf
	add	esp, 12					; 0000000cH
; Line 181
	jmp	SHORT $LN2@search_buf
$LN3@search_buf:
; Line 182
	push	DWORD PTR _dir_full_path$GSCopy$1$[ebp]
	push	OFFSET ??_C@_1BO@JKHMGOKN@?$AAN?$AAo?$AA?5?$AAm?$AAa?$AAt?$AAc?$AAh?$AA?5?$AAi?$AAn?$AA?5?$AA?$CF?$AAs?$AA?$AA@
	call	?log_debug@@YAXPB_WZZ			; log_debug
	add	esp, 8
$LN2@search_buf:
; Line 185
	test	edi, edi
	je	SHORT $LN1@search_buf
; Line 186
	push	ebx
	call	DWORD PTR __imp__free
	add	esp, 4
$LN1@search_buf:
; Line 188
	mov	ecx, DWORD PTR __$ArrayPad$[ebp]
	pop	edi
	pop	esi
	xor	ecx, ebp
	pop	ebx
	call	@__security_check_cookie@4
	mov	esp, ebp
	pop	ebp
	ret	0
$LN93@search_buf:
; File i:\study\filescan\filescan\util.c
; Line 28
	push	OFFSET ??_C@_1DE@PGDGFCEA@?$AAM?$AAe?$AAm?$AAo?$AAr?$AAy?$AA?5?$AAa?$AAl?$AAl?$AAo?$AAc?$AAa?$AAt?$AAi?$AAo?$AAn?$AA?5?$AAf?$AAa?$AAi?$AAl?$AAe?$AAd?$AA?4?$AA?$AA@
	call	?die@@YAXPB_WZZ				; die
$LN96@search_buf:
$LN95@search_buf:
	push	OFFSET ??_C@_1DE@PGDGFCEA@?$AAM?$AAe?$AAm?$AAo?$AAr?$AAy?$AA?5?$AAa?$AAl?$AAl?$AAo?$AAc?$AAa?$AAt?$AAi?$AAo?$AAn?$AA?5?$AAf?$AAa?$AAi?$AAl?$AAe?$AAd?$AA?4?$AA?$AA@
	call	?die@@YAXPB_WZZ				; die
$LN97@search_buf:
$LN92@search_buf:
	int	3
?search_buf@@YAXPA_WIPB_W0@Z ENDP			; search_buf
_TEXT	ENDS
; Function compile flags: /Ogtp
;	COMDAT ?search_file@@YAXPB_W@Z
_TEXT	SEGMENT
_tmp_file_path$1$ = -68					; size = 4
_hmmap$1$ = -64						; size = 4
__buf_len$1 = -64					; size = 4
_buf$ = -60						; size = 4
_statbuf$ = -56						; size = 48
__$ArrayPad$ = -4					; size = 4
?search_file@@YAXPB_W@Z PROC				; search_file, COMDAT
; _file_full_path$ = ecx
; File i:\study\filescan\filescan\search.c
; Line 205
	push	ebp
	mov	ebp, esp
	sub	esp, 68					; 00000044H
	mov	eax, DWORD PTR ___security_cookie
	xor	eax, ebp
	mov	DWORD PTR __$ArrayPad$[ebp], eax
	push	ebx
	push	esi
	push	edi
; Line 212
	xor	edi, edi
	mov	DWORD PTR _buf$[ebp], 0
; Line 213
	push	edi
	mov	esi, ecx
	push	edi
	push	esi
	call	DWORD PTR __imp_?_wopen@@YAHPB_WHH@Z
	mov	ebx, eax
	add	esp, 12					; 0000000cH
; Line 214
	test	ebx, ebx
	jns	SHORT $LN26@search_fil
; Line 216
	call	DWORD PTR __imp___errno
	push	DWORD PTR [eax]
	call	DWORD PTR __imp__strerror
	add	esp, 4
	push	eax
	push	esi
	push	OFFSET ??_C@_1EI@CNIHNIJL@?$AAS?$AAk?$AAi?$AAp?$AAp?$AAi?$AAn?$AAg?$AA?5?$AA?$CF?$AAs?$AA?3?$AA?5?$AAE?$AAr?$AAr?$AAo?$AAr?$AA?5?$AAo?$AAp?$AAe?$AAn?$AAi?$AAn?$AAg?$AA?5?$AAf?$AAi?$AAl?$AAe?$AA?3@
	call	?log_err@@YAXPB_WZZ			; log_err
	add	esp, 12					; 0000000cH
; Line 217
	jmp	$LN29@search_fil
$LN26@search_fil:
; Line 220
	lea	eax, DWORD PTR _statbuf$[ebp]
	push	eax
	push	ebx
	call	DWORD PTR __imp___fstat64i32
	add	esp, 8
; Line 221
	test	eax, eax
	je	SHORT $LN24@search_fil
; Line 222
	push	esi
	push	OFFSET ??_C@_1EI@CDNHONOO@?$AAS?$AAk?$AAi?$AAp?$AAp?$AAi?$AAn?$AAg?$AA?5?$AA?$CF?$AAs?$AA?3?$AA?5?$AAE?$AAr?$AAr?$AAo?$AAr?$AA?5?$AAf?$AAs?$AAt?$AAa?$AAt?$AA?$CI?$AA?$CJ?$AAi?$AAn?$AAg?$AA?5?$AAf?$AAi@
	call	?log_err@@YAXPB_WZZ			; log_err
; Line 306
	jmp	$LN30@search_fil
$LN24@search_fil:
; Line 226
	mov	ax, WORD PTR ?opts@@3Ucli_options@@A+188
	test	ax, ax
	je	SHORT $LN22@search_fil
	cmp	ax, WORD PTR _statbuf$[ebp+4]
	jne	SHORT $LN22@search_fil
; Line 227
	push	esi
	push	OFFSET ??_C@_1FA@CMPEALJK@?$AAS?$AAk?$AAi?$AAp?$AAp?$AAi?$AAn?$AAg?$AA?5?$AA?$CF?$AAs?$AA?3?$AA?5?$AAs?$AAt?$AAd?$AAo?$AAu?$AAt?$AA?5?$AAi?$AAs?$AA?5?$AAr?$AAe?$AAd?$AAi?$AAr?$AAe?$AAc?$AAt?$AAe@
	call	?log_debug@@YAXPB_WZZ			; log_debug
; Line 306
	jmp	$LN30@search_fil
$LN22@search_fil:
; Line 231
	mov	eax, DWORD PTR _statbuf$[ebp+6]
	test	eax, 61440				; 0000f000H
	jne	SHORT $LN20@search_fil
; Line 232
	movzx	eax, ax
	push	eax
	push	esi
	push	OFFSET ??_C@_1EI@OLALLIOB@?$AAS?$AAk?$AAi?$AAp?$AAp?$AAi?$AAn?$AAg?$AA?5?$AA?$CF?$AAs?$AA?3?$AA?5?$AAM?$AAo?$AAd?$AAe?$AA?5?$AA?$CF?$AAu?$AA?5?$AAi?$AAs?$AA?5?$AAn?$AAo?$AAt?$AA?5?$AAa?$AA?5?$AAf?$AAi@
	call	?log_err@@YAXPB_WZZ			; log_err
	add	esp, 12					; 0000000cH
; Line 306
	jmp	$LN29@search_fil
$LN20@search_fil:
; Line 236
	test	eax, 4096				; 00001000H
	je	SHORT $LN18@search_fil
; Line 237
	push	esi
	push	OFFSET ??_C@_1EK@CIAOHDJP@?$AA?$CF?$AAs?$AA?5?$AAi?$AAs?$AA?5?$AAa?$AA?5?$AAn?$AAa?$AAm?$AAe?$AAd?$AA?5?$AAp?$AAi?$AAp?$AAe?$AA?4?$AA?5?$AAs?$AAt?$AAr?$AAe?$AAa?$AAm?$AA?5?$AAs?$AAe?$AAa?$AAr?$AAc@
	call	?log_debug@@YAXPB_WZZ			; log_debug
; Line 238
	push	OFFSET ??_C@_01KDCPPGHE@r?$AA@
	push	ebx
	call	DWORD PTR __imp___fdopen
; Line 240
	push	eax
	call	DWORD PTR __imp__fclose
	add	esp, 20					; 00000014H
; Line 306
	jmp	$LN29@search_fil
$LN18@search_fil:
; Line 244
	mov	edi, DWORD PTR _statbuf$[ebp+20]
; Line 246
	test	edi, edi
	jne	SHORT $LN16@search_fil
; Line 247
	push	esi
	push	OFFSET ??_C@_1DI@JHHFKBFE@?$AAS?$AAk?$AAi?$AAp?$AAp?$AAi?$AAn?$AAg?$AA?5?$AA?$CF?$AAs?$AA?3?$AA?5?$AAf?$AAi?$AAl?$AAe?$AA?5?$AAi?$AAs?$AA?5?$AAe?$AAm?$AAp?$AAt?$AAy?$AA?4?$AA?$AA@
	call	?log_debug@@YAXPB_WZZ			; log_debug
	add	esp, 8
; Line 306
	jmp	$LN29@search_fil
$LN16@search_fil:
; Line 251
	cmp	DWORD PTR ?opts@@3Ucli_options@@A+76, 0
	jne	SHORT $LN14@search_fil
	cmp	edi, 2147483647				; 7fffffffH
	jle	SHORT $LN14@search_fil
; Line 252
	push	2147483647				; 7fffffffH
	push	esi
	push	OFFSET ??_C@_1II@PDENADBF@?$AAS?$AAk?$AAi?$AAp?$AAp?$AAi?$AAn?$AAg?$AA?5?$AA?$CF?$AAs?$AA?3?$AA?5?$AAp?$AAc?$AAr?$AAe?$AA1?$AA6?$AA_?$AAe?$AAx?$AAe?$AAc?$AA?$CI?$AA?$CJ?$AA?5?$AAc?$AAa?$AAn?$AA?8?$AAt@
	call	?log_err@@YAXPB_WZZ			; log_err
	add	esp, 12					; 0000000cH
; Line 306
	xor	edi, edi
	jmp	$LN29@search_fil
$LN14@search_fil:
; Line 259
	push	0
	push	edi
	push	0
	push	2
	push	0
	push	ebx
	call	DWORD PTR __imp___get_osfhandle
	add	esp, 4
	push	eax
	call	DWORD PTR __imp__CreateFileMappingW@24
; Line 260
	push	edi
	push	0
	push	0
	push	1
	push	eax
	mov	DWORD PTR _hmmap$1$[ebp], eax
	call	DWORD PTR __imp__MapViewOfFile@20
; Line 261
	mov	ecx, DWORD PTR _hmmap$1$[ebp]
	mov	DWORD PTR _buf$[ebp], eax
	test	ecx, ecx
	je	SHORT $LN12@search_fil
; Line 262
	push	ecx
	call	DWORD PTR __imp__CloseHandle@4
	mov	eax, DWORD PTR _buf$[ebp]
$LN12@search_fil:
; Line 264
	test	eax, eax
	jne	SHORT $LN11@search_fil
; Line 269
	push	eax
	push	eax
	lea	eax, DWORD PTR _buf$[ebp]
	push	eax
	push	0
	call	DWORD PTR __imp__GetLastError@0
	push	eax
	push	0
	push	4864					; 00001300H
	call	DWORD PTR __imp__FormatMessageW@28
; Line 270
	push	DWORD PTR _buf$[ebp]
	push	esi
	push	OFFSET ??_C@_1DI@CNEOJDHD@?$AAF?$AAi?$AAl?$AAe?$AA?5?$AA?$CF?$AAs?$AA?5?$AAf?$AAa?$AAi?$AAl?$AAe?$AAd?$AA?5?$AAt?$AAo?$AA?5?$AAl?$AAo?$AAa?$AAd?$AA?3?$AA?5?$AA?$CF?$AAs?$AA?4?$AA?$AA@
	call	?log_err@@YAXPB_WZZ			; log_err
	add	esp, 12					; 0000000cH
; Line 271
	push	DWORD PTR _buf$[ebp]
	call	DWORD PTR __imp__LocalFree@4
; Line 306
	xor	edi, edi
	jmp	SHORT $LN29@search_fil
$LN11@search_fil:
; Line 288
	mov	ecx, 520				; 00000208H
	call	?ag_malloc@@YAPAXI@Z			; ag_malloc
; Line 289
	cmp	DWORD PTR ?opts@@3Ucli_options@@A+164, 0
	mov	DWORD PTR _tmp_file_path$1$[ebp], eax
	je	SHORT $LN8@search_fil
; Line 290
	mov	ecx, DWORD PTR _buf$[ebp]
	mov	edx, edi
	call	?is_zipped@@YA?AW4ag_compression_type@@PBXH@Z ; is_zipped
; Line 291
	test	eax, eax
	je	SHORT $LN8@search_fil
; Line 293
	lea	ecx, DWORD PTR __buf_len$1[ebp]
	mov	DWORD PTR __buf_len$1[ebp], edi
	push	ecx
	push	esi
	push	ecx
	mov	ecx, eax
	call	?decompress@@YAPAXW4ag_compression_type@@PBXHPB_WPAH@Z ; decompress
	mov	edi, eax
	add	esp, 12					; 0000000cH
; Line 294
	test	edi, edi
	je	SHORT $LN6@search_fil
	mov	edx, DWORD PTR __buf_len$1[ebp]
	test	edx, edx
	je	SHORT $LN6@search_fil
; Line 298
	push	ecx
	push	esi
	mov	ecx, edi
	call	?search_buf@@YAXPA_WIPB_W0@Z		; search_buf
; Line 299
	mov	esi, DWORD PTR __imp__free
	push	edi
	call	esi
; Line 306
	mov	edi, DWORD PTR _tmp_file_path$1$[ebp]
	add	esp, 12					; 0000000cH
	jmp	SHORT $cleanup$33
$LN6@search_fil:
; Line 295
	push	esi
	push	OFFSET ??_C@_1EC@LFJPJIFB@?$AAC?$AAa?$AAn?$AAn?$AAo?$AAt?$AA?5?$AAd?$AAe?$AAc?$AAo?$AAm?$AAp?$AAr?$AAe?$AAs?$AAs?$AA?5?$AAz?$AAi?$AAp?$AAp?$AAe?$AAd?$AA?5?$AAf?$AAi?$AAl?$AAe?$AA?5?$AA?$CF?$AAs@
	call	?log_err@@YAXPB_WZZ			; log_err
; Line 306
	jmp	SHORT $LN31@search_fil
$LN8@search_fil:
; Line 304
	push	ecx
	mov	ecx, DWORD PTR _buf$[ebp]
	mov	edx, edi
	push	esi
	call	?search_buf@@YAXPA_WIPB_W0@Z		; search_buf
$LN31@search_fil:
	mov	edi, DWORD PTR _tmp_file_path$1$[ebp]
$LN30@search_fil:
	add	esp, 8
$LN29@search_fil:
	mov	esi, DWORD PTR __imp__free
$cleanup$33:
; Line 308
	mov	eax, DWORD PTR _buf$[ebp]
	test	eax, eax
	je	SHORT $LN3@search_fil
; Line 310
	push	eax
	call	DWORD PTR __imp__UnmapViewOfFile@4
$LN3@search_fil:
; Line 315
	cmp	ebx, -1
	je	SHORT $LN2@search_fil
; Line 316
	push	ebx
	call	DWORD PTR __imp___close
	add	esp, 4
$LN2@search_fil:
; Line 319
	test	edi, edi
	je	SHORT $LN1@search_fil
; Line 321
	push	edi
	call	DWORD PTR __imp__DeleteFileW@4
; Line 322
	push	edi
	call	esi
	add	esp, 4
$LN1@search_fil:
; Line 324
	mov	ecx, DWORD PTR __$ArrayPad$[ebp]
	pop	edi
	pop	esi
	xor	ecx, ebp
	pop	ebx
	call	@__security_check_cookie@4
	mov	esp, ebp
	pop	ebp
	ret	0
?search_file@@YAXPB_W@Z ENDP				; search_file
_TEXT	ENDS
; Function compile flags: /Ogtp
;	COMDAT ?check_symloop_enter@@YAHPB_WPAUdirkey_t@@@Z
_TEXT	SEGMENT
?check_symloop_enter@@YAHPB_WPAUdirkey_t@@@Z PROC	; check_symloop_enter, COMDAT
; _path$dead$ = ecx
; _outkey$dead$ = edx
; File i:\study\filescan\filescan\search.c
; Line 356
	xor	eax, eax
; Line 385
	ret	0
?check_symloop_enter@@YAHPB_WPAUdirkey_t@@@Z ENDP	; check_symloop_enter
_TEXT	ENDS
; Function compile flags: /Ogtp
;	COMDAT ?check_symloop_leave@@YAHPAUdirkey_t@@@Z
_TEXT	SEGMENT
?check_symloop_leave@@YAHPAUdirkey_t@@@Z PROC		; check_symloop_leave, COMDAT
; _dirkey$dead$ = ecx
; File i:\study\filescan\filescan\search.c
; Line 389
	xor	eax, eax
; Line 407
	ret	0
?check_symloop_leave@@YAHPAUdirkey_t@@@Z ENDP		; check_symloop_leave
_TEXT	ENDS
END
